

HI-TECH Software PIC LITE Macro Assembler V9.81 build 7503 
                                                                                               Tue May 04 13:11:06 2021

HI-TECH Software Omniscient Code Generator (Lite mode) build 7503
     1  0000                     opt subtitle "HI-TECH Software Omniscient Code Generator (Lite mode) build 7503"
     2                           
     3                           opt pagewidth 120
     4                           
     5                           	opt lm
     6                           
     7                           	processor	16F887
     8                           clrc	macro
     9                           	bcf	3,0
    10  0000                     	endm
    11                           clrz	macro
    12                           	bcf	3,2
    13  0000                     	endm
    14                           setc	macro
    15                           	bsf	3,0
    16  0000                     	endm
    17                           setz	macro
    18                           	bsf	3,2
    19  0000                     	endm
    20                           skipc	macro
    21                           	btfss	3,0
    22  0000                     	endm
    23                           skipz	macro
    24                           	btfss	3,2
    25  0000                     	endm
    26                           skipnc	macro
    27                           	btfsc	3,0
    28  0000                     	endm
    29                           skipnz	macro
    30                           	btfsc	3,2
    31  0000                     	endm
    32  0000                     indf	equ	0
    33  0000                     indf0	equ	0
    34  0002                     pc	equ	2
    35  0002                     pcl	equ	2
    36  0003                     status	equ	3
    37  0004                     fsr	equ	4
    38  0004                     fsr0	equ	4
    39  0001                     c	equ	1
    40  0000                     z	equ	0
    41  000A                     pclath	equ	10
    42                           	FNROOT	_main
    43                           	global	_PORTA
    44                           psect	maintext,global,class=CODE,delta=2
    45                           global __pmaintext
    46  061F                     __pmaintext:
    47  0005                     _PORTA	set	5
    48                           	global	_PORTB
    49  0006                     _PORTB	set	6
    50                           	global	_PORTD
    51  0008                     _PORTD	set	8
    52                           	global	_RA0
    53  0028                     _RA0	set	40
    54                           	global	_RA1
    55  0029                     _RA1	set	41
    56                           	global	_RA2
    57  002A                     _RA2	set	42
    58                           	global	_RB0
    59  0030                     _RB0	set	48
    60                           	global	_TRISA
    61  0085                     _TRISA	set	133
    62                           	global	_TRISB
    63  0086                     _TRISB	set	134
    64                           	global	_TRISD
    65  0088                     _TRISD	set	136
    66                           	global	_ANSEL
    67  0188                     _ANSEL	set	392
    68                           	global	_ANSELH
    69  0189                     _ANSELH	set	393
    70                           	file	"passwordentry.as"
    71                           	line	#
    72                           psect cinit,class=CODE,delta=2
    73                           global start_initialization
    74  061B                     start_initialization:
    75                           
    76                           psect cinit,class=CODE,delta=2
    77                           global end_of_initialization
    78                           
    79                           ;End of C runtime variable initialization code
    80                           
    81  061B                     end_of_initialization:
    82  061B  0183               clrf status
    83  061C  120A  118A  2E1F   ljmp _main	;jump to C main() function
    84                           psect	cstackCOMMON,class=COMMON,space=1
    85                           global __pcstackCOMMON
    86  0070                     __pcstackCOMMON:
    87                           	global	?_main
    88  0070                     ?_main:	; 0 bytes @ 0x0
    89                           	global	??_main
    90  0070                     ??_main:	; 0 bytes @ 0x0
    91  0070                     	ds	6
    92                           psect	cstackBANK0,class=BANK0,space=1
    93                           global __pcstackBANK0
    94  0020                     __pcstackBANK0:
    95                           	global	main@count
    96  0020                     main@count:	; 2 bytes @ 0x0
    97  0020                     	ds	2
    98                           	global	main@arr
    99  0022                     main@arr:	; 6 bytes @ 0x2
   100  0022                     	ds	6
   101                           	global	main@mat
   102  0028                     main@mat:	; 6 bytes @ 0x8
   103  0028                     	ds	6
   104                           	global	main@enter
   105  002E                     main@enter:	; 2 bytes @ 0xE
   106  002E                     	ds	2
   107                           	global	main@j
   108  0030                     main@j:	; 2 bytes @ 0x10
   109  0030                     	ds	2
   110                           	global	main@i
   111  0032                     main@i:	; 2 bytes @ 0x12
   112  0032                     	ds	2
   113 ;;Data sizes: Strings 0, constant 0, data 0, bss 0, persistent 0 stack 0
   114 ;;Auto spaces:   Size  Autos    Used
   115 ;; COMMON          14      6       6
   116 ;; BANK0           80     20      20
   117 ;; BANK1           80      0       0
   118 ;; BANK3           96      0       0
   119 ;; BANK2           96      0       0
   120                           
   121 ;;
   122 ;; Pointer list with targets:
   123                           
   124                           
   125                           
   126 ;;
   127 ;; Critical Paths under _main in COMMON
   128 ;;
   129 ;;   None.
   130 ;;
   131 ;; Critical Paths under _main in BANK0
   132 ;;
   133 ;;   None.
   134 ;;
   135 ;; Critical Paths under _main in BANK1
   136 ;;
   137 ;;   None.
   138 ;;
   139 ;; Critical Paths under _main in BANK3
   140 ;;
   141 ;;   None.
   142 ;;
   143 ;; Critical Paths under _main in BANK2
   144 ;;
   145 ;;   None.
   146                           
   147 ;;
   148 ;;Main: autosize = 0, tempsize = 6, incstack = 0, save=0
   149 ;;
   150                           
   151 ;;
   152 ;;Call Graph Tables:
   153 ;;
   154 ;; ---------------------------------------------------------------------------------
   155 ;; (Depth) Function   	        Calls       Base Space   Used Autos Params    Refs
   156 ;; ---------------------------------------------------------------------------------
   157 ;; (0) _main                                                26    26      0     852
   158 ;;                                              0 COMMON     6     6      0
   159 ;;                                              0 BANK0     20    20      0
   160 ;; ---------------------------------------------------------------------------------
   161 ;; Estimated maximum stack depth 0
   162 ;; ---------------------------------------------------------------------------------
   163                           
   164 ;; Call Graph Graphs:
   165                           
   166 ;; _main (ROOT)
   167 ;;
   168                           
   169 ;; Address spaces:
   170                           
   171 ;;Name               Size   Autos  Total    Cost      Usage
   172 ;;BITCOMMON            E      0       0       0        0.0%
   173 ;;EEDATA             100      0       0       0        0.0%
   174 ;;NULL                 0      0       0       0        0.0%
   175 ;;CODE                 0      0       0       0        0.0%
   176 ;;COMMON               E      6       6       1       42.9%
   177 ;;BITSFR0              0      0       0       1        0.0%
   178 ;;SFR0                 0      0       0       1        0.0%
   179 ;;BITSFR1              0      0       0       2        0.0%
   180 ;;SFR1                 0      0       0       2        0.0%
   181 ;;STACK                0      0       0       2        0.0%
   182 ;;ABS                  0      0       0       3        0.0%
   183 ;;BITBANK0            50      0       0       4        0.0%
   184 ;;BITSFR3              0      0       0       4        0.0%
   185 ;;SFR3                 0      0       0       4        0.0%
   186 ;;BANK0               50     14      14       5       25.0%
   187 ;;BITSFR2              0      0       0       5        0.0%
   188 ;;SFR2                 0      0       0       5        0.0%
   189 ;;BITBANK1            50      0       0       6        0.0%
   190 ;;BANK1               50      0       0       7        0.0%
   191 ;;BITBANK3            60      0       0       8        0.0%
   192 ;;BANK3               60      0       0       9        0.0%
   193 ;;BITBANK2            60      0       0      10        0.0%
   194 ;;BANK2               60      0       0      11        0.0%
   195 ;;DATA                 0      0       0      12        0.0%
   196                           
   197                           	global	_main
   198                           psect	maintext
   199                           
   200 ;; *************** function _main *****************
   201 ;; Defined at:
   202 ;;		line 3 in file "E:\KTU\Softwares\mplab\Passwordentry\passwordentry.c"
   203 ;; Parameters:    Size  Location     Type
   204 ;;		None
   205 ;; Auto vars:     Size  Location     Type
   206 ;;  mat             6    8[BANK0 ] int [3]
   207 ;;  arr             6    2[BANK0 ] int [3]
   208 ;;  i               2   18[BANK0 ] int 
   209 ;;  j               2   16[BANK0 ] int 
   210 ;;  enter           2   14[BANK0 ] int 
   211 ;;  count           2    0[BANK0 ] int 
   212 ;; Return value:  Size  Location     Type
   213 ;;		None               void
   214 ;; Registers used:
   215 ;;		wreg, fsr0l, fsr0h, status,2, status,0, btemp+1
   216 ;; Tracked objects:
   217 ;;		On entry : 17F/0
   218 ;;		On exit  : 0/0
   219 ;;		Unchanged: 0/0
   220 ;; Data sizes:     COMMON   BANK0   BANK1   BANK3   BANK2
   221 ;;      Params:         0       0       0       0       0
   222 ;;      Locals:         0      20       0       0       0
   223 ;;      Temps:          6       0       0       0       0
   224 ;;      Totals:         6      20       0       0       0
   225 ;;Total ram usage:       26 bytes
   226 ;; This function calls:
   227 ;;		Nothing
   228 ;; This function is called by:
   229 ;;		Startup code after reset
   230 ;; This function uses a non-reentrant model
   231 ;;
   232                           psect	maintext
   233                           	file	"E:\KTU\Softwares\mplab\Passwordentry\passwordentry.c"
   234                           	line	3
   235                           	global	__size_of_main
   236  01E1                     	__size_of_main	equ	__end_of_main-_main
   237                           	
   238  061F                     _main:	
   239                           	opt	stack 8
   240                           ; Regs used in _main: [wreg-fsr0h+status,2+status,0+btemp+1]
   241                           	line	4
   242                           	
   243  061F                     l2325:	
   244                           ;passwordentry.c: 4: PORTA=0X00;
   245  061F  1283               	bcf	status, 5	;RP0=0, select bank0
   246  0620  1303               	bcf	status, 6	;RP1=0, select bank0
   247  0621  0185               	clrf	(5)	;volatile
   248                           	line	5
   249                           	
   250  0622                     l2327:	
   251                           ;passwordentry.c: 5: TRISA=0X07;
   252  0622  3007               	movlw	(07h)
   253  0623  1683               	bsf	status, 5	;RP0=1, select bank1
   254  0624  1303               	bcf	status, 6	;RP1=0, select bank1
   255  0625  0085               	movwf	(133)^080h	;volatile
   256                           	line	6
   257                           	
   258  0626                     l2329:	
   259                           ;passwordentry.c: 6: PORTB=0X00;
   260  0626  1283               	bcf	status, 5	;RP0=0, select bank0
   261  0627  1303               	bcf	status, 6	;RP1=0, select bank0
   262  0628  0186               	clrf	(6)	;volatile
   263                           	line	7
   264                           	
   265  0629                     l2331:	
   266                           ;passwordentry.c: 7: TRISB=0X00;
   267  0629  1683               	bsf	status, 5	;RP0=1, select bank1
   268  062A  1303               	bcf	status, 6	;RP1=0, select bank1
   269  062B  0186               	clrf	(134)^080h	;volatile
   270                           	line	8
   271                           	
   272  062C                     l2333:	
   273                           ;passwordentry.c: 8: PORTD=0X00;
   274  062C  1283               	bcf	status, 5	;RP0=0, select bank0
   275  062D  1303               	bcf	status, 6	;RP1=0, select bank0
   276  062E  0188               	clrf	(8)	;volatile
   277                           	line	9
   278                           	
   279  062F                     l2335:	
   280                           ;passwordentry.c: 9: TRISD=0X00;
   281  062F  1683               	bsf	status, 5	;RP0=1, select bank1
   282  0630  1303               	bcf	status, 6	;RP1=0, select bank1
   283  0631  0188               	clrf	(136)^080h	;volatile
   284                           	line	10
   285                           	
   286  0632                     l2337:	
   287                           ;passwordentry.c: 10: ANSEL=0X00;
   288  0632  1683               	bsf	status, 5	;RP0=1, select bank3
   289  0633  1703               	bsf	status, 6	;RP1=1, select bank3
   290  0634  0188               	clrf	(392)^0180h	;volatile
   291                           	line	11
   292                           	
   293  0635                     l2339:	
   294                           ;passwordentry.c: 11: ANSELH=0X00;
   295  0635  0189               	clrf	(393)^0180h	;volatile
   296                           	line	12
   297                           	
   298  0636                     l2341:	
   299                           ;passwordentry.c: 12: int i=0, j=0;
   300  0636  1283               	bcf	status, 5	;RP0=0, select bank0
   301  0637  1303               	bcf	status, 6	;RP1=0, select bank0
   302  0638  01B2               	clrf	(main@i)
   303  0639  01B3               	clrf	(main@i+1)
   304                           	
   305  063A                     l2343:	
   306  063A  01B0               	clrf	(main@j)
   307  063B  01B1               	clrf	(main@j+1)
   308                           	line	15
   309                           	
   310  063C                     l2345:	
   311                           ;passwordentry.c: 13: int arr[3];
   312                           ;passwordentry.c: 14: int mat[3];
   313                           ;passwordentry.c: 15: int enter=1;
   314  063C  3001               	movlw	low(01h)
   315  063D  00AE               	movwf	(main@enter)
   316  063E  3000               	movlw	high(01h)
   317  063F  00AF               	movwf	((main@enter))+1
   318                           	line	16
   319                           ;passwordentry.c: 16: int count=0;
   320  0640  01A0               	clrf	(main@count)
   321  0641  01A1               	clrf	(main@count+1)
   322  0642  2E43               	goto	l2347
   323                           	line	17
   324                           ;passwordentry.c: 17: while(1)
   325                           	
   326  0643                     l1025:	
   327                           	line	19
   328                           	
   329  0643                     l2347:	
   330                           ;passwordentry.c: 18: {
   331                           ;passwordentry.c: 19: if(enter==1)
   332  0643  3001               	movlw	01h
   333  0644  062E               	xorwf	(main@enter),w
   334  0645  042F               	iorwf	(main@enter+1),w
   335  0646  1D03               	skipz
   336  0647  2E49               	goto	u2421
   337  0648  2E4A               	goto	u2420
   338  0649                     u2421:
   339  0649  2EE9               	goto	l2385
   340  064A                     u2420:
   341                           	line	21
   342                           	
   343  064A                     l2349:	
   344                           ;passwordentry.c: 20: {
   345                           ;passwordentry.c: 21: if(RA0==1)
   346  064A  1C05               	btfss	(40/8),(40)&7
   347  064B  2E4D               	goto	u2431
   348  064C  2E4E               	goto	u2430
   349  064D                     u2431:
   350  064D  2E79               	goto	l1027
   351  064E                     u2430:
   352                           	line	24
   353                           	
   354  064E                     l2351:	
   355                           ;passwordentry.c: 22: {
   356                           ;passwordentry.c: 24: arr[i]=1;
   357  064E  0832               	movf	(main@i),w
   358  064F  00F0               	movwf	(??_main+0)+0
   359  0650  0770               	addwf	(??_main+0)+0,w
   360  0651  3E22               	addlw	main@arr&0ffh
   361  0652  0084               	movwf	fsr0
   362  0653  3001               	movlw	low(01h)
   363  0654  1383               	bcf	status, 7	;select IRP bank0
   364  0655  0080               	movwf	indf
   365  0656  0A84               	incf	fsr0,f
   366  0657  3000               	movlw	high(01h)
   367  0658  0080               	movwf	indf
   368                           	line	25
   369                           	
   370  0659                     l2353:	
   371                           ;passwordentry.c: 25: i++;
   372  0659  3001               	movlw	low(01h)
   373  065A  07B2               	addwf	(main@i),f
   374  065B  1803               	skipnc
   375  065C  0AB3               	incf	(main@i+1),f
   376  065D  3000               	movlw	high(01h)
   377  065E  07B3               	addwf	(main@i+1),f
   378                           	line	26
   379                           	
   380  065F                     l2355:	
   381                           ;passwordentry.c: 26: if(arr[i]==1)
   382  065F  0832               	movf	(main@i),w
   383  0660  00F0               	movwf	(??_main+0)+0
   384  0661  0770               	addwf	(??_main+0)+0,w
   385  0662  3E22               	addlw	main@arr&0ffh
   386  0663  0084               	movwf	fsr0
   387  0664  0800               	movf	indf,w
   388  0665  00F1               	movwf	(??_main+1)+0+0
   389  0666  0A84               	incf	fsr0,f
   390  0667  0800               	movf	indf,w
   391  0668  00F2               	movwf	(??_main+1)+0+1
   392  0669  3001               	movlw	01h
   393  066A  0671               	xorwf	0+(??_main+1)+0,w
   394  066B  0472               	iorwf	1+(??_main+1)+0,w
   395  066C  1D03               	skipz
   396  066D  2E6F               	goto	u2441
   397  066E  2E70               	goto	u2440
   398  066F                     u2441:
   399  066F  2E74               	goto	l1029
   400  0670                     u2440:
   401                           	line	28
   402                           	
   403  0670                     l2357:	
   404                           ;passwordentry.c: 27: {
   405                           ;passwordentry.c: 28: PORTD=0X06;
   406  0670  3006               	movlw	(06h)
   407  0671  0088               	movwf	(8)	;volatile
   408  0672  2E74               	goto	l1029
   409                           	line	29
   410                           	
   411  0673                     l1028:	
   412                           	line	30
   413                           ;passwordentry.c: 29: }
   414                           ;passwordentry.c: 30: while(RA0==1);
   415  0673  2E74               	goto	l1029
   416                           	
   417  0674                     l1030:	
   418                           	
   419  0674                     l1029:	
   420  0674  1805               	btfsc	(40/8),(40)&7
   421  0675  2E77               	goto	u2451
   422  0676  2E78               	goto	u2450
   423  0677                     u2451:
   424  0677  2E74               	goto	l1029
   425  0678                     u2450:
   426  0678  2E79               	goto	l1027
   427                           	
   428  0679                     l1031:	
   429                           	line	31
   430                           	
   431  0679                     l1027:	
   432                           	line	32
   433                           ;passwordentry.c: 31: }
   434                           ;passwordentry.c: 32: if(RA1==1)
   435  0679  1C85               	btfss	(41/8),(41)&7
   436  067A  2E7C               	goto	u2461
   437  067B  2E7D               	goto	u2460
   438  067C                     u2461:
   439  067C  2EAA               	goto	l2369
   440  067D                     u2460:
   441  067D  2E7F               	goto	l1033
   442                           	line	34
   443                           	
   444  067E                     l2359:	
   445                           ;passwordentry.c: 33: {
   446                           ;passwordentry.c: 34: while(RA1==1);
   447  067E  2E7F               	goto	l1033
   448                           	
   449  067F                     l1034:	
   450                           	
   451  067F                     l1033:	
   452  067F  1885               	btfsc	(41/8),(41)&7
   453  0680  2E82               	goto	u2471
   454  0681  2E83               	goto	u2470
   455  0682                     u2471:
   456  0682  2E7F               	goto	l1033
   457  0683                     u2470:
   458  0683  2E84               	goto	l2361
   459                           	
   460  0684                     l1035:	
   461                           	line	35
   462                           	
   463  0684                     l2361:	
   464                           ;passwordentry.c: 35: arr[i]=2;
   465  0684  0832               	movf	(main@i),w
   466  0685  00F0               	movwf	(??_main+0)+0
   467  0686  0770               	addwf	(??_main+0)+0,w
   468  0687  3E22               	addlw	main@arr&0ffh
   469  0688  0084               	movwf	fsr0
   470  0689  3002               	movlw	low(02h)
   471  068A  1383               	bcf	status, 7	;select IRP bank0
   472  068B  0080               	movwf	indf
   473  068C  0A84               	incf	fsr0,f
   474  068D  3000               	movlw	high(02h)
   475  068E  0080               	movwf	indf
   476                           	line	36
   477                           	
   478  068F                     l2363:	
   479                           ;passwordentry.c: 36: i++;
   480  068F  3001               	movlw	low(01h)
   481  0690  07B2               	addwf	(main@i),f
   482  0691  1803               	skipnc
   483  0692  0AB3               	incf	(main@i+1),f
   484  0693  3000               	movlw	high(01h)
   485  0694  07B3               	addwf	(main@i+1),f
   486                           	line	37
   487                           	
   488  0695                     l2365:	
   489                           ;passwordentry.c: 37: if(arr[i]==2)
   490  0695  0832               	movf	(main@i),w
   491  0696  00F0               	movwf	(??_main+0)+0
   492  0697  0770               	addwf	(??_main+0)+0,w
   493  0698  3E22               	addlw	main@arr&0ffh
   494  0699  0084               	movwf	fsr0
   495  069A  0800               	movf	indf,w
   496  069B  00F1               	movwf	(??_main+1)+0+0
   497  069C  0A84               	incf	fsr0,f
   498  069D  0800               	movf	indf,w
   499  069E  00F2               	movwf	(??_main+1)+0+1
   500  069F  3002               	movlw	02h
   501  06A0  0671               	xorwf	0+(??_main+1)+0,w
   502  06A1  0472               	iorwf	1+(??_main+1)+0,w
   503  06A2  1D03               	skipz
   504  06A3  2EA5               	goto	u2481
   505  06A4  2EA6               	goto	u2480
   506  06A5                     u2481:
   507  06A5  2EAA               	goto	l2369
   508  06A6                     u2480:
   509                           	line	39
   510                           	
   511  06A6                     l2367:	
   512                           ;passwordentry.c: 38: {
   513                           ;passwordentry.c: 39: PORTD=0x5B;
   514  06A6  305B               	movlw	(05Bh)
   515  06A7  0088               	movwf	(8)	;volatile
   516  06A8  2EAA               	goto	l2369
   517                           	line	40
   518                           	
   519  06A9                     l1036:	
   520  06A9  2EAA               	goto	l2369
   521                           	line	41
   522                           	
   523  06AA                     l1032:	
   524                           	line	42
   525                           	
   526  06AA                     l2369:	
   527                           ;passwordentry.c: 40: }
   528                           ;passwordentry.c: 41: }
   529                           ;passwordentry.c: 42: if(RA2==1)
   530  06AA  1D05               	btfss	(42/8),(42)&7
   531  06AB  2EAD               	goto	u2491
   532  06AC  2EAE               	goto	u2490
   533  06AD                     u2491:
   534  06AD  2EDA               	goto	l1037
   535  06AE                     u2490:
   536  06AE  2EB0               	goto	l1038
   537                           	line	44
   538                           	
   539  06AF                     l2371:	
   540                           ;passwordentry.c: 43: {
   541                           ;passwordentry.c: 44: while(RA2==1);
   542  06AF  2EB0               	goto	l1038
   543                           	
   544  06B0                     l1039:	
   545                           	
   546  06B0                     l1038:	
   547  06B0  1905               	btfsc	(42/8),(42)&7
   548  06B1  2EB3               	goto	u2501
   549  06B2  2EB4               	goto	u2500
   550  06B3                     u2501:
   551  06B3  2EB0               	goto	l1038
   552  06B4                     u2500:
   553  06B4  2EB5               	goto	l2373
   554                           	
   555  06B5                     l1040:	
   556                           	line	45
   557                           	
   558  06B5                     l2373:	
   559                           ;passwordentry.c: 45: arr[i]=3;
   560  06B5  0832               	movf	(main@i),w
   561  06B6  00F0               	movwf	(??_main+0)+0
   562  06B7  0770               	addwf	(??_main+0)+0,w
   563  06B8  3E22               	addlw	main@arr&0ffh
   564  06B9  0084               	movwf	fsr0
   565  06BA  3003               	movlw	low(03h)
   566  06BB  1383               	bcf	status, 7	;select IRP bank0
   567  06BC  0080               	movwf	indf
   568  06BD  0A84               	incf	fsr0,f
   569  06BE  3000               	movlw	high(03h)
   570  06BF  0080               	movwf	indf
   571                           	line	46
   572                           	
   573  06C0                     l2375:	
   574                           ;passwordentry.c: 46: i++;
   575  06C0  3001               	movlw	low(01h)
   576  06C1  07B2               	addwf	(main@i),f
   577  06C2  1803               	skipnc
   578  06C3  0AB3               	incf	(main@i+1),f
   579  06C4  3000               	movlw	high(01h)
   580  06C5  07B3               	addwf	(main@i+1),f
   581                           	line	47
   582                           	
   583  06C6                     l2377:	
   584                           ;passwordentry.c: 47: if(arr[i]==3)
   585  06C6  0832               	movf	(main@i),w
   586  06C7  00F0               	movwf	(??_main+0)+0
   587  06C8  0770               	addwf	(??_main+0)+0,w
   588  06C9  3E22               	addlw	main@arr&0ffh
   589  06CA  0084               	movwf	fsr0
   590  06CB  0800               	movf	indf,w
   591  06CC  00F1               	movwf	(??_main+1)+0+0
   592  06CD  0A84               	incf	fsr0,f
   593  06CE  0800               	movf	indf,w
   594  06CF  00F2               	movwf	(??_main+1)+0+1
   595  06D0  3003               	movlw	03h
   596  06D1  0671               	xorwf	0+(??_main+1)+0,w
   597  06D2  0472               	iorwf	1+(??_main+1)+0,w
   598  06D3  1D03               	skipz
   599  06D4  2ED6               	goto	u2511
   600  06D5  2ED7               	goto	u2510
   601  06D6                     u2511:
   602  06D6  2EDA               	goto	l1037
   603  06D7                     u2510:
   604                           	line	49
   605                           	
   606  06D7                     l2379:	
   607                           ;passwordentry.c: 48: {
   608                           ;passwordentry.c: 49: PORTD=0X4F;
   609  06D7  304F               	movlw	(04Fh)
   610  06D8  0088               	movwf	(8)	;volatile
   611  06D9  2EDA               	goto	l1037
   612                           	line	50
   613                           	
   614  06DA                     l1041:	
   615                           	line	51
   616                           	
   617  06DA                     l1037:	
   618                           	line	52
   619                           ;passwordentry.c: 50: }
   620                           ;passwordentry.c: 51: }
   621                           ;passwordentry.c: 52: if(i==3)
   622  06DA  3003               	movlw	03h
   623  06DB  0632               	xorwf	(main@i),w
   624  06DC  0433               	iorwf	(main@i+1),w
   625  06DD  1D03               	skipz
   626  06DE  2EE0               	goto	u2521
   627  06DF  2EE1               	goto	u2520
   628  06E0                     u2521:
   629  06E0  2EE9               	goto	l2385
   630  06E1                     u2520:
   631                           	line	54
   632                           	
   633  06E1                     l2381:	
   634                           ;passwordentry.c: 53: {
   635                           ;passwordentry.c: 54: enter=2;
   636  06E1  3002               	movlw	low(02h)
   637  06E2  00AE               	movwf	(main@enter)
   638  06E3  3000               	movlw	high(02h)
   639  06E4  00AF               	movwf	((main@enter))+1
   640                           	line	55
   641                           	
   642  06E5                     l2383:	
   643                           ;passwordentry.c: 55: i=0;
   644  06E5  01B2               	clrf	(main@i)
   645  06E6  01B3               	clrf	(main@i+1)
   646  06E7  2EE9               	goto	l2385
   647                           	line	56
   648                           	
   649  06E8                     l1042:	
   650  06E8  2EE9               	goto	l2385
   651                           	line	57
   652                           	
   653  06E9                     l1026:	
   654                           	line	58
   655                           	
   656  06E9                     l2385:	
   657                           ;passwordentry.c: 56: }
   658                           ;passwordentry.c: 57: }
   659                           ;passwordentry.c: 58: if(enter==2)
   660  06E9  3002               	movlw	02h
   661  06EA  062E               	xorwf	(main@enter),w
   662  06EB  042F               	iorwf	(main@enter+1),w
   663  06EC  1D03               	skipz
   664  06ED  2EEF               	goto	u2531
   665  06EE  2EF0               	goto	u2530
   666  06EF                     u2531:
   667  06EF  2F91               	goto	l2427
   668  06F0                     u2530:
   669                           	line	60
   670                           	
   671  06F0                     l2387:	
   672                           ;passwordentry.c: 59: {
   673                           ;passwordentry.c: 60: if(RA0==1)
   674  06F0  1C05               	btfss	(40/8),(40)&7
   675  06F1  2EF3               	goto	u2541
   676  06F2  2EF4               	goto	u2540
   677  06F3                     u2541:
   678  06F3  2F21               	goto	l2399
   679  06F4                     u2540:
   680  06F4  2EF6               	goto	l1045
   681                           	line	62
   682                           	
   683  06F5                     l2389:	
   684                           ;passwordentry.c: 61: {
   685                           ;passwordentry.c: 62: while(RA0==1);
   686  06F5  2EF6               	goto	l1045
   687                           	
   688  06F6                     l1046:	
   689                           	
   690  06F6                     l1045:	
   691  06F6  1805               	btfsc	(40/8),(40)&7
   692  06F7  2EF9               	goto	u2551
   693  06F8  2EFA               	goto	u2550
   694  06F9                     u2551:
   695  06F9  2EF6               	goto	l1045
   696  06FA                     u2550:
   697  06FA  2EFB               	goto	l2391
   698                           	
   699  06FB                     l1047:	
   700                           	line	63
   701                           	
   702  06FB                     l2391:	
   703                           ;passwordentry.c: 63: mat[j]=1;
   704  06FB  0830               	movf	(main@j),w
   705  06FC  00F0               	movwf	(??_main+0)+0
   706  06FD  0770               	addwf	(??_main+0)+0,w
   707  06FE  3E28               	addlw	main@mat&0ffh
   708  06FF  0084               	movwf	fsr0
   709  0700  3001               	movlw	low(01h)
   710  0701  1383               	bcf	status, 7	;select IRP bank0
   711  0702  0080               	movwf	indf
   712  0703  0A84               	incf	fsr0,f
   713  0704  3000               	movlw	high(01h)
   714  0705  0080               	movwf	indf
   715                           	line	64
   716                           	
   717  0706                     l2393:	
   718                           ;passwordentry.c: 64: j++;
   719  0706  3001               	movlw	low(01h)
   720  0707  07B0               	addwf	(main@j),f
   721  0708  1803               	skipnc
   722  0709  0AB1               	incf	(main@j+1),f
   723  070A  3000               	movlw	high(01h)
   724  070B  07B1               	addwf	(main@j+1),f
   725                           	line	65
   726                           	
   727  070C                     l2395:	
   728                           ;passwordentry.c: 65: if(mat[j]==1)
   729  070C  0830               	movf	(main@j),w
   730  070D  00F0               	movwf	(??_main+0)+0
   731  070E  0770               	addwf	(??_main+0)+0,w
   732  070F  3E28               	addlw	main@mat&0ffh
   733  0710  0084               	movwf	fsr0
   734  0711  0800               	movf	indf,w
   735  0712  00F1               	movwf	(??_main+1)+0+0
   736  0713  0A84               	incf	fsr0,f
   737  0714  0800               	movf	indf,w
   738  0715  00F2               	movwf	(??_main+1)+0+1
   739  0716  3001               	movlw	01h
   740  0717  0671               	xorwf	0+(??_main+1)+0,w
   741  0718  0472               	iorwf	1+(??_main+1)+0,w
   742  0719  1D03               	skipz
   743  071A  2F1C               	goto	u2561
   744  071B  2F1D               	goto	u2560
   745  071C                     u2561:
   746  071C  2F21               	goto	l2399
   747  071D                     u2560:
   748                           	line	67
   749                           	
   750  071D                     l2397:	
   751                           ;passwordentry.c: 66: {
   752                           ;passwordentry.c: 67: PORTD=0X06;
   753  071D  3006               	movlw	(06h)
   754  071E  0088               	movwf	(8)	;volatile
   755  071F  2F21               	goto	l2399
   756                           	line	68
   757                           	
   758  0720                     l1048:	
   759  0720  2F21               	goto	l2399
   760                           	line	69
   761                           	
   762  0721                     l1044:	
   763                           	line	70
   764                           	
   765  0721                     l2399:	
   766                           ;passwordentry.c: 68: }
   767                           ;passwordentry.c: 69: }
   768                           ;passwordentry.c: 70: if(RA1==1)
   769  0721  1C85               	btfss	(41/8),(41)&7
   770  0722  2F24               	goto	u2571
   771  0723  2F25               	goto	u2570
   772  0724                     u2571:
   773  0724  2F52               	goto	l2411
   774  0725                     u2570:
   775  0725  2F27               	goto	l1050
   776                           	line	72
   777                           	
   778  0726                     l2401:	
   779                           ;passwordentry.c: 71: {
   780                           ;passwordentry.c: 72: while(RA1==1);
   781  0726  2F27               	goto	l1050
   782                           	
   783  0727                     l1051:	
   784                           	
   785  0727                     l1050:	
   786  0727  1885               	btfsc	(41/8),(41)&7
   787  0728  2F2A               	goto	u2581
   788  0729  2F2B               	goto	u2580
   789  072A                     u2581:
   790  072A  2F27               	goto	l1050
   791  072B                     u2580:
   792  072B  2F2C               	goto	l2403
   793                           	
   794  072C                     l1052:	
   795                           	line	73
   796                           	
   797  072C                     l2403:	
   798                           ;passwordentry.c: 73: mat[j]=2;
   799  072C  0830               	movf	(main@j),w
   800  072D  00F0               	movwf	(??_main+0)+0
   801  072E  0770               	addwf	(??_main+0)+0,w
   802  072F  3E28               	addlw	main@mat&0ffh
   803  0730  0084               	movwf	fsr0
   804  0731  3002               	movlw	low(02h)
   805  0732  1383               	bcf	status, 7	;select IRP bank0
   806  0733  0080               	movwf	indf
   807  0734  0A84               	incf	fsr0,f
   808  0735  3000               	movlw	high(02h)
   809  0736  0080               	movwf	indf
   810                           	line	74
   811                           	
   812  0737                     l2405:	
   813                           ;passwordentry.c: 74: j++;
   814  0737  3001               	movlw	low(01h)
   815  0738  07B0               	addwf	(main@j),f
   816  0739  1803               	skipnc
   817  073A  0AB1               	incf	(main@j+1),f
   818  073B  3000               	movlw	high(01h)
   819  073C  07B1               	addwf	(main@j+1),f
   820                           	line	75
   821                           	
   822  073D                     l2407:	
   823                           ;passwordentry.c: 75: if(mat[j]==2)
   824  073D  0830               	movf	(main@j),w
   825  073E  00F0               	movwf	(??_main+0)+0
   826  073F  0770               	addwf	(??_main+0)+0,w
   827  0740  3E28               	addlw	main@mat&0ffh
   828  0741  0084               	movwf	fsr0
   829  0742  0800               	movf	indf,w
   830  0743  00F1               	movwf	(??_main+1)+0+0
   831  0744  0A84               	incf	fsr0,f
   832  0745  0800               	movf	indf,w
   833  0746  00F2               	movwf	(??_main+1)+0+1
   834  0747  3002               	movlw	02h
   835  0748  0671               	xorwf	0+(??_main+1)+0,w
   836  0749  0472               	iorwf	1+(??_main+1)+0,w
   837  074A  1D03               	skipz
   838  074B  2F4D               	goto	u2591
   839  074C  2F4E               	goto	u2590
   840  074D                     u2591:
   841  074D  2F52               	goto	l2411
   842  074E                     u2590:
   843                           	line	77
   844                           	
   845  074E                     l2409:	
   846                           ;passwordentry.c: 76: {
   847                           ;passwordentry.c: 77: PORTD=0X5B;
   848  074E  305B               	movlw	(05Bh)
   849  074F  0088               	movwf	(8)	;volatile
   850  0750  2F52               	goto	l2411
   851                           	line	78
   852                           	
   853  0751                     l1053:	
   854  0751  2F52               	goto	l2411
   855                           	line	79
   856                           	
   857  0752                     l1049:	
   858                           	line	80
   859                           	
   860  0752                     l2411:	
   861                           ;passwordentry.c: 78: }
   862                           ;passwordentry.c: 79: }
   863                           ;passwordentry.c: 80: if(RA2==1)
   864  0752  1D05               	btfss	(42/8),(42)&7
   865  0753  2F55               	goto	u2601
   866  0754  2F56               	goto	u2600
   867  0755                     u2601:
   868  0755  2F82               	goto	l1054
   869  0756                     u2600:
   870  0756  2F58               	goto	l1055
   871                           	line	82
   872                           	
   873  0757                     l2413:	
   874                           ;passwordentry.c: 81: {
   875                           ;passwordentry.c: 82: while(RA2==1);
   876  0757  2F58               	goto	l1055
   877                           	
   878  0758                     l1056:	
   879                           	
   880  0758                     l1055:	
   881  0758  1905               	btfsc	(42/8),(42)&7
   882  0759  2F5B               	goto	u2611
   883  075A  2F5C               	goto	u2610
   884  075B                     u2611:
   885  075B  2F58               	goto	l1055
   886  075C                     u2610:
   887  075C  2F5D               	goto	l2415
   888                           	
   889  075D                     l1057:	
   890                           	line	83
   891                           	
   892  075D                     l2415:	
   893                           ;passwordentry.c: 83: mat[j]=3;
   894  075D  0830               	movf	(main@j),w
   895  075E  00F0               	movwf	(??_main+0)+0
   896  075F  0770               	addwf	(??_main+0)+0,w
   897  0760  3E28               	addlw	main@mat&0ffh
   898  0761  0084               	movwf	fsr0
   899  0762  3003               	movlw	low(03h)
   900  0763  1383               	bcf	status, 7	;select IRP bank0
   901  0764  0080               	movwf	indf
   902  0765  0A84               	incf	fsr0,f
   903  0766  3000               	movlw	high(03h)
   904  0767  0080               	movwf	indf
   905                           	line	84
   906                           	
   907  0768                     l2417:	
   908                           ;passwordentry.c: 84: j++;
   909  0768  3001               	movlw	low(01h)
   910  0769  07B0               	addwf	(main@j),f
   911  076A  1803               	skipnc
   912  076B  0AB1               	incf	(main@j+1),f
   913  076C  3000               	movlw	high(01h)
   914  076D  07B1               	addwf	(main@j+1),f
   915                           	line	85
   916                           	
   917  076E                     l2419:	
   918                           ;passwordentry.c: 85: if(mat[j]==3)
   919  076E  0830               	movf	(main@j),w
   920  076F  00F0               	movwf	(??_main+0)+0
   921  0770  0770               	addwf	(??_main+0)+0,w
   922  0771  3E28               	addlw	main@mat&0ffh
   923  0772  0084               	movwf	fsr0
   924  0773  0800               	movf	indf,w
   925  0774  00F1               	movwf	(??_main+1)+0+0
   926  0775  0A84               	incf	fsr0,f
   927  0776  0800               	movf	indf,w
   928  0777  00F2               	movwf	(??_main+1)+0+1
   929  0778  3003               	movlw	03h
   930  0779  0671               	xorwf	0+(??_main+1)+0,w
   931  077A  0472               	iorwf	1+(??_main+1)+0,w
   932  077B  1D03               	skipz
   933  077C  2F7E               	goto	u2621
   934  077D  2F7F               	goto	u2620
   935  077E                     u2621:
   936  077E  2F82               	goto	l1054
   937  077F                     u2620:
   938                           	line	87
   939                           	
   940  077F                     l2421:	
   941                           ;passwordentry.c: 86: {
   942                           ;passwordentry.c: 87: PORTD=0X4F;
   943  077F  304F               	movlw	(04Fh)
   944  0780  0088               	movwf	(8)	;volatile
   945  0781  2F82               	goto	l1054
   946                           	line	88
   947                           	
   948  0782                     l1058:	
   949                           	line	89
   950                           	
   951  0782                     l1054:	
   952                           	line	90
   953                           ;passwordentry.c: 88: }
   954                           ;passwordentry.c: 89: }
   955                           ;passwordentry.c: 90: if(j==3)
   956  0782  3003               	movlw	03h
   957  0783  0630               	xorwf	(main@j),w
   958  0784  0431               	iorwf	(main@j+1),w
   959  0785  1D03               	skipz
   960  0786  2F88               	goto	u2631
   961  0787  2F89               	goto	u2630
   962  0788                     u2631:
   963  0788  2F91               	goto	l2427
   964  0789                     u2630:
   965                           	line	92
   966                           	
   967  0789                     l2423:	
   968                           ;passwordentry.c: 91: {
   969                           ;passwordentry.c: 92: enter=3;
   970  0789  3003               	movlw	low(03h)
   971  078A  00AE               	movwf	(main@enter)
   972  078B  3000               	movlw	high(03h)
   973  078C  00AF               	movwf	((main@enter))+1
   974                           	line	93
   975                           	
   976  078D                     l2425:	
   977                           ;passwordentry.c: 93: j=0;
   978  078D  01B0               	clrf	(main@j)
   979  078E  01B1               	clrf	(main@j+1)
   980  078F  2F91               	goto	l2427
   981                           	line	94
   982                           	
   983  0790                     l1059:	
   984  0790  2F91               	goto	l2427
   985                           	line	95
   986                           	
   987  0791                     l1043:	
   988                           	line	96
   989                           	
   990  0791                     l2427:	
   991                           ;passwordentry.c: 94: }
   992                           ;passwordentry.c: 95: }
   993                           ;passwordentry.c: 96: if(enter==3)
   994  0791  3003               	movlw	03h
   995  0792  062E               	xorwf	(main@enter),w
   996  0793  042F               	iorwf	(main@enter+1),w
   997  0794  1D03               	skipz
   998  0795  2F97               	goto	u2641
   999  0796  2F98               	goto	u2640
  1000  0797                     u2641:
  1001  0797  2FF2               	goto	l1060
  1002  0798                     u2640:
  1003                           	line	98
  1004                           	
  1005  0798                     l2429:	
  1006                           ;passwordentry.c: 97: {
  1007                           ;passwordentry.c: 98: for(i=0;i<3;i++)
  1008  0798  01B2               	clrf	(main@i)
  1009  0799  01B3               	clrf	(main@i+1)
  1010                           	
  1011  079A                     l2431:	
  1012  079A  0833               	movf	(main@i+1),w
  1013  079B  3A80               	xorlw	80h
  1014  079C  00FF               	movwf	btemp+1
  1015  079D  3080               	movlw	(high(03h))^80h
  1016  079E  027F               	subwf	btemp+1,w
  1017  079F  1D03               	skipz
  1018  07A0  2FA3               	goto	u2655
  1019  07A1  3003               	movlw	low(03h)
  1020  07A2  0232               	subwf	(main@i),w
  1021  07A3                     u2655:
  1022                           
  1023  07A3  1C03               	skipc
  1024  07A4  2FA6               	goto	u2651
  1025  07A5  2FA7               	goto	u2650
  1026  07A6                     u2651:
  1027  07A6  2FA9               	goto	l2435
  1028  07A7                     u2650:
  1029  07A7  2FE4               	goto	l2441
  1030                           	
  1031  07A8                     l2433:	
  1032  07A8  2FE4               	goto	l2441
  1033                           	line	99
  1034                           	
  1035  07A9                     l1061:	
  1036                           	line	100
  1037                           	
  1038  07A9                     l2435:	
  1039                           ;passwordentry.c: 99: {
  1040                           ;passwordentry.c: 100: if(mat[i]==arr[i])
  1041  07A9  1283               	bcf	status, 5	;RP0=0, select bank0
  1042  07AA  1303               	bcf	status, 6	;RP1=0, select bank0
  1043  07AB  0832               	movf	(main@i),w
  1044  07AC  00F0               	movwf	(??_main+0)+0
  1045  07AD  0770               	addwf	(??_main+0)+0,w
  1046  07AE  3E22               	addlw	main@arr&0ffh
  1047  07AF  0084               	movwf	fsr0
  1048  07B0  1383               	bcf	status, 7	;select IRP bank0
  1049  07B1  0800               	movf	indf,w
  1050  07B2  00F1               	movwf	(??_main+1)+0+0
  1051  07B3  0A84               	incf	fsr0,f
  1052  07B4  0800               	movf	indf,w
  1053  07B5  00F2               	movwf	(??_main+1)+0+1
  1054  07B6  0832               	movf	(main@i),w
  1055  07B7  00F3               	movwf	(??_main+3)+0
  1056  07B8  0773               	addwf	(??_main+3)+0,w
  1057  07B9  3E28               	addlw	main@mat&0ffh
  1058  07BA  0084               	movwf	fsr0
  1059  07BB  0800               	movf	indf,w
  1060  07BC  00F4               	movwf	(??_main+4)+0+0
  1061  07BD  0A84               	incf	fsr0,f
  1062  07BE  0800               	movf	indf,w
  1063  07BF  00F5               	movwf	(??_main+4)+0+1
  1064  07C0  0872               	movf	1+(??_main+1)+0,w
  1065  07C1  0675               	xorwf	1+(??_main+4)+0,w
  1066  07C2  1D03               	skipz
  1067  07C3  2FC6               	goto	u2665
  1068  07C4  0871               	movf	0+(??_main+1)+0,w
  1069  07C5  0674               	xorwf	0+(??_main+4)+0,w
  1070  07C6                     u2665:
  1071                           
  1072  07C6  1D03               	skipz
  1073  07C7  2FC9               	goto	u2661
  1074  07C8  2FCA               	goto	u2660
  1075  07C9                     u2661:
  1076  07C9  2FD0               	goto	l1063
  1077  07CA                     u2660:
  1078                           	line	102
  1079                           	
  1080  07CA                     l2437:	
  1081                           ;passwordentry.c: 101: {
  1082                           ;passwordentry.c: 102: count++;
  1083  07CA  3001               	movlw	low(01h)
  1084  07CB  07A0               	addwf	(main@count),f
  1085  07CC  1803               	skipnc
  1086  07CD  0AA1               	incf	(main@count+1),f
  1087  07CE  3000               	movlw	high(01h)
  1088  07CF  07A1               	addwf	(main@count+1),f
  1089                           	line	103
  1090                           	
  1091  07D0                     l1063:	
  1092                           	line	98
  1093  07D0  3001               	movlw	low(01h)
  1094  07D1  07B2               	addwf	(main@i),f
  1095  07D2  1803               	skipnc
  1096  07D3  0AB3               	incf	(main@i+1),f
  1097  07D4  3000               	movlw	high(01h)
  1098  07D5  07B3               	addwf	(main@i+1),f
  1099                           	
  1100  07D6                     l2439:	
  1101  07D6  0833               	movf	(main@i+1),w
  1102  07D7  3A80               	xorlw	80h
  1103  07D8  00FF               	movwf	btemp+1
  1104  07D9  3080               	movlw	(high(03h))^80h
  1105  07DA  027F               	subwf	btemp+1,w
  1106  07DB  1D03               	skipz
  1107  07DC  2FDF               	goto	u2675
  1108  07DD  3003               	movlw	low(03h)
  1109  07DE  0232               	subwf	(main@i),w
  1110  07DF                     u2675:
  1111                           
  1112  07DF  1C03               	skipc
  1113  07E0  2FE2               	goto	u2671
  1114  07E1  2FE3               	goto	u2670
  1115  07E2                     u2671:
  1116  07E2  2FA9               	goto	l2435
  1117  07E3                     u2670:
  1118  07E3  2FE4               	goto	l2441
  1119                           	
  1120  07E4                     l1062:	
  1121                           	line	105
  1122                           	
  1123  07E4                     l2441:	
  1124                           ;passwordentry.c: 103: }
  1125                           ;passwordentry.c: 104: }
  1126                           ;passwordentry.c: 105: if(count==3)
  1127  07E4  3003               	movlw	03h
  1128  07E5  1283               	bcf	status, 5	;RP0=0, select bank0
  1129  07E6  1303               	bcf	status, 6	;RP1=0, select bank0
  1130  07E7  0620               	xorwf	(main@count),w
  1131  07E8  0421               	iorwf	(main@count+1),w
  1132  07E9  1D03               	skipz
  1133  07EA  2FEC               	goto	u2681
  1134  07EB  2FED               	goto	u2680
  1135  07EC                     u2681:
  1136  07EC  2FF2               	goto	l1060
  1137  07ED                     u2680:
  1138                           	line	107
  1139                           	
  1140  07ED                     l2443:	
  1141                           ;passwordentry.c: 106: {
  1142                           ;passwordentry.c: 107: enter=4;
  1143  07ED  3004               	movlw	low(04h)
  1144  07EE  00AE               	movwf	(main@enter)
  1145  07EF  3000               	movlw	high(04h)
  1146  07F0  00AF               	movwf	((main@enter))+1
  1147  07F1  2FF2               	goto	l1060
  1148                           	line	108
  1149                           	
  1150  07F2                     l1064:	
  1151                           	line	109
  1152                           	
  1153  07F2                     l1060:	
  1154                           	line	110
  1155                           ;passwordentry.c: 108: }
  1156                           ;passwordentry.c: 109: }
  1157                           ;passwordentry.c: 110: if(enter==4)
  1158  07F2  3004               	movlw	04h
  1159  07F3  062E               	xorwf	(main@enter),w
  1160  07F4  042F               	iorwf	(main@enter+1),w
  1161  07F5  1D03               	skipz
  1162  07F6  2FF8               	goto	u2691
  1163  07F7  2FF9               	goto	u2690
  1164  07F8                     u2691:
  1165  07F8  2E43               	goto	l2347
  1166  07F9                     u2690:
  1167                           	line	112
  1168                           	
  1169  07F9                     l2445:	
  1170                           ;passwordentry.c: 111: {
  1171                           ;passwordentry.c: 112: RB0=1;
  1172  07F9  1406               	bsf	(48/8),(48)&7
  1173  07FA  2E43               	goto	l2347
  1174                           	line	113
  1175                           	
  1176  07FB                     l1065:	
  1177  07FB  2E43               	goto	l2347
  1178                           	line	114
  1179                           	
  1180  07FC                     l1066:	
  1181                           	line	17
  1182  07FC  2E43               	goto	l2347
  1183                           	
  1184  07FD                     l1067:	
  1185                           	line	115
  1186                           	
  1187  07FD                     l1068:	
  1188                           	global	start
  1189  07FD  120A  118A  2800   	ljmp	start
  1190                           	opt stack 0
  1191                           GLOBAL	__end_of_main
  1192  0800                     	__end_of_main:
  1193 ;; =============== function _main ends ============
  1194                           
  1195                           	signat	_main,88
  1196                           psect	maintext
  1197                           	global	btemp
  1198  007E                     	btemp set 07Eh
  1199                           
  1200                           	DABS	1,126,2	;btemp
  1201                           	global	wtemp0
  1202  007E                     	wtemp0 set btemp


HI-TECH Software PICC Macro Assembler V9.81 build 7503 
Symbol Table                                                                                   Tue May 04 13:11:06 2021

                 _RA0 0028                   _RA1 0029                   _RB0 0030                   _RA2 002A  
                 fsr0 0004                   indf 0000                  l1030 0674                  l1031 0679  
                l1040 06B5                  l1032 06AA                  l1041 06DA                  l1033 067F  
                l1025 0643                  l1050 0727                  l1026 06E9                  l1042 06E8  
                l1034 067F                  l1043 0791                  l1051 0727                  l1035 0684  
                l1027 0679                  l1060 07F2                  l1052 072C                  l1044 0721  
                l1036 06A9                  l1028 0673                  l1061 07A9                  l1053 0751  
                l1045 06F6                  l1037 06DA                  l1029 0674                  l1062 07E4  
                l1054 0782                  l1046 06F6                  l1038 06B0                  l1063 07D0  
                l1055 0758                  l1047 06FB                  l1039 06B0                  l1064 07F2  
                l1056 0758                  l1048 0720                  l1065 07FB                  l1057 075D  
                l1049 0752                  l1066 07FC                  l1058 0782                  l1067 07FD  
                l1059 0790                  l1068 07FD                  l2401 0726                  l2403 072C  
                l2411 0752                  l2331 0629                  l2421 077F                  l2413 0757  
                l2405 0737                  l2341 0636                  l2333 062C                  l2325 061F  
                l2431 079A                  l2423 0789                  l2415 075D                  l2407 073D  
                l2351 064E                  l2343 063A                  l2335 062F                  l2327 0622  
                l2433 07A8                  l2441 07E4                  l2425 078D                  l2417 0768  
                l2409 074E                  l2361 0684                  l2353 0659                  l2345 063C  
                l2337 0632                  l2329 0626                  l2443 07ED                  l2435 07A9  
                l2419 076E                  l2427 0791                  l2371 06AF                  l2363 068F  
                l2355 065F                  l2347 0643                  l2339 0635                  l2445 07F9  
                l2437 07CA                  l2429 0798                  l2381 06E1                  l2373 06B5  
                l2365 0695                  l2357 0670                  l2349 064A                  l2439 07D6  
                l2391 06FB                  l2383 06E5                  l2375 06C0                  l2367 06A6  
                l2359 067E                  l2393 0706                  l2377 06C6                  l2369 06AA  
                l2385 06E9                  l2395 070C                  l2387 06F0                  l2379 06D7  
                l2397 071D                  l2389 06F5                  l2399 0721                  u2500 06B4  
                u2420 064A                  u2501 06B3                  u2421 0649                  u2510 06D7  
                u2430 064E                  u2511 06D6                  u2431 064D                  u2600 0756  
                u2520 06E1                  u2440 0670                  u2601 0755                  u2521 06E0  
                u2441 066F                  u2610 075C                  u2530 06F0                  u2450 0678  
                u2611 075B                  u2531 06EF                  u2451 0677                  u2620 077F  
                u2540 06F4                  u2460 067D                  u2621 077E                  u2541 06F3  
                u2461 067C                  u2630 0789                  u2550 06FA                  u2470 0683  
                u2631 0788                  u2551 06F9                  u2471 0682                  u2640 0798  
                u2560 071D                  u2480 06A6                  u2641 0797                  u2561 071C  
                u2481 06A5                  u2650 07A7                  u2570 0725                  u2490 06AE  
                u2651 07A6                  u2571 0724                  u2491 06AD                  u2660 07CA  
                u2580 072B                  u2661 07C9                  u2581 072A                  u2670 07E3  
                u2590 074E                  u2671 07E2                  u2655 07A3                  u2591 074D  
                u2680 07ED                  u2681 07EC                  u2665 07C6                  u2690 07F9  
                u2691 07F8                  u2675 07DF                  _main 061F                  btemp 007E  
                start 0000                 ?_main 0070                 _ANSEL 0188                 _PORTA 0005  
               _PORTB 0006                 _PORTD 0008                 _TRISA 0085                 _TRISB 0086  
               _TRISD 0088                 main@i 0032                 main@j 0030                 status 0003  
               wtemp0 007E          __end_of_main 0800                ??_main 0070                _ANSELH 0189  
      __pcstackCOMMON 0070            __pmaintext 061F               main@arr 0022               main@mat 0028  
end_of_initialization 061B   start_initialization 061B         __pcstackBANK0 0020             main@enter 002E  
           main@count 0020         __size_of_main 01E1  
