

HI-TECH Software PIC LITE Macro Assembler V9.81 build 7503 
                                                                                               Thu May 27 20:00:57 2021

HI-TECH Software Omniscient Code Generator (Lite mode) build 7503
     1  0000                     opt subtitle "HI-TECH Software Omniscient Code Generator (Lite mode) build 7503"
     2                           
     3                           opt pagewidth 120
     4                           
     5                           	opt lm
     6                           
     7                           	processor	16F887
     8                           clrc	macro
     9                           	bcf	3,0
    10  0000                     	endm
    11                           clrz	macro
    12                           	bcf	3,2
    13  0000                     	endm
    14                           setc	macro
    15                           	bsf	3,0
    16  0000                     	endm
    17                           setz	macro
    18                           	bsf	3,2
    19  0000                     	endm
    20                           skipc	macro
    21                           	btfss	3,0
    22  0000                     	endm
    23                           skipz	macro
    24                           	btfss	3,2
    25  0000                     	endm
    26                           skipnc	macro
    27                           	btfsc	3,0
    28  0000                     	endm
    29                           skipnz	macro
    30                           	btfsc	3,2
    31  0000                     	endm
    32  0000                     indf	equ	0
    33  0000                     indf0	equ	0
    34  0002                     pc	equ	2
    35  0002                     pcl	equ	2
    36  0003                     status	equ	3
    37  0004                     fsr	equ	4
    38  0004                     fsr0	equ	4
    39  0001                     c	equ	1
    40  0000                     z	equ	0
    41  000A                     pclath	equ	10
    42                           	FNCALL	_main,_on
    43                           	FNCALL	_main,_type
    44                           	FNCALL	_main,_address
    45                           	FNCALL	_main,_display
    46                           	FNCALL	_display,_pulse
    47                           	FNCALL	_address,_pulse
    48                           	FNCALL	_type,_pulse
    49                           	FNCALL	_on,_pulse
    50                           	FNCALL	_pulse,_delay
    51                           	FNROOT	_main
    52                           	global	main@F1610
    53                           	global	main@F1612
    54                           	global	main@F1614
    55                           psect	idataBANK0,class=CODE,space=0,delta=2
    56                           global __pidataBANK0
    57  0448                     __pidataBANK0:
    58                           	file	"E:\KTU\Softwares\MP lab\Mobileinterface\mobileinterface.c"
    59                           	line	57
    60                           
    61                           ;initializer for main@F1610
    62  0448  3452               	retlw	052h
    63  0449  3469               	retlw	069h
    64  044A  346E               	retlw	06Eh
    65  044B  3467               	retlw	067h
    66  044C  3469               	retlw	069h
    67  044D  346E               	retlw	06Eh
    68  044E  3467               	retlw	067h
    69  044F  3400               	retlw	0
    70  0450  3400               	retlw	0
    71  0451  3400               	retlw	0
    72                           psect	idataBANK1,class=CODE,space=0,delta=2
    73                           global __pidataBANK1
    74  04C2                     __pidataBANK1:
    75                           	line	58
    76                           
    77                           ;initializer for main@F1612
    78  04C2  3457               	retlw	057h
    79  04C3  3472               	retlw	072h
    80  04C4  346F               	retlw	06Fh
    81  04C5  346E               	retlw	06Eh
    82  04C6  3467               	retlw	067h
    83  04C7  3420               	retlw	020h
    84  04C8  346E               	retlw	06Eh
    85  04C9  3475               	retlw	075h
    86  04CA  346D               	retlw	06Dh
    87  04CB  3462               	retlw	062h
    88  04CC  3465               	retlw	065h
    89  04CD  3472               	retlw	072h
    90  04CE  3400               	retlw	0
    91  04CF  3400               	retlw	0
    92  04D0  3400               	retlw	0
    93                           	line	59
    94                           
    95                           ;initializer for main@F1614
    96  04D1  3448               	retlw	048h
    97  04D2  3461               	retlw	061h
    98  04D3  346E               	retlw	06Eh
    99  04D4  3467               	retlw	067h
   100  04D5  3420               	retlw	020h
   101  04D6  3475               	retlw	075h
   102  04D7  3470               	retlw	070h
   103  04D8  3400               	retlw	0
   104  04D9  3400               	retlw	0
   105  04DA  3400               	retlw	0
   106  04DB  3400               	retlw	0
   107  04DC  3400               	retlw	0
   108  04DD  3400               	retlw	0
   109  04DE  3400               	retlw	0
   110  04DF  3400               	retlw	0
   111                           	global	_PORTA
   112  0005                     _PORTA	set	5
   113                           	global	_PORTB
   114  0006                     _PORTB	set	6
   115                           	global	_PORTC
   116  0007                     _PORTC	set	7
   117                           	global	_PORTD
   118  0008                     _PORTD	set	8
   119                           	global	_RA0
   120  0028                     _RA0	set	40
   121                           	global	_RA1
   122  0029                     _RA1	set	41
   123                           	global	_RA2
   124  002A                     _RA2	set	42
   125                           	global	_RB0
   126  0030                     _RB0	set	48
   127                           	global	_RB1
   128  0031                     _RB1	set	49
   129                           	global	_RB2
   130  0032                     _RB2	set	50
   131                           	global	_RB3
   132  0033                     _RB3	set	51
   133                           	global	_RD0
   134  0040                     _RD0	set	64
   135                           	global	_RD1
   136  0041                     _RD1	set	65
   137                           	global	_RD2
   138  0042                     _RD2	set	66
   139                           	global	_TRISA
   140  0085                     _TRISA	set	133
   141                           	global	_TRISB
   142  0086                     _TRISB	set	134
   143                           	global	_TRISC
   144  0087                     _TRISC	set	135
   145                           	global	_TRISD
   146  0088                     _TRISD	set	136
   147                           	global	_ANSEL
   148  0188                     _ANSEL	set	392
   149                           	global	_ANSELH
   150  0189                     _ANSELH	set	393
   151                           	file	"mobileinterface.as"
   152                           	line	#
   153                           psect cinit,class=CODE,delta=2
   154                           global start_initialization
   155  04E0                     start_initialization:
   156                           
   157                           psect	dataBANK0,class=BANK0,space=1
   158                           global __pdataBANK0
   159  0058                     __pdataBANK0:
   160                           	file	"E:\KTU\Softwares\MP lab\Mobileinterface\mobileinterface.c"
   161                           	line	57
   162  0058                     main@F1610:
   163  0058                            ds      10
   164                           
   165                           psect	dataBANK1,class=BANK1,space=1
   166                           global __pdataBANK1
   167  00A0                     __pdataBANK1:
   168                           	file	"E:\KTU\Softwares\MP lab\Mobileinterface\mobileinterface.c"
   169                           	line	58
   170  00A0                     main@F1612:
   171  00A0                            ds      15
   172                           
   173                           psect	dataBANK1
   174                           	file	"E:\KTU\Softwares\MP lab\Mobileinterface\mobileinterface.c"
   175                           	line	59
   176  00AF                     main@F1614:
   177  00AF                            ds      15
   178                           
   179                           global btemp
   180                           psect inittext,class=CODE,delta=2
   181                           global init_fetch,btemp
   182                           ;	Called with low address in FSR and high address in W
   183  0484                     init_fetch:
   184  0484  087E               	movf btemp,w
   185  0485  008A               	movwf pclath
   186  0486  087F               	movf btemp+1,w
   187  0487  0082               	movwf pc
   188                           global init_ram
   189                           ;Called with:
   190                           ;	high address of idata address in btemp 
   191                           ;	low address of idata address in btemp+1 
   192                           ;	low address of data in FSR
   193                           ;	high address + 1 of data in btemp-1
   194  0488                     init_ram:
   195  0488  2484  120A  118A   	fcall init_fetch
   196  048B  0080               	movwf indf,f
   197  048C  0A84               	incf fsr,f
   198  048D  0804               	movf fsr,w
   199  048E  067D               	xorwf btemp-1,w
   200  048F  1903               	btfsc status,2
   201  0490  3400               	retlw 0
   202  0491  0AFF               	incf btemp+1,f
   203  0492  1903               	btfsc status,2
   204  0493  0AFE               	incf btemp,f
   205  0494  2C88               	goto init_ram
   206                           ; Initialize objects allocated to BANK1
   207                           psect cinit,class=CODE,delta=2
   208                           global init_ram, __pidataBANK1
   209  04E0  1383               	bcf	status, 7	;select IRP bank0
   210  04E1  30BE               	movlw low(__pdataBANK1+30)
   211  04E2  00FD               	movwf btemp-1,f
   212  04E3  3004               	movlw high(__pidataBANK1)
   213  04E4  00FE               	movwf btemp,f
   214  04E5  30C2               	movlw low(__pidataBANK1)
   215  04E6  00FF               	movwf btemp+1,f
   216  04E7  30A0               	movlw low(__pdataBANK1)
   217  04E8  0084               	movwf fsr,f
   218  04E9  120A  118A  2488   	fcall init_ram
              120A  118A         
   219                           ; Initialize objects allocated to BANK0
   220                           psect cinit,class=CODE,delta=2
   221                           global init_ram, __pidataBANK0
   222  04EE  3062               	movlw low(__pdataBANK0+10)
   223  04EF  00FD               	movwf btemp-1,f
   224  04F0  3004               	movlw high(__pidataBANK0)
   225  04F1  00FE               	movwf btemp,f
   226  04F2  3048               	movlw low(__pidataBANK0)
   227  04F3  00FF               	movwf btemp+1,f
   228  04F4  3058               	movlw low(__pdataBANK0)
   229  04F5  0084               	movwf fsr,f
   230  04F6  120A  118A  2488   	fcall init_ram
              120A  118A         
   231                           psect cinit,class=CODE,delta=2
   232                           global end_of_initialization
   233                           
   234                           ;End of C runtime variable initialization code
   235                           
   236  04FB                     end_of_initialization:
   237  04FB  0183               clrf status
   238  04FC  120A  118A  2CFF   ljmp _main	;jump to C main() function
   239                           psect	cstackCOMMON,class=COMMON,space=1
   240                           global __pcstackCOMMON
   241  0070                     __pcstackCOMMON:
   242                           	global	?_delay
   243  0070                     ?_delay:	; 0 bytes @ 0x0
   244                           	global	?_pulse
   245  0070                     ?_pulse:	; 0 bytes @ 0x0
   246                           	global	?_on
   247  0070                     ?_on:	; 0 bytes @ 0x0
   248                           	global	?_type
   249  0070                     ?_type:	; 0 bytes @ 0x0
   250                           	global	?_address
   251  0070                     ?_address:	; 0 bytes @ 0x0
   252                           	global	?_display
   253  0070                     ?_display:	; 0 bytes @ 0x0
   254                           	global	?_main
   255  0070                     ?_main:	; 0 bytes @ 0x0
   256                           	global	delay@del
   257  0070                     delay@del:	; 2 bytes @ 0x0
   258  0070                     	ds	2
   259                           	global	??_delay
   260  0072                     ??_delay:	; 0 bytes @ 0x2
   261                           	global	??_pulse
   262  0072                     ??_pulse:	; 0 bytes @ 0x2
   263                           	global	??_on
   264  0072                     ??_on:	; 0 bytes @ 0x2
   265                           	global	??_type
   266  0072                     ??_type:	; 0 bytes @ 0x2
   267                           	global	??_address
   268  0072                     ??_address:	; 0 bytes @ 0x2
   269                           	global	??_display
   270  0072                     ??_display:	; 0 bytes @ 0x2
   271                           	global	address@data
   272  0072                     address@data:	; 1 bytes @ 0x2
   273                           	global	display@data
   274  0072                     display@data:	; 1 bytes @ 0x2
   275  0072                     	ds	1
   276                           	global	??_main
   277  0073                     ??_main:	; 0 bytes @ 0x3
   278  0073                     	ds	4
   279                           psect	cstackBANK0,class=BANK0,space=1
   280                           global __pcstackBANK0
   281  0020                     __pcstackBANK0:
   282                           	global	main@wrong
   283  0020                     main@wrong:	; 15 bytes @ 0x0
   284  0020                     	ds	15
   285                           	global	main@hang
   286  002F                     main@hang:	; 15 bytes @ 0xF
   287  002F                     	ds	15
   288                           	global	main@ring
   289  003E                     main@ring:	; 10 bytes @ 0x1E
   290  003E                     	ds	10
   291                           	global	main@control
   292  0048                     main@control:	; 2 bytes @ 0x28
   293  0048                     	ds	2
   294                           	global	main@number
   295  004A                     main@number:	; 10 bytes @ 0x2A
   296  004A                     	ds	10
   297                           	global	main@i
   298  0054                     main@i:	; 2 bytes @ 0x34
   299  0054                     	ds	2
   300                           	global	main@j
   301  0056                     main@j:	; 2 bytes @ 0x36
   302  0056                     	ds	2
   303 ;;Data sizes: Strings 0, constant 0, data 40, bss 0, persistent 0 stack 0
   304 ;;Auto spaces:   Size  Autos    Used
   305 ;; COMMON          14      7       7
   306 ;; BANK0           80     56      66
   307 ;; BANK1           80      0      30
   308 ;; BANK3           96      0       0
   309 ;; BANK2           96      0       0
   310                           
   311 ;;
   312 ;; Pointer list with targets:
   313                           
   314                           
   315                           
   316 ;;
   317 ;; Critical Paths under _main in COMMON
   318 ;;
   319 ;;   _main->_address
   320 ;;   _main->_display
   321 ;;   _pulse->_delay
   322 ;;
   323 ;; Critical Paths under _main in BANK0
   324 ;;
   325 ;;   None.
   326 ;;
   327 ;; Critical Paths under _main in BANK1
   328 ;;
   329 ;;   None.
   330 ;;
   331 ;; Critical Paths under _main in BANK3
   332 ;;
   333 ;;   None.
   334 ;;
   335 ;; Critical Paths under _main in BANK2
   336 ;;
   337 ;;   None.
   338                           
   339 ;;
   340 ;;Main: autosize = 0, tempsize = 4, incstack = 0, save=0
   341 ;;
   342                           
   343 ;;
   344 ;;Call Graph Tables:
   345 ;;
   346 ;; ---------------------------------------------------------------------------------
   347 ;; (Depth) Function   	        Calls       Base Space   Used Autos Params    Refs
   348 ;; ---------------------------------------------------------------------------------
   349 ;; (0) _main                                                60    60      0    1664
   350 ;;                                              3 COMMON     4     4      0
   351 ;;                                              0 BANK0     56    56      0
   352 ;;                                 _on
   353 ;;                               _type
   354 ;;                            _address
   355 ;;                            _display
   356 ;; ---------------------------------------------------------------------------------
   357 ;; (1) _display                                              1     1      0      44
   358 ;;                                              2 COMMON     1     1      0
   359 ;;                              _pulse
   360 ;; ---------------------------------------------------------------------------------
   361 ;; (1) _address                                              1     1      0      44
   362 ;;                                              2 COMMON     1     1      0
   363 ;;                              _pulse
   364 ;; ---------------------------------------------------------------------------------
   365 ;; (1) _type                                                 0     0      0      22
   366 ;;                              _pulse
   367 ;; ---------------------------------------------------------------------------------
   368 ;; (1) _on                                                   0     0      0      22
   369 ;;                              _pulse
   370 ;; ---------------------------------------------------------------------------------
   371 ;; (2) _pulse                                                0     0      0      22
   372 ;;                              _delay
   373 ;; ---------------------------------------------------------------------------------
   374 ;; (3) _delay                                                2     0      2      22
   375 ;;                                              0 COMMON     2     0      2
   376 ;; ---------------------------------------------------------------------------------
   377 ;; Estimated maximum stack depth 3
   378 ;; ---------------------------------------------------------------------------------
   379                           
   380 ;; Call Graph Graphs:
   381                           
   382 ;; _main (ROOT)
   383 ;;   _on
   384 ;;     _pulse
   385 ;;       _delay
   386 ;;   _type
   387 ;;     _pulse
   388 ;;       _delay
   389 ;;   _address
   390 ;;     _pulse
   391 ;;       _delay
   392 ;;   _display
   393 ;;     _pulse
   394 ;;       _delay
   395 ;;
   396                           
   397 ;; Address spaces:
   398                           
   399 ;;Name               Size   Autos  Total    Cost      Usage
   400 ;;BANK3               60      0       0       9        0.0%
   401 ;;BITBANK3            60      0       0       8        0.0%
   402 ;;SFR3                 0      0       0       4        0.0%
   403 ;;BITSFR3              0      0       0       4        0.0%
   404 ;;BANK2               60      0       0      11        0.0%
   405 ;;BITBANK2            60      0       0      10        0.0%
   406 ;;SFR2                 0      0       0       5        0.0%
   407 ;;BITSFR2              0      0       0       5        0.0%
   408 ;;SFR1                 0      0       0       2        0.0%
   409 ;;BITSFR1              0      0       0       2        0.0%
   410 ;;BANK1               50      0      1E       7       37.5%
   411 ;;BITBANK1            50      0       0       6        0.0%
   412 ;;CODE                 0      0       0       0        0.0%
   413 ;;DATA                 0      0      6A      12        0.0%
   414 ;;ABS                  0      0      67       3        0.0%
   415 ;;NULL                 0      0       0       0        0.0%
   416 ;;STACK                0      0       3       2        0.0%
   417 ;;BANK0               50     38      42       5       82.5%
   418 ;;BITBANK0            50      0       0       4        0.0%
   419 ;;SFR0                 0      0       0       1        0.0%
   420 ;;BITSFR0              0      0       0       1        0.0%
   421 ;;COMMON               E      7       7       1       50.0%
   422 ;;BITCOMMON            E      0       0       0        0.0%
   423 ;;EEDATA             100      0       0       0        0.0%
   424                           
   425                           	global	_main
   426                           psect	maintext,global,class=CODE,delta=2
   427                           global __pmaintext
   428  04FF                     __pmaintext:
   429                           
   430 ;; *************** function _main *****************
   431 ;; Defined at:
   432 ;;		line 45 in file "E:\KTU\Softwares\MP lab\Mobileinterface\mobileinterface.c"
   433 ;; Parameters:    Size  Location     Type
   434 ;;		None
   435 ;; Auto vars:     Size  Location     Type
   436 ;;  hang           15   15[BANK0 ] unsigned char [15]
   437 ;;  wrong          15    0[BANK0 ] unsigned char [15]
   438 ;;  number         10   42[BANK0 ] unsigned char [10]
   439 ;;  ring           10   30[BANK0 ] unsigned char [10]
   440 ;;  j               2   54[BANK0 ] int 
   441 ;;  i               2   52[BANK0 ] int 
   442 ;;  control         2   40[BANK0 ] int 
   443 ;; Return value:  Size  Location     Type
   444 ;;		None               void
   445 ;; Registers used:
   446 ;;		wreg, fsr0l, fsr0h, status,2, status,0, pclath, cstack
   447 ;; Tracked objects:
   448 ;;		On entry : 17F/0
   449 ;;		On exit  : 0/0
   450 ;;		Unchanged: 0/0
   451 ;; Data sizes:     COMMON   BANK0   BANK1   BANK3   BANK2
   452 ;;      Params:         0       0       0       0       0
   453 ;;      Locals:         0      56       0       0       0
   454 ;;      Temps:          4       0       0       0       0
   455 ;;      Totals:         4      56       0       0       0
   456 ;;Total ram usage:       60 bytes
   457 ;; Hardware stack levels required when called:    3
   458 ;; This function calls:
   459 ;;		_on
   460 ;;		_type
   461 ;;		_address
   462 ;;		_display
   463 ;; This function is called by:
   464 ;;		Startup code after reset
   465 ;; This function uses a non-reentrant model
   466 ;;
   467                           psect	maintext
   468                           	file	"E:\KTU\Softwares\MP lab\Mobileinterface\mobileinterface.c"
   469                           	line	45
   470                           	global	__size_of_main
   471  0301                     	__size_of_main	equ	__end_of_main-_main
   472                           	
   473  04FF                     _main:	
   474                           	opt	stack 5
   475                           ; Regs used in _main: [wreg-fsr0h+status,2+status,0+pclath+cstack]
   476                           	line	46
   477                           	
   478  04FF                     l2538:	
   479                           ;mobileinterface.c: 46: PORTA=0X00;
   480  04FF  1283               	bcf	status, 5	;RP0=0, select bank0
   481  0500  1303               	bcf	status, 6	;RP1=0, select bank0
   482  0501  0185               	clrf	(5)	;volatile
   483                           	line	47
   484                           	
   485  0502                     l2540:	
   486                           ;mobileinterface.c: 47: TRISA=0X07;
   487  0502  3007               	movlw	(07h)
   488  0503  1683               	bsf	status, 5	;RP0=1, select bank1
   489  0504  1303               	bcf	status, 6	;RP1=0, select bank1
   490  0505  0085               	movwf	(133)^080h	;volatile
   491                           	line	48
   492                           	
   493  0506                     l2542:	
   494                           ;mobileinterface.c: 48: PORTB=0X00;
   495  0506  1283               	bcf	status, 5	;RP0=0, select bank0
   496  0507  1303               	bcf	status, 6	;RP1=0, select bank0
   497  0508  0186               	clrf	(6)	;volatile
   498                           	line	49
   499                           	
   500  0509                     l2544:	
   501                           ;mobileinterface.c: 49: TRISB=0X00;
   502  0509  1683               	bsf	status, 5	;RP0=1, select bank1
   503  050A  1303               	bcf	status, 6	;RP1=0, select bank1
   504  050B  0186               	clrf	(134)^080h	;volatile
   505                           	line	50
   506                           	
   507  050C                     l2546:	
   508                           ;mobileinterface.c: 50: PORTC=0X00;
   509  050C  1283               	bcf	status, 5	;RP0=0, select bank0
   510  050D  1303               	bcf	status, 6	;RP1=0, select bank0
   511  050E  0187               	clrf	(7)	;volatile
   512                           	line	51
   513                           	
   514  050F                     l2548:	
   515                           ;mobileinterface.c: 51: TRISC=0X00;
   516  050F  1683               	bsf	status, 5	;RP0=1, select bank1
   517  0510  1303               	bcf	status, 6	;RP1=0, select bank1
   518  0511  0187               	clrf	(135)^080h	;volatile
   519                           	line	52
   520                           	
   521  0512                     l2550:	
   522                           ;mobileinterface.c: 52: PORTD=0X00;
   523  0512  1283               	bcf	status, 5	;RP0=0, select bank0
   524  0513  1303               	bcf	status, 6	;RP1=0, select bank0
   525  0514  0188               	clrf	(8)	;volatile
   526                           	line	53
   527                           	
   528  0515                     l2552:	
   529                           ;mobileinterface.c: 53: TRISD=0X00;
   530  0515  1683               	bsf	status, 5	;RP0=1, select bank1
   531  0516  1303               	bcf	status, 6	;RP1=0, select bank1
   532  0517  0188               	clrf	(136)^080h	;volatile
   533                           	line	54
   534                           	
   535  0518                     l2554:	
   536                           ;mobileinterface.c: 54: ANSEL=0X00;
   537  0518  1683               	bsf	status, 5	;RP0=1, select bank3
   538  0519  1703               	bsf	status, 6	;RP1=1, select bank3
   539  051A  0188               	clrf	(392)^0180h	;volatile
   540                           	line	55
   541                           	
   542  051B                     l2556:	
   543                           ;mobileinterface.c: 55: ANSELH=0X00;
   544  051B  0189               	clrf	(393)^0180h	;volatile
   545                           	line	57
   546                           	
   547  051C                     l2558:	
   548                           ;mobileinterface.c: 56: char number[10];
   549                           ;mobileinterface.c: 57: char ring[10]="Ringing";
   550  051C  303E               	movlw	(main@ring)&0ffh
   551  051D  0084               	movwf	fsr0
   552  051E  3058               	movlw	low(main@F1610)
   553  051F  00F3               	movwf	(??_main+0)+0
   554  0520  0804               	movf	fsr0,w
   555  0521  00F4               	movwf	((??_main+0)+0+1)
   556  0522  300A               	movlw	10
   557  0523  00F5               	movwf	((??_main+0)+0+2)
   558  0524                     u2480:
   559  0524  0873               	movf	(??_main+0)+0,w
   560  0525  0084               	movwf	fsr0
   561  0526  1383               	bcf	status, 7	;select IRP bank0
   562                           	
   563  0527  0800               	movf	indf,w
   564  0528  00F6               	movwf	((??_main+0)+0+3)
   565  0529  0AF3               	incf	(??_main+0)+0,f
   566  052A  0874               	movf	((??_main+0)+0+1),w
   567  052B  0084               	movwf	fsr0
   568                           	
   569  052C  0876               	movf	((??_main+0)+0+3),w
   570  052D  0080               	movwf	indf
   571  052E  0AF4               	incf	((??_main+0)+0+1),f
   572  052F  0BF5               	decfsz	((??_main+0)+0+2),f
   573  0530  2D24               	goto	u2480
   574                           	line	58
   575                           	
   576  0531                     l2560:	
   577                           ;mobileinterface.c: 58: char wrong[15]="Wrong number";
   578  0531  3020               	movlw	(main@wrong)&0ffh
   579  0532  0084               	movwf	fsr0
   580  0533  30A0               	movlw	low(main@F1612)
   581  0534  00F3               	movwf	(??_main+0)+0
   582  0535  0804               	movf	fsr0,w
   583  0536  00F4               	movwf	((??_main+0)+0+1)
   584  0537  300F               	movlw	15
   585  0538  00F5               	movwf	((??_main+0)+0+2)
   586  0539                     u2490:
   587  0539  0873               	movf	(??_main+0)+0,w
   588  053A  0084               	movwf	fsr0
   589  053B  1383               	bcf	status, 7	;select IRP bank1
   590                           	
   591  053C  0800               	movf	indf,w
   592  053D  00F6               	movwf	((??_main+0)+0+3)
   593  053E  0AF3               	incf	(??_main+0)+0,f
   594  053F  0874               	movf	((??_main+0)+0+1),w
   595  0540  0084               	movwf	fsr0
   596                           	
   597  0541  0876               	movf	((??_main+0)+0+3),w
   598  0542  0080               	movwf	indf
   599  0543  0AF4               	incf	((??_main+0)+0+1),f
   600  0544  0BF5               	decfsz	((??_main+0)+0+2),f
   601  0545  2D39               	goto	u2490
   602                           	line	59
   603                           	
   604  0546                     l2562:	
   605                           ;mobileinterface.c: 59: char hang[15]="Hang up";
   606  0546  302F               	movlw	(main@hang)&0ffh
   607  0547  0084               	movwf	fsr0
   608  0548  30AF               	movlw	low(main@F1614)
   609  0549  00F3               	movwf	(??_main+0)+0
   610  054A  0804               	movf	fsr0,w
   611  054B  00F4               	movwf	((??_main+0)+0+1)
   612  054C  300F               	movlw	15
   613  054D  00F5               	movwf	((??_main+0)+0+2)
   614  054E                     u2500:
   615  054E  0873               	movf	(??_main+0)+0,w
   616  054F  0084               	movwf	fsr0
   617  0550  1383               	bcf	status, 7	;select IRP bank1
   618                           	
   619  0551  0800               	movf	indf,w
   620  0552  00F6               	movwf	((??_main+0)+0+3)
   621  0553  0AF3               	incf	(??_main+0)+0,f
   622  0554  0874               	movf	((??_main+0)+0+1),w
   623  0555  0084               	movwf	fsr0
   624                           	
   625  0556  0876               	movf	((??_main+0)+0+3),w
   626  0557  0080               	movwf	indf
   627  0558  0AF4               	incf	((??_main+0)+0+1),f
   628  0559  0BF5               	decfsz	((??_main+0)+0+2),f
   629  055A  2D4E               	goto	u2500
   630                           	line	60
   631                           	
   632  055B                     l2564:	
   633                           ;mobileinterface.c: 60: int i=0;
   634  055B  1283               	bcf	status, 5	;RP0=0, select bank0
   635  055C  1303               	bcf	status, 6	;RP1=0, select bank0
   636  055D  01D4               	clrf	(main@i)
   637  055E  01D5               	clrf	(main@i+1)
   638                           	line	61
   639                           	
   640  055F                     l2566:	
   641                           ;mobileinterface.c: 61: int j=0;
   642  055F  01D6               	clrf	(main@j)
   643  0560  01D7               	clrf	(main@j+1)
   644                           	line	62
   645                           	
   646  0561                     l2568:	
   647                           ;mobileinterface.c: 62: int control=1;
   648  0561  3001               	movlw	low(01h)
   649  0562  00C8               	movwf	(main@control)
   650  0563  3000               	movlw	high(01h)
   651  0564  00C9               	movwf	((main@control))+1
   652                           	line	63
   653                           	
   654  0565                     l2570:	
   655                           ;mobileinterface.c: 63: on();
   656  0565  120A  118A  2452   	fcall	_on
              120A  118A         
   657                           	line	64
   658                           	
   659  056A                     l2572:	
   660                           ;mobileinterface.c: 64: type();
   661  056A  120A  118A  245E   	fcall	_type
              120A  118A         
   662  056F  2D70               	goto	l2574
   663                           	line	65
   664                           ;mobileinterface.c: 65: while(1)
   665                           	
   666  0570                     l1052:	
   667                           	line	67
   668                           	
   669  0570                     l2574:	
   670                           ;mobileinterface.c: 66: {
   671                           ;mobileinterface.c: 67: if(control==1)
   672  0570  3001               	movlw	01h
   673  0571  1283               	bcf	status, 5	;RP0=0, select bank0
   674  0572  1303               	bcf	status, 6	;RP1=0, select bank0
   675  0573  0648               	xorwf	(main@control),w
   676  0574  0449               	iorwf	(main@control+1),w
   677  0575  1D03               	skipz
   678  0576  2D78               	goto	u2511
   679  0577  2D79               	goto	u2510
   680  0578                     u2511:
   681  0578  2D70               	goto	l2574
   682  0579                     u2510:
   683                           	line	69
   684                           	
   685  0579                     l2576:	
   686                           ;mobileinterface.c: 68: {
   687                           ;mobileinterface.c: 69: RB0=1;RB1=0;RB2=0;RB3=0;
   688  0579  1406               	bsf	(48/8),(48)&7
   689  057A  1086               	bcf	(49/8),(49)&7
   690  057B  1106               	bcf	(50/8),(50)&7
   691  057C  1186               	bcf	(51/8),(51)&7
   692                           	line	70
   693                           ;mobileinterface.c: 70: if(RA0==1)
   694  057D  1C05               	btfss	(40/8),(40)&7
   695  057E  2D80               	goto	u2521
   696  057F  2D81               	goto	u2520
   697  0580                     u2521:
   698  0580  2DAC               	goto	l2588
   699  0581                     u2520:
   700  0581  2D83               	goto	l1055
   701                           	line	72
   702                           	
   703  0582                     l2578:	
   704                           ;mobileinterface.c: 71: {
   705                           ;mobileinterface.c: 72: while(RA0==1);
   706  0582  2D83               	goto	l1055
   707                           	
   708  0583                     l1056:	
   709                           	
   710  0583                     l1055:	
   711  0583  1805               	btfsc	(40/8),(40)&7
   712  0584  2D86               	goto	u2531
   713  0585  2D87               	goto	u2530
   714  0586                     u2531:
   715  0586  2D83               	goto	l1055
   716  0587                     u2530:
   717  0587  2D88               	goto	l2580
   718                           	
   719  0588                     l1057:	
   720                           	line	73
   721                           	
   722  0588                     l2580:	
   723                           ;mobileinterface.c: 73: number[j]='1';
   724  0588  3031               	movlw	(031h)
   725  0589  00F3               	movwf	(??_main+0)+0
   726  058A  0856               	movf	(main@j),w
   727  058B  3E4A               	addlw	main@number&0ffh
   728  058C  0084               	movwf	fsr0
   729  058D  0873               	movf	(??_main+0)+0,w
   730  058E  1383               	bcf	status, 7	;select IRP bank0
   731  058F  0080               	movwf	indf
   732                           	line	74
   733                           	
   734  0590                     l2582:	
   735                           ;mobileinterface.c: 74: address(0X80+j);
   736  0590  0856               	movf	(main@j),w
   737  0591  3E80               	addlw	080h
   738  0592  120A  118A  246A   	fcall	_address
              120A  118A         
   739                           	line	75
   740                           	
   741  0597                     l2584:	
   742                           ;mobileinterface.c: 75: display(number[j]);
   743  0597  1283               	bcf	status, 5	;RP0=0, select bank0
   744  0598  1303               	bcf	status, 6	;RP1=0, select bank0
   745  0599  0856               	movf	(main@j),w
   746  059A  3E4A               	addlw	main@number&0ffh
   747  059B  0084               	movwf	fsr0
   748  059C  1383               	bcf	status, 7	;select IRP bank0
   749  059D  0800               	movf	indf,w
   750  059E  120A  118A  2477   	fcall	_display
              120A  118A         
   751                           	line	76
   752                           	
   753  05A3                     l2586:	
   754                           ;mobileinterface.c: 76: j++;
   755  05A3  3001               	movlw	low(01h)
   756  05A4  1283               	bcf	status, 5	;RP0=0, select bank0
   757  05A5  1303               	bcf	status, 6	;RP1=0, select bank0
   758  05A6  07D6               	addwf	(main@j),f
   759  05A7  1803               	skipnc
   760  05A8  0AD7               	incf	(main@j+1),f
   761  05A9  3000               	movlw	high(01h)
   762  05AA  07D7               	addwf	(main@j+1),f
   763  05AB  2DAC               	goto	l2588
   764                           	line	77
   765                           	
   766  05AC                     l1054:	
   767                           	line	78
   768                           	
   769  05AC                     l2588:	
   770                           ;mobileinterface.c: 77: }
   771                           ;mobileinterface.c: 78: if(RA1==1)
   772  05AC  1C85               	btfss	(41/8),(41)&7
   773  05AD  2DAF               	goto	u2541
   774  05AE  2DB0               	goto	u2540
   775  05AF                     u2541:
   776  05AF  2DDB               	goto	l2600
   777  05B0                     u2540:
   778  05B0  2DB2               	goto	l1059
   779                           	line	80
   780                           	
   781  05B1                     l2590:	
   782                           ;mobileinterface.c: 79: {
   783                           ;mobileinterface.c: 80: while(RA1==1);
   784  05B1  2DB2               	goto	l1059
   785                           	
   786  05B2                     l1060:	
   787                           	
   788  05B2                     l1059:	
   789  05B2  1885               	btfsc	(41/8),(41)&7
   790  05B3  2DB5               	goto	u2551
   791  05B4  2DB6               	goto	u2550
   792  05B5                     u2551:
   793  05B5  2DB2               	goto	l1059
   794  05B6                     u2550:
   795  05B6  2DB7               	goto	l2592
   796                           	
   797  05B7                     l1061:	
   798                           	line	81
   799                           	
   800  05B7                     l2592:	
   801                           ;mobileinterface.c: 81: number[j]='2';
   802  05B7  3032               	movlw	(032h)
   803  05B8  00F3               	movwf	(??_main+0)+0
   804  05B9  0856               	movf	(main@j),w
   805  05BA  3E4A               	addlw	main@number&0ffh
   806  05BB  0084               	movwf	fsr0
   807  05BC  0873               	movf	(??_main+0)+0,w
   808  05BD  1383               	bcf	status, 7	;select IRP bank0
   809  05BE  0080               	movwf	indf
   810                           	line	82
   811                           	
   812  05BF                     l2594:	
   813                           ;mobileinterface.c: 82: address(0X80+j);
   814  05BF  0856               	movf	(main@j),w
   815  05C0  3E80               	addlw	080h
   816  05C1  120A  118A  246A   	fcall	_address
              120A  118A         
   817                           	line	83
   818                           	
   819  05C6                     l2596:	
   820                           ;mobileinterface.c: 83: display(number[j]);
   821  05C6  1283               	bcf	status, 5	;RP0=0, select bank0
   822  05C7  1303               	bcf	status, 6	;RP1=0, select bank0
   823  05C8  0856               	movf	(main@j),w
   824  05C9  3E4A               	addlw	main@number&0ffh
   825  05CA  0084               	movwf	fsr0
   826  05CB  1383               	bcf	status, 7	;select IRP bank0
   827  05CC  0800               	movf	indf,w
   828  05CD  120A  118A  2477   	fcall	_display
              120A  118A         
   829                           	line	84
   830                           	
   831  05D2                     l2598:	
   832                           ;mobileinterface.c: 84: j++;
   833  05D2  3001               	movlw	low(01h)
   834  05D3  1283               	bcf	status, 5	;RP0=0, select bank0
   835  05D4  1303               	bcf	status, 6	;RP1=0, select bank0
   836  05D5  07D6               	addwf	(main@j),f
   837  05D6  1803               	skipnc
   838  05D7  0AD7               	incf	(main@j+1),f
   839  05D8  3000               	movlw	high(01h)
   840  05D9  07D7               	addwf	(main@j+1),f
   841  05DA  2DDB               	goto	l2600
   842                           	line	85
   843                           	
   844  05DB                     l1058:	
   845                           	line	86
   846                           	
   847  05DB                     l2600:	
   848                           ;mobileinterface.c: 85: }
   849                           ;mobileinterface.c: 86: if(RA2==1)
   850  05DB  1D05               	btfss	(42/8),(42)&7
   851  05DC  2DDE               	goto	u2561
   852  05DD  2DDF               	goto	u2560
   853  05DE                     u2561:
   854  05DE  2E0A               	goto	l2612
   855  05DF                     u2560:
   856  05DF  2DE1               	goto	l1063
   857                           	line	88
   858                           	
   859  05E0                     l2602:	
   860                           ;mobileinterface.c: 87: {
   861                           ;mobileinterface.c: 88: while(RA2==1);
   862  05E0  2DE1               	goto	l1063
   863                           	
   864  05E1                     l1064:	
   865                           	
   866  05E1                     l1063:	
   867  05E1  1905               	btfsc	(42/8),(42)&7
   868  05E2  2DE4               	goto	u2571
   869  05E3  2DE5               	goto	u2570
   870  05E4                     u2571:
   871  05E4  2DE1               	goto	l1063
   872  05E5                     u2570:
   873  05E5  2DE6               	goto	l2604
   874                           	
   875  05E6                     l1065:	
   876                           	line	89
   877                           	
   878  05E6                     l2604:	
   879                           ;mobileinterface.c: 89: number[j]='3';
   880  05E6  3033               	movlw	(033h)
   881  05E7  00F3               	movwf	(??_main+0)+0
   882  05E8  0856               	movf	(main@j),w
   883  05E9  3E4A               	addlw	main@number&0ffh
   884  05EA  0084               	movwf	fsr0
   885  05EB  0873               	movf	(??_main+0)+0,w
   886  05EC  1383               	bcf	status, 7	;select IRP bank0
   887  05ED  0080               	movwf	indf
   888                           	line	90
   889                           	
   890  05EE                     l2606:	
   891                           ;mobileinterface.c: 90: address(0X80+j);
   892  05EE  0856               	movf	(main@j),w
   893  05EF  3E80               	addlw	080h
   894  05F0  120A  118A  246A   	fcall	_address
              120A  118A         
   895                           	line	91
   896                           	
   897  05F5                     l2608:	
   898                           ;mobileinterface.c: 91: display(number[j]);
   899  05F5  1283               	bcf	status, 5	;RP0=0, select bank0
   900  05F6  1303               	bcf	status, 6	;RP1=0, select bank0
   901  05F7  0856               	movf	(main@j),w
   902  05F8  3E4A               	addlw	main@number&0ffh
   903  05F9  0084               	movwf	fsr0
   904  05FA  1383               	bcf	status, 7	;select IRP bank0
   905  05FB  0800               	movf	indf,w
   906  05FC  120A  118A  2477   	fcall	_display
              120A  118A         
   907                           	line	92
   908                           	
   909  0601                     l2610:	
   910                           ;mobileinterface.c: 92: j++;
   911  0601  3001               	movlw	low(01h)
   912  0602  1283               	bcf	status, 5	;RP0=0, select bank0
   913  0603  1303               	bcf	status, 6	;RP1=0, select bank0
   914  0604  07D6               	addwf	(main@j),f
   915  0605  1803               	skipnc
   916  0606  0AD7               	incf	(main@j+1),f
   917  0607  3000               	movlw	high(01h)
   918  0608  07D7               	addwf	(main@j+1),f
   919  0609  2E0A               	goto	l2612
   920                           	line	93
   921                           	
   922  060A                     l1062:	
   923                           	line	94
   924                           	
   925  060A                     l2612:	
   926                           ;mobileinterface.c: 93: }
   927                           ;mobileinterface.c: 94: RB0=0;RB1=1;RB2=0;RB3=0;
   928  060A  1006               	bcf	(48/8),(48)&7
   929                           	
   930  060B                     l2614:	
   931  060B  1486               	bsf	(49/8),(49)&7
   932                           	
   933  060C                     l2616:	
   934  060C  1106               	bcf	(50/8),(50)&7
   935                           	
   936  060D                     l2618:	
   937  060D  1186               	bcf	(51/8),(51)&7
   938                           	line	95
   939                           	
   940  060E                     l2620:	
   941                           ;mobileinterface.c: 95: if(RA0==1)
   942  060E  1C05               	btfss	(40/8),(40)&7
   943  060F  2E11               	goto	u2581
   944  0610  2E12               	goto	u2580
   945  0611                     u2581:
   946  0611  2E3D               	goto	l2632
   947  0612                     u2580:
   948  0612  2E14               	goto	l1067
   949                           	line	97
   950                           	
   951  0613                     l2622:	
   952                           ;mobileinterface.c: 96: {
   953                           ;mobileinterface.c: 97: while(RA0==1);
   954  0613  2E14               	goto	l1067
   955                           	
   956  0614                     l1068:	
   957                           	
   958  0614                     l1067:	
   959  0614  1805               	btfsc	(40/8),(40)&7
   960  0615  2E17               	goto	u2591
   961  0616  2E18               	goto	u2590
   962  0617                     u2591:
   963  0617  2E14               	goto	l1067
   964  0618                     u2590:
   965  0618  2E19               	goto	l2624
   966                           	
   967  0619                     l1069:	
   968                           	line	98
   969                           	
   970  0619                     l2624:	
   971                           ;mobileinterface.c: 98: number[j]='4';
   972  0619  3034               	movlw	(034h)
   973  061A  00F3               	movwf	(??_main+0)+0
   974  061B  0856               	movf	(main@j),w
   975  061C  3E4A               	addlw	main@number&0ffh
   976  061D  0084               	movwf	fsr0
   977  061E  0873               	movf	(??_main+0)+0,w
   978  061F  1383               	bcf	status, 7	;select IRP bank0
   979  0620  0080               	movwf	indf
   980                           	line	99
   981                           	
   982  0621                     l2626:	
   983                           ;mobileinterface.c: 99: address(0X80+j);
   984  0621  0856               	movf	(main@j),w
   985  0622  3E80               	addlw	080h
   986  0623  120A  118A  246A   	fcall	_address
              120A  118A         
   987                           	line	100
   988                           	
   989  0628                     l2628:	
   990                           ;mobileinterface.c: 100: display(number[j]);
   991  0628  1283               	bcf	status, 5	;RP0=0, select bank0
   992  0629  1303               	bcf	status, 6	;RP1=0, select bank0
   993  062A  0856               	movf	(main@j),w
   994  062B  3E4A               	addlw	main@number&0ffh
   995  062C  0084               	movwf	fsr0
   996  062D  1383               	bcf	status, 7	;select IRP bank0
   997  062E  0800               	movf	indf,w
   998  062F  120A  118A  2477   	fcall	_display
              120A  118A         
   999                           	line	101
  1000                           	
  1001  0634                     l2630:	
  1002                           ;mobileinterface.c: 101: j++;
  1003  0634  3001               	movlw	low(01h)
  1004  0635  1283               	bcf	status, 5	;RP0=0, select bank0
  1005  0636  1303               	bcf	status, 6	;RP1=0, select bank0
  1006  0637  07D6               	addwf	(main@j),f
  1007  0638  1803               	skipnc
  1008  0639  0AD7               	incf	(main@j+1),f
  1009  063A  3000               	movlw	high(01h)
  1010  063B  07D7               	addwf	(main@j+1),f
  1011  063C  2E3D               	goto	l2632
  1012                           	line	102
  1013                           	
  1014  063D                     l1066:	
  1015                           	line	103
  1016                           	
  1017  063D                     l2632:	
  1018                           ;mobileinterface.c: 102: }
  1019                           ;mobileinterface.c: 103: if(RA1==1)
  1020  063D  1C85               	btfss	(41/8),(41)&7
  1021  063E  2E40               	goto	u2601
  1022  063F  2E41               	goto	u2600
  1023  0640                     u2601:
  1024  0640  2E6C               	goto	l2644
  1025  0641                     u2600:
  1026  0641  2E43               	goto	l1071
  1027                           	line	105
  1028                           	
  1029  0642                     l2634:	
  1030                           ;mobileinterface.c: 104: {
  1031                           ;mobileinterface.c: 105: while(RA1==1);
  1032  0642  2E43               	goto	l1071
  1033                           	
  1034  0643                     l1072:	
  1035                           	
  1036  0643                     l1071:	
  1037  0643  1885               	btfsc	(41/8),(41)&7
  1038  0644  2E46               	goto	u2611
  1039  0645  2E47               	goto	u2610
  1040  0646                     u2611:
  1041  0646  2E43               	goto	l1071
  1042  0647                     u2610:
  1043  0647  2E48               	goto	l2636
  1044                           	
  1045  0648                     l1073:	
  1046                           	line	106
  1047                           	
  1048  0648                     l2636:	
  1049                           ;mobileinterface.c: 106: number[j]='5';
  1050  0648  3035               	movlw	(035h)
  1051  0649  00F3               	movwf	(??_main+0)+0
  1052  064A  0856               	movf	(main@j),w
  1053  064B  3E4A               	addlw	main@number&0ffh
  1054  064C  0084               	movwf	fsr0
  1055  064D  0873               	movf	(??_main+0)+0,w
  1056  064E  1383               	bcf	status, 7	;select IRP bank0
  1057  064F  0080               	movwf	indf
  1058                           	line	107
  1059                           	
  1060  0650                     l2638:	
  1061                           ;mobileinterface.c: 107: address(0X80+j);
  1062  0650  0856               	movf	(main@j),w
  1063  0651  3E80               	addlw	080h
  1064  0652  120A  118A  246A   	fcall	_address
              120A  118A         
  1065                           	line	108
  1066                           	
  1067  0657                     l2640:	
  1068                           ;mobileinterface.c: 108: display(number[j]);
  1069  0657  1283               	bcf	status, 5	;RP0=0, select bank0
  1070  0658  1303               	bcf	status, 6	;RP1=0, select bank0
  1071  0659  0856               	movf	(main@j),w
  1072  065A  3E4A               	addlw	main@number&0ffh
  1073  065B  0084               	movwf	fsr0
  1074  065C  1383               	bcf	status, 7	;select IRP bank0
  1075  065D  0800               	movf	indf,w
  1076  065E  120A  118A  2477   	fcall	_display
              120A  118A         
  1077                           	line	109
  1078                           	
  1079  0663                     l2642:	
  1080                           ;mobileinterface.c: 109: j++;
  1081  0663  3001               	movlw	low(01h)
  1082  0664  1283               	bcf	status, 5	;RP0=0, select bank0
  1083  0665  1303               	bcf	status, 6	;RP1=0, select bank0
  1084  0666  07D6               	addwf	(main@j),f
  1085  0667  1803               	skipnc
  1086  0668  0AD7               	incf	(main@j+1),f
  1087  0669  3000               	movlw	high(01h)
  1088  066A  07D7               	addwf	(main@j+1),f
  1089  066B  2E6C               	goto	l2644
  1090                           	line	110
  1091                           	
  1092  066C                     l1070:	
  1093                           	line	111
  1094                           	
  1095  066C                     l2644:	
  1096                           ;mobileinterface.c: 110: }
  1097                           ;mobileinterface.c: 111: if(RA2==1)
  1098  066C  1D05               	btfss	(42/8),(42)&7
  1099  066D  2E6F               	goto	u2621
  1100  066E  2E70               	goto	u2620
  1101  066F                     u2621:
  1102  066F  2E9B               	goto	l2656
  1103  0670                     u2620:
  1104  0670  2E72               	goto	l1075
  1105                           	line	113
  1106                           	
  1107  0671                     l2646:	
  1108                           ;mobileinterface.c: 112: {
  1109                           ;mobileinterface.c: 113: while(RA2==1);
  1110  0671  2E72               	goto	l1075
  1111                           	
  1112  0672                     l1076:	
  1113                           	
  1114  0672                     l1075:	
  1115  0672  1905               	btfsc	(42/8),(42)&7
  1116  0673  2E75               	goto	u2631
  1117  0674  2E76               	goto	u2630
  1118  0675                     u2631:
  1119  0675  2E72               	goto	l1075
  1120  0676                     u2630:
  1121  0676  2E77               	goto	l2648
  1122                           	
  1123  0677                     l1077:	
  1124                           	line	114
  1125                           	
  1126  0677                     l2648:	
  1127                           ;mobileinterface.c: 114: number[j]='6';
  1128  0677  3036               	movlw	(036h)
  1129  0678  00F3               	movwf	(??_main+0)+0
  1130  0679  0856               	movf	(main@j),w
  1131  067A  3E4A               	addlw	main@number&0ffh
  1132  067B  0084               	movwf	fsr0
  1133  067C  0873               	movf	(??_main+0)+0,w
  1134  067D  1383               	bcf	status, 7	;select IRP bank0
  1135  067E  0080               	movwf	indf
  1136                           	line	115
  1137                           	
  1138  067F                     l2650:	
  1139                           ;mobileinterface.c: 115: address(0X80+j);
  1140  067F  0856               	movf	(main@j),w
  1141  0680  3E80               	addlw	080h
  1142  0681  120A  118A  246A   	fcall	_address
              120A  118A         
  1143                           	line	116
  1144                           	
  1145  0686                     l2652:	
  1146                           ;mobileinterface.c: 116: display(number[j]);
  1147  0686  1283               	bcf	status, 5	;RP0=0, select bank0
  1148  0687  1303               	bcf	status, 6	;RP1=0, select bank0
  1149  0688  0856               	movf	(main@j),w
  1150  0689  3E4A               	addlw	main@number&0ffh
  1151  068A  0084               	movwf	fsr0
  1152  068B  1383               	bcf	status, 7	;select IRP bank0
  1153  068C  0800               	movf	indf,w
  1154  068D  120A  118A  2477   	fcall	_display
              120A  118A         
  1155                           	line	117
  1156                           	
  1157  0692                     l2654:	
  1158                           ;mobileinterface.c: 117: j++;
  1159  0692  3001               	movlw	low(01h)
  1160  0693  1283               	bcf	status, 5	;RP0=0, select bank0
  1161  0694  1303               	bcf	status, 6	;RP1=0, select bank0
  1162  0695  07D6               	addwf	(main@j),f
  1163  0696  1803               	skipnc
  1164  0697  0AD7               	incf	(main@j+1),f
  1165  0698  3000               	movlw	high(01h)
  1166  0699  07D7               	addwf	(main@j+1),f
  1167  069A  2E9B               	goto	l2656
  1168                           	line	118
  1169                           	
  1170  069B                     l1074:	
  1171                           	line	119
  1172                           	
  1173  069B                     l2656:	
  1174                           ;mobileinterface.c: 118: }
  1175                           ;mobileinterface.c: 119: RB0=0;RB1=0;RB2=1;RB3=0;
  1176  069B  1006               	bcf	(48/8),(48)&7
  1177                           	
  1178  069C                     l2658:	
  1179  069C  1086               	bcf	(49/8),(49)&7
  1180                           	
  1181  069D                     l2660:	
  1182  069D  1506               	bsf	(50/8),(50)&7
  1183                           	
  1184  069E                     l2662:	
  1185  069E  1186               	bcf	(51/8),(51)&7
  1186                           	line	120
  1187                           	
  1188  069F                     l2664:	
  1189                           ;mobileinterface.c: 120: if(RA0==1)
  1190  069F  1C05               	btfss	(40/8),(40)&7
  1191  06A0  2EA2               	goto	u2641
  1192  06A1  2EA3               	goto	u2640
  1193  06A2                     u2641:
  1194  06A2  2ECE               	goto	l2676
  1195  06A3                     u2640:
  1196  06A3  2EA5               	goto	l1079
  1197                           	line	122
  1198                           	
  1199  06A4                     l2666:	
  1200                           ;mobileinterface.c: 121: {
  1201                           ;mobileinterface.c: 122: while(RA0==1);
  1202  06A4  2EA5               	goto	l1079
  1203                           	
  1204  06A5                     l1080:	
  1205                           	
  1206  06A5                     l1079:	
  1207  06A5  1805               	btfsc	(40/8),(40)&7
  1208  06A6  2EA8               	goto	u2651
  1209  06A7  2EA9               	goto	u2650
  1210  06A8                     u2651:
  1211  06A8  2EA5               	goto	l1079
  1212  06A9                     u2650:
  1213  06A9  2EAA               	goto	l2668
  1214                           	
  1215  06AA                     l1081:	
  1216                           	line	123
  1217                           	
  1218  06AA                     l2668:	
  1219                           ;mobileinterface.c: 123: number[j]='7';
  1220  06AA  3037               	movlw	(037h)
  1221  06AB  00F3               	movwf	(??_main+0)+0
  1222  06AC  0856               	movf	(main@j),w
  1223  06AD  3E4A               	addlw	main@number&0ffh
  1224  06AE  0084               	movwf	fsr0
  1225  06AF  0873               	movf	(??_main+0)+0,w
  1226  06B0  1383               	bcf	status, 7	;select IRP bank0
  1227  06B1  0080               	movwf	indf
  1228                           	line	124
  1229                           	
  1230  06B2                     l2670:	
  1231                           ;mobileinterface.c: 124: address(0X80+j);
  1232  06B2  0856               	movf	(main@j),w
  1233  06B3  3E80               	addlw	080h
  1234  06B4  120A  118A  246A   	fcall	_address
              120A  118A         
  1235                           	line	125
  1236                           	
  1237  06B9                     l2672:	
  1238                           ;mobileinterface.c: 125: display(number[j]);
  1239  06B9  1283               	bcf	status, 5	;RP0=0, select bank0
  1240  06BA  1303               	bcf	status, 6	;RP1=0, select bank0
  1241  06BB  0856               	movf	(main@j),w
  1242  06BC  3E4A               	addlw	main@number&0ffh
  1243  06BD  0084               	movwf	fsr0
  1244  06BE  1383               	bcf	status, 7	;select IRP bank0
  1245  06BF  0800               	movf	indf,w
  1246  06C0  120A  118A  2477   	fcall	_display
              120A  118A         
  1247                           	line	126
  1248                           	
  1249  06C5                     l2674:	
  1250                           ;mobileinterface.c: 126: j++;
  1251  06C5  3001               	movlw	low(01h)
  1252  06C6  1283               	bcf	status, 5	;RP0=0, select bank0
  1253  06C7  1303               	bcf	status, 6	;RP1=0, select bank0
  1254  06C8  07D6               	addwf	(main@j),f
  1255  06C9  1803               	skipnc
  1256  06CA  0AD7               	incf	(main@j+1),f
  1257  06CB  3000               	movlw	high(01h)
  1258  06CC  07D7               	addwf	(main@j+1),f
  1259  06CD  2ECE               	goto	l2676
  1260                           	line	127
  1261                           	
  1262  06CE                     l1078:	
  1263                           	line	128
  1264                           	
  1265  06CE                     l2676:	
  1266                           ;mobileinterface.c: 127: }
  1267                           ;mobileinterface.c: 128: if(RA1==1)
  1268  06CE  1C85               	btfss	(41/8),(41)&7
  1269  06CF  2ED1               	goto	u2661
  1270  06D0  2ED2               	goto	u2660
  1271  06D1                     u2661:
  1272  06D1  2EFD               	goto	l2688
  1273  06D2                     u2660:
  1274  06D2  2ED4               	goto	l1083
  1275                           	line	130
  1276                           	
  1277  06D3                     l2678:	
  1278                           ;mobileinterface.c: 129: {
  1279                           ;mobileinterface.c: 130: while(RA1==1);
  1280  06D3  2ED4               	goto	l1083
  1281                           	
  1282  06D4                     l1084:	
  1283                           	
  1284  06D4                     l1083:	
  1285  06D4  1885               	btfsc	(41/8),(41)&7
  1286  06D5  2ED7               	goto	u2671
  1287  06D6  2ED8               	goto	u2670
  1288  06D7                     u2671:
  1289  06D7  2ED4               	goto	l1083
  1290  06D8                     u2670:
  1291  06D8  2ED9               	goto	l2680
  1292                           	
  1293  06D9                     l1085:	
  1294                           	line	131
  1295                           	
  1296  06D9                     l2680:	
  1297                           ;mobileinterface.c: 131: number[j]='8';
  1298  06D9  3038               	movlw	(038h)
  1299  06DA  00F3               	movwf	(??_main+0)+0
  1300  06DB  0856               	movf	(main@j),w
  1301  06DC  3E4A               	addlw	main@number&0ffh
  1302  06DD  0084               	movwf	fsr0
  1303  06DE  0873               	movf	(??_main+0)+0,w
  1304  06DF  1383               	bcf	status, 7	;select IRP bank0
  1305  06E0  0080               	movwf	indf
  1306                           	line	132
  1307                           	
  1308  06E1                     l2682:	
  1309                           ;mobileinterface.c: 132: address(0X80+j);
  1310  06E1  0856               	movf	(main@j),w
  1311  06E2  3E80               	addlw	080h
  1312  06E3  120A  118A  246A   	fcall	_address
              120A  118A         
  1313                           	line	133
  1314                           	
  1315  06E8                     l2684:	
  1316                           ;mobileinterface.c: 133: display(number[j]);
  1317  06E8  1283               	bcf	status, 5	;RP0=0, select bank0
  1318  06E9  1303               	bcf	status, 6	;RP1=0, select bank0
  1319  06EA  0856               	movf	(main@j),w
  1320  06EB  3E4A               	addlw	main@number&0ffh
  1321  06EC  0084               	movwf	fsr0
  1322  06ED  1383               	bcf	status, 7	;select IRP bank0
  1323  06EE  0800               	movf	indf,w
  1324  06EF  120A  118A  2477   	fcall	_display
              120A  118A         
  1325                           	line	134
  1326                           	
  1327  06F4                     l2686:	
  1328                           ;mobileinterface.c: 134: j++;
  1329  06F4  3001               	movlw	low(01h)
  1330  06F5  1283               	bcf	status, 5	;RP0=0, select bank0
  1331  06F6  1303               	bcf	status, 6	;RP1=0, select bank0
  1332  06F7  07D6               	addwf	(main@j),f
  1333  06F8  1803               	skipnc
  1334  06F9  0AD7               	incf	(main@j+1),f
  1335  06FA  3000               	movlw	high(01h)
  1336  06FB  07D7               	addwf	(main@j+1),f
  1337  06FC  2EFD               	goto	l2688
  1338                           	line	135
  1339                           	
  1340  06FD                     l1082:	
  1341                           	line	136
  1342                           	
  1343  06FD                     l2688:	
  1344                           ;mobileinterface.c: 135: }
  1345                           ;mobileinterface.c: 136: if(RA2==1)
  1346  06FD  1D05               	btfss	(42/8),(42)&7
  1347  06FE  2F00               	goto	u2681
  1348  06FF  2F01               	goto	u2680
  1349  0700                     u2681:
  1350  0700  2F2C               	goto	l2700
  1351  0701                     u2680:
  1352  0701  2F03               	goto	l1087
  1353                           	line	138
  1354                           	
  1355  0702                     l2690:	
  1356                           ;mobileinterface.c: 137: {
  1357                           ;mobileinterface.c: 138: while(RA2==1);
  1358  0702  2F03               	goto	l1087
  1359                           	
  1360  0703                     l1088:	
  1361                           	
  1362  0703                     l1087:	
  1363  0703  1905               	btfsc	(42/8),(42)&7
  1364  0704  2F06               	goto	u2691
  1365  0705  2F07               	goto	u2690
  1366  0706                     u2691:
  1367  0706  2F03               	goto	l1087
  1368  0707                     u2690:
  1369  0707  2F08               	goto	l2692
  1370                           	
  1371  0708                     l1089:	
  1372                           	line	139
  1373                           	
  1374  0708                     l2692:	
  1375                           ;mobileinterface.c: 139: number[j]='9';
  1376  0708  3039               	movlw	(039h)
  1377  0709  00F3               	movwf	(??_main+0)+0
  1378  070A  0856               	movf	(main@j),w
  1379  070B  3E4A               	addlw	main@number&0ffh
  1380  070C  0084               	movwf	fsr0
  1381  070D  0873               	movf	(??_main+0)+0,w
  1382  070E  1383               	bcf	status, 7	;select IRP bank0
  1383  070F  0080               	movwf	indf
  1384                           	line	140
  1385                           	
  1386  0710                     l2694:	
  1387                           ;mobileinterface.c: 140: address(0X80+j);
  1388  0710  0856               	movf	(main@j),w
  1389  0711  3E80               	addlw	080h
  1390  0712  120A  118A  246A   	fcall	_address
              120A  118A         
  1391                           	line	141
  1392                           	
  1393  0717                     l2696:	
  1394                           ;mobileinterface.c: 141: display(number[j]);
  1395  0717  1283               	bcf	status, 5	;RP0=0, select bank0
  1396  0718  1303               	bcf	status, 6	;RP1=0, select bank0
  1397  0719  0856               	movf	(main@j),w
  1398  071A  3E4A               	addlw	main@number&0ffh
  1399  071B  0084               	movwf	fsr0
  1400  071C  1383               	bcf	status, 7	;select IRP bank0
  1401  071D  0800               	movf	indf,w
  1402  071E  120A  118A  2477   	fcall	_display
              120A  118A         
  1403                           	line	142
  1404                           	
  1405  0723                     l2698:	
  1406                           ;mobileinterface.c: 142: j++;
  1407  0723  3001               	movlw	low(01h)
  1408  0724  1283               	bcf	status, 5	;RP0=0, select bank0
  1409  0725  1303               	bcf	status, 6	;RP1=0, select bank0
  1410  0726  07D6               	addwf	(main@j),f
  1411  0727  1803               	skipnc
  1412  0728  0AD7               	incf	(main@j+1),f
  1413  0729  3000               	movlw	high(01h)
  1414  072A  07D7               	addwf	(main@j+1),f
  1415  072B  2F2C               	goto	l2700
  1416                           	line	143
  1417                           	
  1418  072C                     l1086:	
  1419                           	line	144
  1420                           	
  1421  072C                     l2700:	
  1422                           ;mobileinterface.c: 143: }
  1423                           ;mobileinterface.c: 144: RB0=0;RB1=0;RB2=0;RB3=1;
  1424  072C  1006               	bcf	(48/8),(48)&7
  1425                           	
  1426  072D                     l2702:	
  1427  072D  1086               	bcf	(49/8),(49)&7
  1428                           	
  1429  072E                     l2704:	
  1430  072E  1106               	bcf	(50/8),(50)&7
  1431                           	
  1432  072F                     l2706:	
  1433  072F  1586               	bsf	(51/8),(51)&7
  1434                           	line	145
  1435                           	
  1436  0730                     l2708:	
  1437                           ;mobileinterface.c: 145: if(RA0==1)
  1438  0730  1C05               	btfss	(40/8),(40)&7
  1439  0731  2F33               	goto	u2701
  1440  0732  2F34               	goto	u2700
  1441  0733                     u2701:
  1442  0733  2F96               	goto	l1090
  1443  0734                     u2700:
  1444  0734  2F36               	goto	l1091
  1445                           	line	147
  1446                           	
  1447  0735                     l2710:	
  1448                           ;mobileinterface.c: 146: {
  1449                           ;mobileinterface.c: 147: while(RA0==1);
  1450  0735  2F36               	goto	l1091
  1451                           	
  1452  0736                     l1092:	
  1453                           	
  1454  0736                     l1091:	
  1455  0736  1805               	btfsc	(40/8),(40)&7
  1456  0737  2F39               	goto	u2711
  1457  0738  2F3A               	goto	u2710
  1458  0739                     u2711:
  1459  0739  2F36               	goto	l1091
  1460  073A                     u2710:
  1461  073A  2F3B               	goto	l2712
  1462                           	
  1463  073B                     l1093:	
  1464                           	line	148
  1465                           	
  1466  073B                     l2712:	
  1467                           ;mobileinterface.c: 148: if(j==10)
  1468  073B  300A               	movlw	0Ah
  1469  073C  0656               	xorwf	(main@j),w
  1470  073D  0457               	iorwf	(main@j+1),w
  1471  073E  1D03               	skipz
  1472  073F  2F41               	goto	u2721
  1473  0740  2F42               	goto	u2720
  1474  0741                     u2721:
  1475  0741  2F6C               	goto	l2724
  1476  0742                     u2720:
  1477                           	line	150
  1478                           	
  1479  0742                     l2714:	
  1480                           ;mobileinterface.c: 149: {
  1481                           ;mobileinterface.c: 150: for(i=0;ring[i]!='\0';i++)
  1482  0742  01D4               	clrf	(main@i)
  1483  0743  01D5               	clrf	(main@i+1)
  1484  0744  2F61               	goto	l2722
  1485                           	line	151
  1486                           	
  1487  0745                     l1096:	
  1488                           	line	152
  1489                           	
  1490  0745                     l2716:	
  1491                           ;mobileinterface.c: 151: {
  1492                           ;mobileinterface.c: 152: address(0XC0+i);
  1493  0745  0854               	movf	(main@i),w
  1494  0746  3EC0               	addlw	0C0h
  1495  0747  120A  118A  246A   	fcall	_address
              120A  118A         
  1496                           	line	153
  1497                           	
  1498  074C                     l2718:	
  1499                           ;mobileinterface.c: 153: display(ring[i]);
  1500  074C  1283               	bcf	status, 5	;RP0=0, select bank0
  1501  074D  1303               	bcf	status, 6	;RP1=0, select bank0
  1502  074E  0854               	movf	(main@i),w
  1503  074F  3E3E               	addlw	main@ring&0ffh
  1504  0750  0084               	movwf	fsr0
  1505  0751  1383               	bcf	status, 7	;select IRP bank0
  1506  0752  0800               	movf	indf,w
  1507  0753  120A  118A  2477   	fcall	_display
              120A  118A         
  1508                           	line	150
  1509                           	
  1510  0758                     l2720:	
  1511  0758  3001               	movlw	low(01h)
  1512  0759  1283               	bcf	status, 5	;RP0=0, select bank0
  1513  075A  1303               	bcf	status, 6	;RP1=0, select bank0
  1514  075B  07D4               	addwf	(main@i),f
  1515  075C  1803               	skipnc
  1516  075D  0AD5               	incf	(main@i+1),f
  1517  075E  3000               	movlw	high(01h)
  1518  075F  07D5               	addwf	(main@i+1),f
  1519  0760  2F61               	goto	l2722
  1520                           	
  1521  0761                     l1095:	
  1522                           	
  1523  0761                     l2722:	
  1524  0761  0854               	movf	(main@i),w
  1525  0762  3E3E               	addlw	main@ring&0ffh
  1526  0763  0084               	movwf	fsr0
  1527  0764  1383               	bcf	status, 7	;select IRP bank0
  1528  0765  0880               	movf	indf,f
  1529  0766  1D03               	skipz
  1530  0767  2F69               	goto	u2731
  1531  0768  2F6A               	goto	u2730
  1532  0769                     u2731:
  1533  0769  2F45               	goto	l2716
  1534  076A                     u2730:
  1535  076A  2F96               	goto	l1090
  1536                           	
  1537  076B                     l1097:	
  1538                           	line	155
  1539                           ;mobileinterface.c: 154: }
  1540                           ;mobileinterface.c: 155: }
  1541  076B  2F96               	goto	l1090
  1542                           	line	156
  1543                           	
  1544  076C                     l1094:	
  1545                           	line	158
  1546                           	
  1547  076C                     l2724:	
  1548                           ;mobileinterface.c: 156: else
  1549                           ;mobileinterface.c: 157: {
  1550                           ;mobileinterface.c: 158: for(i=0;wrong[i]!='\0';i++)
  1551  076C  01D4               	clrf	(main@i)
  1552  076D  01D5               	clrf	(main@i+1)
  1553  076E  2F8B               	goto	l2732
  1554                           	line	159
  1555                           	
  1556  076F                     l1100:	
  1557                           	line	160
  1558                           	
  1559  076F                     l2726:	
  1560                           ;mobileinterface.c: 159: {
  1561                           ;mobileinterface.c: 160: address(0XC0+i);
  1562  076F  0854               	movf	(main@i),w
  1563  0770  3EC0               	addlw	0C0h
  1564  0771  120A  118A  246A   	fcall	_address
              120A  118A         
  1565                           	line	161
  1566                           	
  1567  0776                     l2728:	
  1568                           ;mobileinterface.c: 161: display(wrong[i]);
  1569  0776  1283               	bcf	status, 5	;RP0=0, select bank0
  1570  0777  1303               	bcf	status, 6	;RP1=0, select bank0
  1571  0778  0854               	movf	(main@i),w
  1572  0779  3E20               	addlw	main@wrong&0ffh
  1573  077A  0084               	movwf	fsr0
  1574  077B  1383               	bcf	status, 7	;select IRP bank0
  1575  077C  0800               	movf	indf,w
  1576  077D  120A  118A  2477   	fcall	_display
              120A  118A         
  1577                           	line	158
  1578                           	
  1579  0782                     l2730:	
  1580  0782  3001               	movlw	low(01h)
  1581  0783  1283               	bcf	status, 5	;RP0=0, select bank0
  1582  0784  1303               	bcf	status, 6	;RP1=0, select bank0
  1583  0785  07D4               	addwf	(main@i),f
  1584  0786  1803               	skipnc
  1585  0787  0AD5               	incf	(main@i+1),f
  1586  0788  3000               	movlw	high(01h)
  1587  0789  07D5               	addwf	(main@i+1),f
  1588  078A  2F8B               	goto	l2732
  1589                           	
  1590  078B                     l1099:	
  1591                           	
  1592  078B                     l2732:	
  1593  078B  0854               	movf	(main@i),w
  1594  078C  3E20               	addlw	main@wrong&0ffh
  1595  078D  0084               	movwf	fsr0
  1596  078E  1383               	bcf	status, 7	;select IRP bank0
  1597  078F  0880               	movf	indf,f
  1598  0790  1D03               	skipz
  1599  0791  2F93               	goto	u2741
  1600  0792  2F94               	goto	u2740
  1601  0793                     u2741:
  1602  0793  2F6F               	goto	l2726
  1603  0794                     u2740:
  1604  0794  2F96               	goto	l1090
  1605                           	
  1606  0795                     l1101:	
  1607  0795  2F96               	goto	l1090
  1608                           	line	163
  1609                           	
  1610  0796                     l1098:	
  1611                           	line	164
  1612                           	
  1613  0796                     l1090:	
  1614                           	line	165
  1615                           ;mobileinterface.c: 162: }
  1616                           ;mobileinterface.c: 163: }
  1617                           ;mobileinterface.c: 164: }
  1618                           ;mobileinterface.c: 165: if(RA1==1)
  1619  0796  1C85               	btfss	(41/8),(41)&7
  1620  0797  2F99               	goto	u2751
  1621  0798  2F9A               	goto	u2750
  1622  0799                     u2751:
  1623  0799  2FC5               	goto	l2744
  1624  079A                     u2750:
  1625  079A  2F9C               	goto	l1103
  1626                           	line	167
  1627                           	
  1628  079B                     l2734:	
  1629                           ;mobileinterface.c: 166: {
  1630                           ;mobileinterface.c: 167: while(RA1==1);
  1631  079B  2F9C               	goto	l1103
  1632                           	
  1633  079C                     l1104:	
  1634                           	
  1635  079C                     l1103:	
  1636  079C  1885               	btfsc	(41/8),(41)&7
  1637  079D  2F9F               	goto	u2761
  1638  079E  2FA0               	goto	u2760
  1639  079F                     u2761:
  1640  079F  2F9C               	goto	l1103
  1641  07A0                     u2760:
  1642  07A0  2FA1               	goto	l2736
  1643                           	
  1644  07A1                     l1105:	
  1645                           	line	168
  1646                           	
  1647  07A1                     l2736:	
  1648                           ;mobileinterface.c: 168: number[j]='0';
  1649  07A1  3030               	movlw	(030h)
  1650  07A2  00F3               	movwf	(??_main+0)+0
  1651  07A3  0856               	movf	(main@j),w
  1652  07A4  3E4A               	addlw	main@number&0ffh
  1653  07A5  0084               	movwf	fsr0
  1654  07A6  0873               	movf	(??_main+0)+0,w
  1655  07A7  1383               	bcf	status, 7	;select IRP bank0
  1656  07A8  0080               	movwf	indf
  1657                           	line	169
  1658                           	
  1659  07A9                     l2738:	
  1660                           ;mobileinterface.c: 169: address(0X80+j);
  1661  07A9  0856               	movf	(main@j),w
  1662  07AA  3E80               	addlw	080h
  1663  07AB  120A  118A  246A   	fcall	_address
              120A  118A         
  1664                           	line	170
  1665                           	
  1666  07B0                     l2740:	
  1667                           ;mobileinterface.c: 170: display(number[j]);
  1668  07B0  1283               	bcf	status, 5	;RP0=0, select bank0
  1669  07B1  1303               	bcf	status, 6	;RP1=0, select bank0
  1670  07B2  0856               	movf	(main@j),w
  1671  07B3  3E4A               	addlw	main@number&0ffh
  1672  07B4  0084               	movwf	fsr0
  1673  07B5  1383               	bcf	status, 7	;select IRP bank0
  1674  07B6  0800               	movf	indf,w
  1675  07B7  120A  118A  2477   	fcall	_display
              120A  118A         
  1676                           	line	171
  1677                           	
  1678  07BC                     l2742:	
  1679                           ;mobileinterface.c: 171: j++;
  1680  07BC  3001               	movlw	low(01h)
  1681  07BD  1283               	bcf	status, 5	;RP0=0, select bank0
  1682  07BE  1303               	bcf	status, 6	;RP1=0, select bank0
  1683  07BF  07D6               	addwf	(main@j),f
  1684  07C0  1803               	skipnc
  1685  07C1  0AD7               	incf	(main@j+1),f
  1686  07C2  3000               	movlw	high(01h)
  1687  07C3  07D7               	addwf	(main@j+1),f
  1688  07C4  2FC5               	goto	l2744
  1689                           	line	172
  1690                           	
  1691  07C5                     l1102:	
  1692                           	line	173
  1693                           	
  1694  07C5                     l2744:	
  1695                           ;mobileinterface.c: 172: }
  1696                           ;mobileinterface.c: 173: if(RA2==1)
  1697  07C5  1D05               	btfss	(42/8),(42)&7
  1698  07C6  2FC8               	goto	u2771
  1699  07C7  2FC9               	goto	u2770
  1700  07C8                     u2771:
  1701  07C8  2D70               	goto	l2574
  1702  07C9                     u2770:
  1703  07C9  2FCB               	goto	l1107
  1704                           	line	175
  1705                           	
  1706  07CA                     l2746:	
  1707                           ;mobileinterface.c: 174: {
  1708                           ;mobileinterface.c: 175: while(RA2==1);
  1709  07CA  2FCB               	goto	l1107
  1710                           	
  1711  07CB                     l1108:	
  1712                           	
  1713  07CB                     l1107:	
  1714  07CB  1905               	btfsc	(42/8),(42)&7
  1715  07CC  2FCE               	goto	u2781
  1716  07CD  2FCF               	goto	u2780
  1717  07CE                     u2781:
  1718  07CE  2FCB               	goto	l1107
  1719  07CF                     u2780:
  1720  07CF  2FD0               	goto	l2748
  1721                           	
  1722  07D0                     l1109:	
  1723                           	line	176
  1724                           	
  1725  07D0                     l2748:	
  1726                           ;mobileinterface.c: 176: for(i=0;hang[i]!='\0';i++)
  1727  07D0  01D4               	clrf	(main@i)
  1728  07D1  01D5               	clrf	(main@i+1)
  1729  07D2  2FEF               	goto	l2756
  1730                           	line	177
  1731                           	
  1732  07D3                     l1111:	
  1733                           	line	178
  1734                           	
  1735  07D3                     l2750:	
  1736                           ;mobileinterface.c: 177: {
  1737                           ;mobileinterface.c: 178: address(0XC0+i);
  1738  07D3  0854               	movf	(main@i),w
  1739  07D4  3EC0               	addlw	0C0h
  1740  07D5  120A  118A  246A   	fcall	_address
              120A  118A         
  1741                           	line	179
  1742                           	
  1743  07DA                     l2752:	
  1744                           ;mobileinterface.c: 179: display(hang[i]);
  1745  07DA  1283               	bcf	status, 5	;RP0=0, select bank0
  1746  07DB  1303               	bcf	status, 6	;RP1=0, select bank0
  1747  07DC  0854               	movf	(main@i),w
  1748  07DD  3E2F               	addlw	main@hang&0ffh
  1749  07DE  0084               	movwf	fsr0
  1750  07DF  1383               	bcf	status, 7	;select IRP bank0
  1751  07E0  0800               	movf	indf,w
  1752  07E1  120A  118A  2477   	fcall	_display
              120A  118A         
  1753                           	line	176
  1754                           	
  1755  07E6                     l2754:	
  1756  07E6  3001               	movlw	low(01h)
  1757  07E7  1283               	bcf	status, 5	;RP0=0, select bank0
  1758  07E8  1303               	bcf	status, 6	;RP1=0, select bank0
  1759  07E9  07D4               	addwf	(main@i),f
  1760  07EA  1803               	skipnc
  1761  07EB  0AD5               	incf	(main@i+1),f
  1762  07EC  3000               	movlw	high(01h)
  1763  07ED  07D5               	addwf	(main@i+1),f
  1764  07EE  2FEF               	goto	l2756
  1765                           	
  1766  07EF                     l1110:	
  1767                           	
  1768  07EF                     l2756:	
  1769  07EF  0854               	movf	(main@i),w
  1770  07F0  3E2F               	addlw	main@hang&0ffh
  1771  07F1  0084               	movwf	fsr0
  1772  07F2  1383               	bcf	status, 7	;select IRP bank0
  1773  07F3  0880               	movf	indf,f
  1774  07F4  1D03               	skipz
  1775  07F5  2FF7               	goto	u2791
  1776  07F6  2FF8               	goto	u2790
  1777  07F7                     u2791:
  1778  07F7  2FD3               	goto	l2750
  1779  07F8                     u2790:
  1780  07F8  2D70               	goto	l2574
  1781                           	
  1782  07F9                     l1112:	
  1783  07F9  2D70               	goto	l2574
  1784                           	line	181
  1785                           	
  1786  07FA                     l1106:	
  1787  07FA  2D70               	goto	l2574
  1788                           	line	182
  1789                           	
  1790  07FB                     l1053:	
  1791  07FB  2D70               	goto	l2574
  1792                           	line	183
  1793                           	
  1794  07FC                     l1113:	
  1795                           	line	65
  1796  07FC  2D70               	goto	l2574
  1797                           	
  1798  07FD                     l1114:	
  1799                           	line	184
  1800                           	
  1801  07FD                     l1115:	
  1802                           	global	start
  1803  07FD  120A  118A  2800   	ljmp	start
  1804                           	opt stack 0
  1805                           GLOBAL	__end_of_main
  1806  0800                     	__end_of_main:
  1807 ;; =============== function _main ends ============
  1808                           
  1809                           	signat	_main,88
  1810                           	global	_display
  1811                           psect	text193,local,class=CODE,delta=2
  1812                           global __ptext193
  1813  0477                     __ptext193:
  1814                           
  1815 ;; *************** function _display *****************
  1816 ;; Defined at:
  1817 ;;		line 38 in file "E:\KTU\Softwares\MP lab\Mobileinterface\mobileinterface.c"
  1818 ;; Parameters:    Size  Location     Type
  1819 ;;  data            1    wreg     unsigned char 
  1820 ;; Auto vars:     Size  Location     Type
  1821 ;;  data            1    2[COMMON] unsigned char 
  1822 ;; Return value:  Size  Location     Type
  1823 ;;		None               void
  1824 ;; Registers used:
  1825 ;;		wreg, status,2, status,0, pclath, cstack
  1826 ;; Tracked objects:
  1827 ;;		On entry : 0/0
  1828 ;;		On exit  : 0/0
  1829 ;;		Unchanged: 0/0
  1830 ;; Data sizes:     COMMON   BANK0   BANK1   BANK3   BANK2
  1831 ;;      Params:         0       0       0       0       0
  1832 ;;      Locals:         1       0       0       0       0
  1833 ;;      Temps:          0       0       0       0       0
  1834 ;;      Totals:         1       0       0       0       0
  1835 ;;Total ram usage:        1 bytes
  1836 ;; Hardware stack levels used:    1
  1837 ;; Hardware stack levels required when called:    2
  1838 ;; This function calls:
  1839 ;;		_pulse
  1840 ;; This function is called by:
  1841 ;;		_main
  1842 ;; This function uses a non-reentrant model
  1843 ;;
  1844                           psect	text193
  1845                           	file	"E:\KTU\Softwares\MP lab\Mobileinterface\mobileinterface.c"
  1846                           	line	38
  1847                           	global	__size_of_display
  1848  000D                     	__size_of_display	equ	__end_of_display-_display
  1849                           	
  1850  0477                     _display:	
  1851                           	opt	stack 5
  1852                           ; Regs used in _display: [wreg+status,2+status,0+pclath+cstack]
  1853                           ;display@data stored from wreg
  1854  0477  00F2               	movwf	(display@data)
  1855                           	line	39
  1856                           	
  1857  0478                     l2532:	
  1858                           ;mobileinterface.c: 39: RD0=1;
  1859  0478  1283               	bcf	status, 5	;RP0=0, select bank0
  1860  0479  1303               	bcf	status, 6	;RP1=0, select bank0
  1861  047A  1408               	bsf	(64/8),(64)&7
  1862                           	line	40
  1863                           ;mobileinterface.c: 40: RD1=0;
  1864  047B  1088               	bcf	(65/8),(65)&7
  1865                           	line	41
  1866                           	
  1867  047C                     l2534:	
  1868                           ;mobileinterface.c: 41: PORTC=data;
  1869  047C  0872               	movf	(display@data),w
  1870  047D  0087               	movwf	(7)	;volatile
  1871                           	line	42
  1872                           	
  1873  047E                     l2536:	
  1874                           ;mobileinterface.c: 42: pulse();
  1875  047E  120A  118A  24A9   	fcall	_pulse
              120A  118A         
  1876                           	line	43
  1877                           	
  1878  0483                     l1043:	
  1879  0483  0008               	return
  1880                           	opt stack 0
  1881                           GLOBAL	__end_of_display
  1882  0484                     	__end_of_display:
  1883 ;; =============== function _display ends ============
  1884                           
  1885                           	signat	_display,4216
  1886                           	global	_address
  1887                           psect	text194,local,class=CODE,delta=2
  1888                           global __ptext194
  1889  046A                     __ptext194:
  1890                           
  1891 ;; *************** function _address *****************
  1892 ;; Defined at:
  1893 ;;		line 31 in file "E:\KTU\Softwares\MP lab\Mobileinterface\mobileinterface.c"
  1894 ;; Parameters:    Size  Location     Type
  1895 ;;  data            1    wreg     unsigned char 
  1896 ;; Auto vars:     Size  Location     Type
  1897 ;;  data            1    2[COMMON] unsigned char 
  1898 ;; Return value:  Size  Location     Type
  1899 ;;		None               void
  1900 ;; Registers used:
  1901 ;;		wreg, status,2, status,0, pclath, cstack
  1902 ;; Tracked objects:
  1903 ;;		On entry : 0/0
  1904 ;;		On exit  : 0/0
  1905 ;;		Unchanged: 0/0
  1906 ;; Data sizes:     COMMON   BANK0   BANK1   BANK3   BANK2
  1907 ;;      Params:         0       0       0       0       0
  1908 ;;      Locals:         1       0       0       0       0
  1909 ;;      Temps:          0       0       0       0       0
  1910 ;;      Totals:         1       0       0       0       0
  1911 ;;Total ram usage:        1 bytes
  1912 ;; Hardware stack levels used:    1
  1913 ;; Hardware stack levels required when called:    2
  1914 ;; This function calls:
  1915 ;;		_pulse
  1916 ;; This function is called by:
  1917 ;;		_main
  1918 ;; This function uses a non-reentrant model
  1919 ;;
  1920                           psect	text194
  1921                           	file	"E:\KTU\Softwares\MP lab\Mobileinterface\mobileinterface.c"
  1922                           	line	31
  1923                           	global	__size_of_address
  1924  000D                     	__size_of_address	equ	__end_of_address-_address
  1925                           	
  1926  046A                     _address:	
  1927                           	opt	stack 5
  1928                           ; Regs used in _address: [wreg+status,2+status,0+pclath+cstack]
  1929                           ;address@data stored from wreg
  1930  046A  00F2               	movwf	(address@data)
  1931                           	line	32
  1932                           	
  1933  046B                     l2526:	
  1934                           ;mobileinterface.c: 32: RD0=0;
  1935  046B  1283               	bcf	status, 5	;RP0=0, select bank0
  1936  046C  1303               	bcf	status, 6	;RP1=0, select bank0
  1937  046D  1008               	bcf	(64/8),(64)&7
  1938                           	line	33
  1939                           ;mobileinterface.c: 33: RD1=0;
  1940  046E  1088               	bcf	(65/8),(65)&7
  1941                           	line	34
  1942                           	
  1943  046F                     l2528:	
  1944                           ;mobileinterface.c: 34: PORTC=data;
  1945  046F  0872               	movf	(address@data),w
  1946  0470  0087               	movwf	(7)	;volatile
  1947                           	line	35
  1948                           	
  1949  0471                     l2530:	
  1950                           ;mobileinterface.c: 35: pulse();
  1951  0471  120A  118A  24A9   	fcall	_pulse
              120A  118A         
  1952                           	line	36
  1953                           	
  1954  0476                     l1040:	
  1955  0476  0008               	return
  1956                           	opt stack 0
  1957                           GLOBAL	__end_of_address
  1958  0477                     	__end_of_address:
  1959 ;; =============== function _address ends ============
  1960                           
  1961                           	signat	_address,4216
  1962                           	global	_type
  1963                           psect	text195,local,class=CODE,delta=2
  1964                           global __ptext195
  1965  045E                     __ptext195:
  1966                           
  1967 ;; *************** function _type *****************
  1968 ;; Defined at:
  1969 ;;		line 24 in file "E:\KTU\Softwares\MP lab\Mobileinterface\mobileinterface.c"
  1970 ;; Parameters:    Size  Location     Type
  1971 ;;		None
  1972 ;; Auto vars:     Size  Location     Type
  1973 ;;		None
  1974 ;; Return value:  Size  Location     Type
  1975 ;;		None               void
  1976 ;; Registers used:
  1977 ;;		wreg, status,2, status,0, pclath, cstack
  1978 ;; Tracked objects:
  1979 ;;		On entry : 0/0
  1980 ;;		On exit  : 0/0
  1981 ;;		Unchanged: 0/0
  1982 ;; Data sizes:     COMMON   BANK0   BANK1   BANK3   BANK2
  1983 ;;      Params:         0       0       0       0       0
  1984 ;;      Locals:         0       0       0       0       0
  1985 ;;      Temps:          0       0       0       0       0
  1986 ;;      Totals:         0       0       0       0       0
  1987 ;;Total ram usage:        0 bytes
  1988 ;; Hardware stack levels used:    1
  1989 ;; Hardware stack levels required when called:    2
  1990 ;; This function calls:
  1991 ;;		_pulse
  1992 ;; This function is called by:
  1993 ;;		_main
  1994 ;; This function uses a non-reentrant model
  1995 ;;
  1996                           psect	text195
  1997                           	file	"E:\KTU\Softwares\MP lab\Mobileinterface\mobileinterface.c"
  1998                           	line	24
  1999                           	global	__size_of_type
  2000  000C                     	__size_of_type	equ	__end_of_type-_type
  2001                           	
  2002  045E                     _type:	
  2003                           	opt	stack 5
  2004                           ; Regs used in _type: [wreg+status,2+status,0+pclath+cstack]
  2005                           	line	25
  2006                           	
  2007  045E                     l2520:	
  2008                           ;mobileinterface.c: 25: RD0=0;
  2009  045E  1283               	bcf	status, 5	;RP0=0, select bank0
  2010  045F  1303               	bcf	status, 6	;RP1=0, select bank0
  2011  0460  1008               	bcf	(64/8),(64)&7
  2012                           	line	26
  2013                           ;mobileinterface.c: 26: RD1=0;
  2014  0461  1088               	bcf	(65/8),(65)&7
  2015                           	line	27
  2016                           	
  2017  0462                     l2522:	
  2018                           ;mobileinterface.c: 27: PORTC=0X38;
  2019  0462  3038               	movlw	(038h)
  2020  0463  0087               	movwf	(7)	;volatile
  2021                           	line	28
  2022                           	
  2023  0464                     l2524:	
  2024                           ;mobileinterface.c: 28: pulse();
  2025  0464  120A  118A  24A9   	fcall	_pulse
              120A  118A         
  2026                           	line	29
  2027                           	
  2028  0469                     l1037:	
  2029  0469  0008               	return
  2030                           	opt stack 0
  2031                           GLOBAL	__end_of_type
  2032  046A                     	__end_of_type:
  2033 ;; =============== function _type ends ============
  2034                           
  2035                           	signat	_type,88
  2036                           	global	_on
  2037                           psect	text196,local,class=CODE,delta=2
  2038                           global __ptext196
  2039  0452                     __ptext196:
  2040                           
  2041 ;; *************** function _on *****************
  2042 ;; Defined at:
  2043 ;;		line 17 in file "E:\KTU\Softwares\MP lab\Mobileinterface\mobileinterface.c"
  2044 ;; Parameters:    Size  Location     Type
  2045 ;;		None
  2046 ;; Auto vars:     Size  Location     Type
  2047 ;;		None
  2048 ;; Return value:  Size  Location     Type
  2049 ;;		None               void
  2050 ;; Registers used:
  2051 ;;		wreg, status,2, status,0, pclath, cstack
  2052 ;; Tracked objects:
  2053 ;;		On entry : 0/0
  2054 ;;		On exit  : 0/0
  2055 ;;		Unchanged: 0/0
  2056 ;; Data sizes:     COMMON   BANK0   BANK1   BANK3   BANK2
  2057 ;;      Params:         0       0       0       0       0
  2058 ;;      Locals:         0       0       0       0       0
  2059 ;;      Temps:          0       0       0       0       0
  2060 ;;      Totals:         0       0       0       0       0
  2061 ;;Total ram usage:        0 bytes
  2062 ;; Hardware stack levels used:    1
  2063 ;; Hardware stack levels required when called:    2
  2064 ;; This function calls:
  2065 ;;		_pulse
  2066 ;; This function is called by:
  2067 ;;		_main
  2068 ;; This function uses a non-reentrant model
  2069 ;;
  2070                           psect	text196
  2071                           	file	"E:\KTU\Softwares\MP lab\Mobileinterface\mobileinterface.c"
  2072                           	line	17
  2073                           	global	__size_of_on
  2074  000C                     	__size_of_on	equ	__end_of_on-_on
  2075                           	
  2076  0452                     _on:	
  2077                           	opt	stack 5
  2078                           ; Regs used in _on: [wreg+status,2+status,0+pclath+cstack]
  2079                           	line	18
  2080                           	
  2081  0452                     l2514:	
  2082                           ;mobileinterface.c: 18: RD0=0;
  2083  0452  1283               	bcf	status, 5	;RP0=0, select bank0
  2084  0453  1303               	bcf	status, 6	;RP1=0, select bank0
  2085  0454  1008               	bcf	(64/8),(64)&7
  2086                           	line	19
  2087                           ;mobileinterface.c: 19: RD1=0;
  2088  0455  1088               	bcf	(65/8),(65)&7
  2089                           	line	20
  2090                           	
  2091  0456                     l2516:	
  2092                           ;mobileinterface.c: 20: PORTC=0X0E;
  2093  0456  300E               	movlw	(0Eh)
  2094  0457  0087               	movwf	(7)	;volatile
  2095                           	line	21
  2096                           	
  2097  0458                     l2518:	
  2098                           ;mobileinterface.c: 21: pulse();
  2099  0458  120A  118A  24A9   	fcall	_pulse
              120A  118A         
  2100                           	line	22
  2101                           	
  2102  045D                     l1034:	
  2103  045D  0008               	return
  2104                           	opt stack 0
  2105                           GLOBAL	__end_of_on
  2106  045E                     	__end_of_on:
  2107 ;; =============== function _on ends ============
  2108                           
  2109                           	signat	_on,88
  2110                           	global	_pulse
  2111                           psect	text197,local,class=CODE,delta=2
  2112                           global __ptext197
  2113  04A9                     __ptext197:
  2114                           
  2115 ;; *************** function _pulse *****************
  2116 ;; Defined at:
  2117 ;;		line 10 in file "E:\KTU\Softwares\MP lab\Mobileinterface\mobileinterface.c"
  2118 ;; Parameters:    Size  Location     Type
  2119 ;;		None
  2120 ;; Auto vars:     Size  Location     Type
  2121 ;;		None
  2122 ;; Return value:  Size  Location     Type
  2123 ;;		None               void
  2124 ;; Registers used:
  2125 ;;		wreg, status,2, status,0, pclath, cstack
  2126 ;; Tracked objects:
  2127 ;;		On entry : 0/0
  2128 ;;		On exit  : 0/0
  2129 ;;		Unchanged: 0/0
  2130 ;; Data sizes:     COMMON   BANK0   BANK1   BANK3   BANK2
  2131 ;;      Params:         0       0       0       0       0
  2132 ;;      Locals:         0       0       0       0       0
  2133 ;;      Temps:          0       0       0       0       0
  2134 ;;      Totals:         0       0       0       0       0
  2135 ;;Total ram usage:        0 bytes
  2136 ;; Hardware stack levels used:    1
  2137 ;; Hardware stack levels required when called:    1
  2138 ;; This function calls:
  2139 ;;		_delay
  2140 ;; This function is called by:
  2141 ;;		_on
  2142 ;;		_type
  2143 ;;		_address
  2144 ;;		_display
  2145 ;; This function uses a non-reentrant model
  2146 ;;
  2147                           psect	text197
  2148                           	file	"E:\KTU\Softwares\MP lab\Mobileinterface\mobileinterface.c"
  2149                           	line	10
  2150                           	global	__size_of_pulse
  2151  0019                     	__size_of_pulse	equ	__end_of_pulse-_pulse
  2152                           	
  2153  04A9                     _pulse:	
  2154                           	opt	stack 5
  2155                           ; Regs used in _pulse: [wreg+status,2+status,0+pclath+cstack]
  2156                           	line	11
  2157                           	
  2158  04A9                     l2508:	
  2159                           ;mobileinterface.c: 11: RD2=1;
  2160  04A9  1283               	bcf	status, 5	;RP0=0, select bank0
  2161  04AA  1303               	bcf	status, 6	;RP1=0, select bank0
  2162  04AB  1508               	bsf	(66/8),(66)&7
  2163                           	line	12
  2164                           	
  2165  04AC                     l2510:	
  2166                           ;mobileinterface.c: 12: delay(100);
  2167  04AC  3064               	movlw	low(064h)
  2168  04AD  00F0               	movwf	(?_delay)
  2169  04AE  3000               	movlw	high(064h)
  2170  04AF  00F1               	movwf	((?_delay))+1
  2171  04B0  120A  118A  2495   	fcall	_delay
              120A  118A         
  2172                           	line	13
  2173                           	
  2174  04B5                     l2512:	
  2175                           ;mobileinterface.c: 13: RD2=0;
  2176  04B5  1283               	bcf	status, 5	;RP0=0, select bank0
  2177  04B6  1303               	bcf	status, 6	;RP1=0, select bank0
  2178  04B7  1108               	bcf	(66/8),(66)&7
  2179                           	line	14
  2180                           ;mobileinterface.c: 14: delay(100);
  2181  04B8  3064               	movlw	low(064h)
  2182  04B9  00F0               	movwf	(?_delay)
  2183  04BA  3000               	movlw	high(064h)
  2184  04BB  00F1               	movwf	((?_delay))+1
  2185  04BC  120A  118A  2495   	fcall	_delay
              120A  118A         
  2186                           	line	15
  2187                           	
  2188  04C1                     l1031:	
  2189  04C1  0008               	return
  2190                           	opt stack 0
  2191                           GLOBAL	__end_of_pulse
  2192  04C2                     	__end_of_pulse:
  2193 ;; =============== function _pulse ends ============
  2194                           
  2195                           	signat	_pulse,88
  2196                           	global	_delay
  2197                           psect	text198,local,class=CODE,delta=2
  2198                           global __ptext198
  2199  0495                     __ptext198:
  2200                           
  2201 ;; *************** function _delay *****************
  2202 ;; Defined at:
  2203 ;;		line 6 in file "E:\KTU\Softwares\MP lab\Mobileinterface\mobileinterface.c"
  2204 ;; Parameters:    Size  Location     Type
  2205 ;;  del             2    0[COMMON] int 
  2206 ;; Auto vars:     Size  Location     Type
  2207 ;;		None
  2208 ;; Return value:  Size  Location     Type
  2209 ;;		None               void
  2210 ;; Registers used:
  2211 ;;		wreg
  2212 ;; Tracked objects:
  2213 ;;		On entry : 0/0
  2214 ;;		On exit  : 0/0
  2215 ;;		Unchanged: 0/0
  2216 ;; Data sizes:     COMMON   BANK0   BANK1   BANK3   BANK2
  2217 ;;      Params:         2       0       0       0       0
  2218 ;;      Locals:         0       0       0       0       0
  2219 ;;      Temps:          0       0       0       0       0
  2220 ;;      Totals:         2       0       0       0       0
  2221 ;;Total ram usage:        2 bytes
  2222 ;; Hardware stack levels used:    1
  2223 ;; This function calls:
  2224 ;;		Nothing
  2225 ;; This function is called by:
  2226 ;;		_pulse
  2227 ;; This function uses a non-reentrant model
  2228 ;;
  2229                           psect	text198
  2230                           	file	"E:\KTU\Softwares\MP lab\Mobileinterface\mobileinterface.c"
  2231                           	line	6
  2232                           	global	__size_of_delay
  2233  0014                     	__size_of_delay	equ	__end_of_delay-_delay
  2234                           	
  2235  0495                     _delay:	
  2236                           	opt	stack 5
  2237                           ; Regs used in _delay: [wreg]
  2238                           	line	7
  2239                           	
  2240  0495                     l2504:	
  2241                           ;mobileinterface.c: 7: while(del--);
  2242  0495  2C97               	goto	l2506
  2243                           	
  2244  0496                     l1026:	
  2245  0496  2C97               	goto	l2506
  2246                           	
  2247  0497                     l1025:	
  2248                           	
  2249  0497                     l2506:	
  2250  0497  30FF               	movlw	low(-1)
  2251  0498  07F0               	addwf	(delay@del),f
  2252  0499  1803               	skipnc
  2253  049A  0AF1               	incf	(delay@del+1),f
  2254  049B  30FF               	movlw	high(-1)
  2255  049C  07F1               	addwf	(delay@del+1),f
  2256  049D  30FF               	movlw	high(-1)
  2257  049E  0671               	xorwf	((delay@del+1)),w
  2258  049F  1D03               	skipz
  2259  04A0  2CA3               	goto	u2475
  2260  04A1  30FF               	movlw	low(-1)
  2261  04A2  0670               	xorwf	((delay@del)),w
  2262  04A3                     u2475:
  2263                           
  2264  04A3  1D03               	skipz
  2265  04A4  2CA6               	goto	u2471
  2266  04A5  2CA7               	goto	u2470
  2267  04A6                     u2471:
  2268  04A6  2C97               	goto	l2506
  2269  04A7                     u2470:
  2270  04A7  2CA8               	goto	l1028
  2271                           	
  2272  04A8                     l1027:	
  2273                           	line	8
  2274                           	
  2275  04A8                     l1028:	
  2276  04A8  0008               	return
  2277                           	opt stack 0
  2278                           GLOBAL	__end_of_delay
  2279  04A9                     	__end_of_delay:
  2280 ;; =============== function _delay ends ============
  2281                           
  2282                           	signat	_delay,4216
  2283                           psect	text199,local,class=CODE,delta=2
  2284                           global __ptext199
  2285  0000                     __ptext199:
  2286                           	global	btemp
  2287  007E                     	btemp set 07Eh
  2288                           
  2289                           	DABS	1,126,2	;btemp
  2290                           	global	wtemp0
  2291  007E                     	wtemp0 set btemp


HI-TECH Software PICC Macro Assembler V9.81 build 7503 
Symbol Table                                                                                   Thu May 27 20:00:57 2021

                   pc 0002                    _on 0452                    fsr 0004                   ?_on 0070  
                 _RA0 0028                   _RA1 0029                   _RB0 0030                   _RA2 002A  
                 _RB1 0031                   _RB2 0032                   _RB3 0033                   _RD0 0040  
                 _RD1 0041                   _RD2 0042                   fsr0 0004                   indf 0000  
                ??_on 0072                  l1100 076F                  l1101 0795                  l1110 07EF  
                l1102 07C5                  l1031 04C1                  l1111 07D3                  l1103 079C  
                l1040 0476                  l1112 07F9                  l1104 079C                  l1025 0497  
                l1113 07FC                  l1105 07A1                  l1026 0496                  l1034 045D  
                l1114 07FD                  l1106 07FA                  l1027 04A8                  l1043 0483  
                l1115 07FD                  l1107 07CB                  l1028 04A8                  l1108 07CB  
                l1060 05B2                  l1052 0570                  l1037 0469                  l1053 07FB  
                l1109 07D0                  l1061 05B7                  l1070 066C                  l1062 060A  
                l1054 05AC                  l1071 0643                  l1063 05E1                  l1055 0583  
                l1080 06A5                  l1072 0643                  l1064 05E1                  l1056 0583  
                l1081 06AA                  l1073 0648                  l1065 05E6                  l1057 0588  
                l1090 0796                  l1082 06FD                  l1074 069B                  l1066 063D  
                l1058 05DB                  l1091 0736                  l1083 06D4                  l1075 0672  
                l1067 0614                  l1059 05B2                  l1092 0736                  l1084 06D4  
                l1076 0672                  l1068 0614                  l1093 073B                  l1085 06D9  
                l1077 0677                  l1069 0619                  l1094 076C                  l1086 072C  
                l1078 06CE                  l1095 0761                  l1087 0703                  l1079 06A5  
                l1096 0745                  l1088 0703                  l1097 076B                  l1089 0708  
                l1098 0796                  l1099 078B                  l2510 04AC                  l2504 0495  
                l2512 04B5                  l2520 045E                  l2600 05DB                  l2506 0497  
                l2514 0452                  l2522 0462                  l2530 0471                  l2610 0601  
                l2602 05E0                  l2508 04A9                  l2516 0456                  l2524 0464  
                l2532 0478                  l2700 072C                  l2620 060E                  l2604 05E6  
                l2612 060A                  l2540 0502                  l2518 0458                  l2526 046B  
                l2534 047C                  l2710 0735                  l2702 072D                  l2630 0634  
                l2622 0613                  l2614 060B                  l2606 05EE                  l2550 0512  
                l2542 0506                  l2528 046F                  l2536 047E                  l2720 0758  
                l2712 073B                  l2704 072E                  l2640 0657                  l2624 0619  
                l2632 063D                  l2616 060C                  l2608 05F5                  l2560 0531  
                l2552 0515                  l2544 0509                  l2730 0782                  l2722 0761  
                l2714 0742                  l2706 072F                  l2650 067F                  l2642 0663  
                l2634 0642                  l2626 0621                  l2618 060D                  l2570 0565  
                l2562 0546                  l2554 0518                  l2546 050C                  l2538 04FF  
                l2740 07B0                  l2732 078B                  l2716 0745                  l2724 076C  
                l2708 0730                  l2660 069D                  l2652 0686                  l2636 0648  
                l2644 066C                  l2628 0628                  l2580 0588                  l2572 056A  
                l2564 055B                  l2556 051B                  l2548 050F                  l2750 07D3  
                l2742 07BC                  l2734 079B                  l2726 076F                  l2718 074C  
                l2670 06B2                  l2662 069E                  l2654 0692                  l2646 0671  
                l2638 0650                  l2590 05B1                  l2582 0590                  l2574 0570  
                l2566 055F                  l2558 051C                  l2752 07DA                  l2736 07A1  
                l2744 07C5                  l2728 0776                  l2680 06D9                  l2672 06B9  
                l2664 069F                  l2648 0677                  l2656 069B                  l2592 05B7  
                l2584 0597                  l2576 0579                  l2568 0561                  l2754 07E6  
                l2746 07CA                  l2738 07A9                  l2690 0702                  l2682 06E1  
                l2674 06C5                  l2666 06A4                  l2658 069C                  l2594 05BF  
                l2586 05A3                  l2578 0582                  l2756 07EF                  l2748 07D0  
                l2692 0708                  l2684 06E8                  l2668 06AA                  l2676 06CE  
                l2596 05C6                  l2588 05AC                  l2694 0710                  l2686 06F4  
                l2678 06D3                  l2598 05D2                  l2696 0717                  l2688 06FD  
                l2698 0723           main@control 0048                  u2500 054E                  u2510 0579  
                u2511 0578                  u2600 0641                  u2520 0581                  u2601 0640  
                u2521 0580                  u2610 0647                  u2530 0587                  u2611 0646  
                u2531 0586                  u2700 0734                  u2620 0670                  u2540 05B0  
                u2701 0733                  u2621 066F                  u2541 05AF                  u2470 04A7  
                u2710 073A                  u2630 0676                  u2550 05B6                  u2471 04A6  
                u2711 0739                  u2631 0675                  u2551 05B5                  u2720 0742  
                u2640 06A3                  u2560 05DF                  u2480 0524                  u2721 0741  
                u2641 06A2                  u2561 05DE                  u2730 076A                  u2650 06A9  
                u2570 05E5                  u2490 0539                  u2475 04A3                  u2731 0769  
                u2651 06A8                  u2571 05E4                  u2740 0794                  u2660 06D2  
                u2580 0612                  u2741 0793                  u2661 06D1                  u2581 0611  
                u2750 079A                  u2670 06D8                  u2590 0618                  u2751 0799  
                u2671 06D7                  u2591 0617                  u2760 07A0                  u2680 0701  
                u2761 079F                  u2681 0700                  u2770 07C9                  u2690 0707  
                u2771 07C8                  u2691 0706                  u2780 07CF                  u2781 07CE  
                u2790 07F8                  u2791 07F7           display@data 0072                  _main 04FF  
                btemp 007E                  _type 045E                  start 0000                 ?_main 0070  
               _ANSEL 0188                 ?_type 0070       __end_of_address 0477                 _PORTA 0005  
               _PORTB 0006                 _PORTC 0007                 _PORTD 0008                 _TRISA 0085  
               _TRISB 0086                 _TRISC 0087                 _TRISD 0088       __end_of_display 0484  
               _delay 0495                 _pulse 04A9                 main@i 0054                 main@j 0056  
               pclath 000A                 status 0003                 wtemp0 007E          __end_of_main 0800  
        __end_of_type 046A                ??_main 0073                ??_type 0072                ?_delay 0070  
              ?_pulse 0070                _ANSELH 0189             ??_address 0072             ??_display 0072  
      __pcstackCOMMON 0070          __pidataBANK0 0448          __pidataBANK1 04C2         __end_of_delay 04A9  
       __end_of_pulse 04C2            __end_of_on 045E               ??_delay 0072               ??_pulse 0072  
          __pmaintext 04FF               _address 046A               _display 0477  end_of_initialization 04FB  
             init_ram 0488            main@number 004A   start_initialization 04E0           __pdataBANK0 0058  
         __pdataBANK1 00A0         __pcstackBANK0 0020             __ptext193 0477             __ptext194 046A  
           __ptext195 045E             __ptext196 0452             __ptext197 04A9             __ptext198 0495  
           __ptext199 0000              ?_address 0070              ?_display 0070        __size_of_delay 0014  
      __size_of_pulse 0019           __size_of_on 000C             main@F1610 0058             main@F1612 00A0  
           main@F1614 00AF           address@data 0072             main@wrong 0020             init_fetch 0484  
    __size_of_address 000D      __size_of_display 000D         __size_of_main 0301         __size_of_type 000C  
            delay@del 0070              main@hang 002F              main@ring 003E  
