opt subtitle "HI-TECH Software Omniscient Code Generator (Lite mode) build 7503"

opt pagewidth 120

	opt lm

	processor	16F887
clrc	macro
	bcf	3,0
	endm
clrz	macro
	bcf	3,2
	endm
setc	macro
	bsf	3,0
	endm
setz	macro
	bsf	3,2
	endm
skipc	macro
	btfss	3,0
	endm
skipz	macro
	btfss	3,2
	endm
skipnc	macro
	btfsc	3,0
	endm
skipnz	macro
	btfsc	3,2
	endm
indf	equ	0
indf0	equ	0
pc	equ	2
pcl	equ	2
status	equ	3
fsr	equ	4
fsr0	equ	4
c	equ	1
z	equ	0
pclath	equ	10
# 3 "E:\KTU\Softwares\MP lab\UART\UART transmit\Uart transmit.c"
	psect config,class=CONFIG,delta=2 ;#
# 3 "E:\KTU\Softwares\MP lab\UART\UART transmit\Uart transmit.c"
	dw 0X2CE4 ;#
	FNCALL	_main,_tx
	FNROOT	_main
	global	_PORTC
psect	text60,local,class=CODE,delta=2
global __ptext60
__ptext60:
_PORTC	set	7
	global	_RCSTA
_RCSTA	set	24
	global	_TXREG
_TXREG	set	25
	global	_TXIF
_TXIF	set	100
	global	_SPBRG
_SPBRG	set	153
	global	_TRISC
_TRISC	set	135
	global	_TXSTA
_TXSTA	set	152
	global	_ANSEL
_ANSEL	set	392
	global	_ANSELH
_ANSELH	set	393
	file	"Uart transmit.as"
	line	#
psect cinit,class=CODE,delta=2
global start_initialization
start_initialization:

psect cinit,class=CODE,delta=2
global end_of_initialization

;End of C runtime variable initialization code

end_of_initialization:
clrf status
ljmp _main	;jump to C main() function
psect	cstackCOMMON,class=COMMON,space=1
global __pcstackCOMMON
__pcstackCOMMON:
	global	?_tx
?_tx:	; 0 bytes @ 0x0
	global	??_tx
??_tx:	; 0 bytes @ 0x0
	global	?_main
?_main:	; 0 bytes @ 0x0
	global	tx@p
tx@p:	; 1 bytes @ 0x0
	ds	1
	global	??_main
??_main:	; 0 bytes @ 0x1
	ds	3
;;Data sizes: Strings 0, constant 0, data 0, bss 0, persistent 0 stack 0
;;Auto spaces:   Size  Autos    Used
;; COMMON          14      4       4
;; BANK0           80      0       0
;; BANK1           80      0       0
;; BANK3           96      0       0
;; BANK2           96      0       0

;;
;; Pointer list with targets:



;;
;; Critical Paths under _main in COMMON
;;
;;   _main->_tx
;;
;; Critical Paths under _main in BANK0
;;
;;   None.
;;
;; Critical Paths under _main in BANK1
;;
;;   None.
;;
;; Critical Paths under _main in BANK3
;;
;;   None.
;;
;; Critical Paths under _main in BANK2
;;
;;   None.

;;
;;Main: autosize = 0, tempsize = 3, incstack = 0, save=0
;;

;;
;;Call Graph Tables:
;;
;; ---------------------------------------------------------------------------------
;; (Depth) Function   	        Calls       Base Space   Used Autos Params    Refs
;; ---------------------------------------------------------------------------------
;; (0) _main                                                 3     3      0      15
;;                                              1 COMMON     3     3      0
;;                                 _tx
;; ---------------------------------------------------------------------------------
;; (1) _tx                                                   1     1      0      15
;;                                              0 COMMON     1     1      0
;; ---------------------------------------------------------------------------------
;; Estimated maximum stack depth 1
;; ---------------------------------------------------------------------------------

;; Call Graph Graphs:

;; _main (ROOT)
;;   _tx
;;

;; Address spaces:

;;Name               Size   Autos  Total    Cost      Usage
;;BITCOMMON            E      0       0       0        0.0%
;;EEDATA             100      0       0       0        0.0%
;;NULL                 0      0       0       0        0.0%
;;CODE                 0      0       0       0        0.0%
;;COMMON               E      4       4       1       28.6%
;;BITSFR0              0      0       0       1        0.0%
;;SFR0                 0      0       0       1        0.0%
;;BITSFR1              0      0       0       2        0.0%
;;SFR1                 0      0       0       2        0.0%
;;STACK                0      0       1       2        0.0%
;;ABS                  0      0       0       3        0.0%
;;BITBANK0            50      0       0       4        0.0%
;;BITSFR3              0      0       0       4        0.0%
;;SFR3                 0      0       0       4        0.0%
;;BANK0               50      0       0       5        0.0%
;;BITSFR2              0      0       0       5        0.0%
;;SFR2                 0      0       0       5        0.0%
;;BITBANK1            50      0       0       6        0.0%
;;BANK1               50      0       0       7        0.0%
;;BITBANK3            60      0       0       8        0.0%
;;BANK3               60      0       0       9        0.0%
;;BITBANK2            60      0       0      10        0.0%
;;BANK2               60      0       0      11        0.0%
;;DATA                 0      0       0      12        0.0%

	global	_main
psect	maintext,global,class=CODE,delta=2
global __pmaintext
__pmaintext:

;; *************** function _main *****************
;; Defined at:
;;		line 11 in file "E:\KTU\Softwares\MP lab\UART\UART transmit\Uart transmit.c"
;; Parameters:    Size  Location     Type
;;		None
;; Auto vars:     Size  Location     Type
;;		None
;; Return value:  Size  Location     Type
;;		None               void
;; Registers used:
;;		wreg, status,2, status,0, pclath, cstack
;; Tracked objects:
;;		On entry : 17F/0
;;		On exit  : 0/0
;;		Unchanged: 0/0
;; Data sizes:     COMMON   BANK0   BANK1   BANK3   BANK2
;;      Params:         0       0       0       0       0
;;      Locals:         0       0       0       0       0
;;      Temps:          3       0       0       0       0
;;      Totals:         3       0       0       0       0
;;Total ram usage:        3 bytes
;; Hardware stack levels required when called:    1
;; This function calls:
;;		_tx
;; This function is called by:
;;		Startup code after reset
;; This function uses a non-reentrant model
;;
psect	maintext
	file	"E:\KTU\Softwares\MP lab\UART\UART transmit\Uart transmit.c"
	line	11
	global	__size_of_main
	__size_of_main	equ	__end_of_main-_main
	
_main:	
	opt	stack 7
; Regs used in _main: [wreg+status,2+status,0+pclath+cstack]
	line	13
	
l2173:	
;Uart transmit.c: 13: PORTC=0X00;
	bcf	status, 5	;RP0=0, select bank0
	bcf	status, 6	;RP1=0, select bank0
	clrf	(7)	;volatile
	line	14
	
l2175:	
;Uart transmit.c: 14: TRISC=0X80;
	movlw	(080h)
	bsf	status, 5	;RP0=1, select bank1
	bcf	status, 6	;RP1=0, select bank1
	movwf	(135)^080h	;volatile
	line	15
	
l2177:	
;Uart transmit.c: 15: ANSEL=0X00;
	bsf	status, 5	;RP0=1, select bank3
	bsf	status, 6	;RP1=1, select bank3
	clrf	(392)^0180h	;volatile
	line	16
	
l2179:	
;Uart transmit.c: 16: ANSELH=0X00;
	clrf	(393)^0180h	;volatile
	line	17
	
l2181:	
;Uart transmit.c: 17: TXSTA=0X26;
	movlw	(026h)
	bsf	status, 5	;RP0=1, select bank1
	bcf	status, 6	;RP1=0, select bank1
	movwf	(152)^080h	;volatile
	line	18
	
l2183:	
;Uart transmit.c: 18: RCSTA=0X90;
	movlw	(090h)
	bcf	status, 5	;RP0=0, select bank0
	bcf	status, 6	;RP1=0, select bank0
	movwf	(24)	;volatile
	line	19
	
l2185:	
;Uart transmit.c: 19: SPBRG=25;
	movlw	(019h)
	bsf	status, 5	;RP0=1, select bank1
	bcf	status, 6	;RP1=0, select bank1
	movwf	(153)^080h	;volatile
	goto	l2187
	line	20
;Uart transmit.c: 20: while(1)
	
l1033:	
	line	22
	
l2187:	
;Uart transmit.c: 21: {
;Uart transmit.c: 22: tx('A');
	movlw	(041h)
	fcall	_tx
	line	23
	
l2189:	
;Uart transmit.c: 23: _delay((unsigned long)((1000)*(4000000/4000.0)));
	opt asmopt_off
movlw  6
movwf	((??_main+0)+0+2),f
movlw	14
movwf	((??_main+0)+0+1),f
	movlw	176
movwf	((??_main+0)+0),f
u2157:
	decfsz	((??_main+0)+0),f
	goto	u2157
	decfsz	((??_main+0)+0+1),f
	goto	u2157
	decfsz	((??_main+0)+0+2),f
	goto	u2157
opt asmopt_on

	goto	l2187
	line	24
	
l1034:	
	line	20
	goto	l2187
	
l1035:	
	line	25
	
l1036:	
	global	start
	ljmp	start
	opt stack 0
GLOBAL	__end_of_main
	__end_of_main:
;; =============== function _main ends ============

	signat	_main,88
	global	_tx
psect	text61,local,class=CODE,delta=2
global __ptext61
__ptext61:

;; *************** function _tx *****************
;; Defined at:
;;		line 5 in file "E:\KTU\Softwares\MP lab\UART\UART transmit\Uart transmit.c"
;; Parameters:    Size  Location     Type
;;  p               1    wreg     unsigned char 
;; Auto vars:     Size  Location     Type
;;  p               1    0[COMMON] unsigned char 
;; Return value:  Size  Location     Type
;;		None               void
;; Registers used:
;;		wreg
;; Tracked objects:
;;		On entry : 0/0
;;		On exit  : 0/0
;;		Unchanged: 0/0
;; Data sizes:     COMMON   BANK0   BANK1   BANK3   BANK2
;;      Params:         0       0       0       0       0
;;      Locals:         1       0       0       0       0
;;      Temps:          0       0       0       0       0
;;      Totals:         1       0       0       0       0
;;Total ram usage:        1 bytes
;; Hardware stack levels used:    1
;; This function calls:
;;		Nothing
;; This function is called by:
;;		_main
;; This function uses a non-reentrant model
;;
psect	text61
	file	"E:\KTU\Softwares\MP lab\UART\UART transmit\Uart transmit.c"
	line	5
	global	__size_of_tx
	__size_of_tx	equ	__end_of_tx-_tx
	
_tx:	
	opt	stack 7
; Regs used in _tx: [wreg]
;tx@p stored from wreg
	movwf	(tx@p)
	line	6
	
l1405:	
;Uart transmit.c: 6: TXREG=p;
	movf	(tx@p),w
	bcf	status, 5	;RP0=0, select bank0
	bcf	status, 6	;RP1=0, select bank0
	movwf	(25)	;volatile
	line	7
;Uart transmit.c: 7: while(TXIF==0);
	goto	l1027
	
l1028:	
	
l1027:	
	btfss	(100/8),(100)&7
	goto	u11
	goto	u10
u11:
	goto	l1027
u10:
	
l1029:	
	line	8
;Uart transmit.c: 8: TXIF=0;
	bcf	(100/8),(100)&7
	line	9
	
l1030:	
	return
	opt stack 0
GLOBAL	__end_of_tx
	__end_of_tx:
;; =============== function _tx ends ============

	signat	_tx,4216
psect	text62,local,class=CODE,delta=2
global __ptext62
__ptext62:
	global	btemp
	btemp set 07Eh

	DABS	1,126,2	;btemp
	global	wtemp0
	wtemp0 set btemp
	end
