

HI-TECH Software PIC LITE Macro Assembler V9.81 build 7503 
                                                                                               Sun May 23 20:30:52 2021

HI-TECH Software Omniscient Code Generator (Lite mode) build 7503
     1  0000                     opt subtitle "HI-TECH Software Omniscient Code Generator (Lite mode) build 7503"
     2                           
     3                           opt pagewidth 120
     4                           
     5                           	opt lm
     6                           
     7                           	processor	16F887
     8                           clrc	macro
     9                           	bcf	3,0
    10  0000                     	endm
    11                           clrz	macro
    12                           	bcf	3,2
    13  0000                     	endm
    14                           setc	macro
    15                           	bsf	3,0
    16  0000                     	endm
    17                           setz	macro
    18                           	bsf	3,2
    19  0000                     	endm
    20                           skipc	macro
    21                           	btfss	3,0
    22  0000                     	endm
    23                           skipz	macro
    24                           	btfss	3,2
    25  0000                     	endm
    26                           skipnc	macro
    27                           	btfsc	3,0
    28  0000                     	endm
    29                           skipnz	macro
    30                           	btfsc	3,2
    31  0000                     	endm
    32  0000                     indf	equ	0
    33  0000                     indf0	equ	0
    34  0002                     pc	equ	2
    35  0002                     pcl	equ	2
    36  0003                     status	equ	3
    37  0004                     fsr	equ	4
    38  0004                     fsr0	equ	4
    39  0001                     c	equ	1
    40  0000                     z	equ	0
    41  000A                     pclath	equ	10
    42                           	FNROOT	_main
    43                           	global	main@F1601
    44                           psect	idataBANK1,class=CODE,space=0,delta=2
    45                           global __pidataBANK1
    46  0232                     __pidataBANK1:
    47                           	file	"E:\KTU\Softwares\mplab\Keypadpassword\keypadpassword.c"
    48                           	line	15
    49                           
    50                           ;initializer for main@F1601
    51  0232  34BF               	retlw	0BFh
    52  0233  3400               	retlw	0
    53                           
    54  0234  3406               	retlw	06h
    55  0235  3400               	retlw	0
    56                           
    57  0236  345B               	retlw	05Bh
    58  0237  3400               	retlw	0
    59                           
    60  0238  344F               	retlw	04Fh
    61  0239  3400               	retlw	0
    62                           
    63  023A  3466               	retlw	066h
    64  023B  3400               	retlw	0
    65                           
    66  023C  346D               	retlw	06Dh
    67  023D  3400               	retlw	0
    68                           
    69  023E  347C               	retlw	07Ch
    70  023F  3400               	retlw	0
    71                           
    72  0240  3407               	retlw	07h
    73  0241  3400               	retlw	0
    74                           
    75  0242  34FF               	retlw	0FFh
    76  0243  3400               	retlw	0
    77                           
    78  0244  34E7               	retlw	0E7h
    79  0245  3400               	retlw	0
    80                           
    81                           	global	main@F1603
    82                           	global	main@F1605
    83                           	global	_PORTA
    84  0005                     _PORTA	set	5
    85                           	global	_PORTB
    86  0006                     _PORTB	set	6
    87                           	global	_PORTC
    88  0007                     _PORTC	set	7
    89                           	global	_PORTD
    90  0008                     _PORTD	set	8
    91                           	global	_RA0
    92  0028                     _RA0	set	40
    93                           	global	_RA1
    94  0029                     _RA1	set	41
    95                           	global	_RA2
    96  002A                     _RA2	set	42
    97                           	global	_RA3
    98  002B                     _RA3	set	43
    99                           	global	_RA4
   100  002C                     _RA4	set	44
   101                           	global	_RB0
   102  0030                     _RB0	set	48
   103                           	global	_RB1
   104  0031                     _RB1	set	49
   105                           	global	_RB2
   106  0032                     _RB2	set	50
   107                           	global	_RB3
   108  0033                     _RB3	set	51
   109                           	global	_RD0
   110  0040                     _RD0	set	64
   111                           	global	_RD1
   112  0041                     _RD1	set	65
   113                           	global	_RD2
   114  0042                     _RD2	set	66
   115                           	global	_RD3
   116  0043                     _RD3	set	67
   117                           	global	_TRISA
   118  0085                     _TRISA	set	133
   119                           	global	_TRISB
   120  0086                     _TRISB	set	134
   121                           	global	_TRISC
   122  0087                     _TRISC	set	135
   123                           	global	_TRISD
   124  0088                     _TRISD	set	136
   125                           	global	_ANSEL
   126  0188                     _ANSEL	set	392
   127                           	global	_ANSELH
   128  0189                     _ANSELH	set	393
   129                           	file	"keypadpassword.as"
   130                           	line	#
   131                           psect cinit,class=CODE,delta=2
   132                           global start_initialization
   133  0246                     start_initialization:
   134                           
   135                           psect	bssBANK0,class=BANK0,space=1
   136                           global __pbssBANK0
   137  0056                     __pbssBANK0:
   138  0056                     main@F1603:
   139  0056                            ds      8
   140                           
   141  005E                     main@F1605:
   142  005E                            ds      8
   143                           
   144                           psect	dataBANK1,class=BANK1,space=1
   145                           global __pdataBANK1
   146  00A0                     __pdataBANK1:
   147                           	file	"E:\KTU\Softwares\mplab\Keypadpassword\keypadpassword.c"
   148  00A0                     main@F1601:
   149  00A0                            ds      20
   150                           
   151                           psect clrtext,class=CODE,delta=2
   152                           global clear_ram
   153                           ;	Called with FSR containing the base address, and
   154                           ;	W with the last address+1
   155  0219                     clear_ram:
   156  0219  0064               	clrwdt			;clear the watchdog before getting into this loop
   157  021A                     clrloop:
   158  021A  0180               	clrf	indf		;clear RAM location pointed to by FSR
   159  021B  0A84               	incf	fsr,f		;increment pointer
   160  021C  0604               	xorwf	fsr,w		;XOR with final address
   161  021D  1903               	btfsc	status,2	;have we reached the end yet?
   162  021E  3400               	retlw	0		;all done for this memory range, return
   163  021F  0604               	xorwf	fsr,w		;XOR again to restore value
   164  0220  2A1A               	goto	clrloop		;do the next byte
   165                           
   166                           ; Clear objects allocated to BANK0
   167                           psect cinit,class=CODE,delta=2
   168  0246  1383               	bcf	status, 7	;select IRP bank0
   169  0247  3056               	movlw	low(__pbssBANK0)
   170  0248  0084               	movwf	fsr
   171  0249  3066               	movlw	low((__pbssBANK0)+010h)
   172  024A  120A  118A  2219   	fcall	clear_ram
              120A  118A         
   173                           global btemp
   174                           psect inittext,class=CODE,delta=2
   175                           global init_fetch,btemp
   176                           ;	Called with low address in FSR and high address in W
   177  0221                     init_fetch:
   178  0221  087E               	movf btemp,w
   179  0222  008A               	movwf pclath
   180  0223  087F               	movf btemp+1,w
   181  0224  0082               	movwf pc
   182                           global init_ram
   183                           ;Called with:
   184                           ;	high address of idata address in btemp 
   185                           ;	low address of idata address in btemp+1 
   186                           ;	low address of data in FSR
   187                           ;	high address + 1 of data in btemp-1
   188  0225                     init_ram:
   189  0225  2221  120A  118A   	fcall init_fetch
   190  0228  0080               	movwf indf,f
   191  0229  0A84               	incf fsr,f
   192  022A  0804               	movf fsr,w
   193  022B  067D               	xorwf btemp-1,w
   194  022C  1903               	btfsc status,2
   195  022D  3400               	retlw 0
   196  022E  0AFF               	incf btemp+1,f
   197  022F  1903               	btfsc status,2
   198  0230  0AFE               	incf btemp,f
   199  0231  2A25               	goto init_ram
   200                           ; Initialize objects allocated to BANK1
   201                           psect cinit,class=CODE,delta=2
   202                           global init_ram, __pidataBANK1
   203  024F  30B4               	movlw low(__pdataBANK1+20)
   204  0250  00FD               	movwf btemp-1,f
   205  0251  3002               	movlw high(__pidataBANK1)
   206  0252  00FE               	movwf btemp,f
   207  0253  3032               	movlw low(__pidataBANK1)
   208  0254  00FF               	movwf btemp+1,f
   209  0255  30A0               	movlw low(__pdataBANK1)
   210  0256  0084               	movwf fsr,f
   211  0257  120A  118A  2225   	fcall init_ram
              120A  118A         
   212                           psect cinit,class=CODE,delta=2
   213                           global end_of_initialization
   214                           
   215                           ;End of C runtime variable initialization code
   216                           
   217  025C                     end_of_initialization:
   218  025C  0183               clrf status
   219  025D  120A  118A  2A60   ljmp _main	;jump to C main() function
   220                           psect	cstackCOMMON,class=COMMON,space=1
   221                           global __pcstackCOMMON
   222  0070                     __pcstackCOMMON:
   223                           	global	?_main
   224  0070                     ?_main:	; 0 bytes @ 0x0
   225                           	global	??_main
   226  0070                     ??_main:	; 0 bytes @ 0x0
   227  0070                     	ds	6
   228                           psect	cstackBANK0,class=BANK0,space=1
   229                           global __pcstackBANK0
   230  0020                     __pcstackBANK0:
   231                           	global	main@count1
   232  0020                     main@count1:	; 2 bytes @ 0x0
   233  0020                     	ds	2
   234                           	global	main@wrong
   235  0022                     main@wrong:	; 2 bytes @ 0x2
   236  0022                     	ds	2
   237                           	global	main@segment
   238  0024                     main@segment:	; 20 bytes @ 0x4
   239  0024                     	ds	20
   240                           	global	main@check
   241  0038                     main@check:	; 2 bytes @ 0x18
   242  0038                     	ds	2
   243                           	global	main@correct
   244  003A                     main@correct:	; 2 bytes @ 0x1A
   245  003A                     	ds	2
   246                           	global	main@control
   247  003C                     main@control:	; 2 bytes @ 0x1C
   248  003C                     	ds	2
   249                           	global	main@i
   250  003E                     main@i:	; 2 bytes @ 0x1E
   251  003E                     	ds	2
   252                           	global	main@arr
   253  0040                     main@arr:	; 8 bytes @ 0x20
   254  0040                     	ds	8
   255                           	global	main@mat
   256  0048                     main@mat:	; 8 bytes @ 0x28
   257  0048                     	ds	8
   258                           	global	main@temp
   259  0050                     main@temp:	; 2 bytes @ 0x30
   260  0050                     	ds	2
   261                           	global	main@dump
   262  0052                     main@dump:	; 2 bytes @ 0x32
   263  0052                     	ds	2
   264                           	global	main@count
   265  0054                     main@count:	; 2 bytes @ 0x34
   266  0054                     	ds	2
   267 ;;Data sizes: Strings 0, constant 0, data 20, bss 16, persistent 0 stack 0
   268 ;;Auto spaces:   Size  Autos    Used
   269 ;; COMMON          14      6       6
   270 ;; BANK0           80     54      70
   271 ;; BANK1           80      0      20
   272 ;; BANK3           96      0       0
   273 ;; BANK2           96      0       0
   274                           
   275 ;;
   276 ;; Pointer list with targets:
   277                           
   278                           
   279                           
   280 ;;
   281 ;; Critical Paths under _main in COMMON
   282 ;;
   283 ;;   None.
   284 ;;
   285 ;; Critical Paths under _main in BANK0
   286 ;;
   287 ;;   None.
   288 ;;
   289 ;; Critical Paths under _main in BANK1
   290 ;;
   291 ;;   None.
   292 ;;
   293 ;; Critical Paths under _main in BANK3
   294 ;;
   295 ;;   None.
   296 ;;
   297 ;; Critical Paths under _main in BANK2
   298 ;;
   299 ;;   None.
   300                           
   301 ;;
   302 ;;Main: autosize = 0, tempsize = 6, incstack = 0, save=0
   303 ;;
   304                           
   305 ;;
   306 ;;Call Graph Tables:
   307 ;;
   308 ;; ---------------------------------------------------------------------------------
   309 ;; (Depth) Function   	        Calls       Base Space   Used Autos Params    Refs
   310 ;; ---------------------------------------------------------------------------------
   311 ;; (0) _main                                                60    60      0    2053
   312 ;;                                              0 COMMON     6     6      0
   313 ;;                                              0 BANK0     54    54      0
   314 ;; ---------------------------------------------------------------------------------
   315 ;; Estimated maximum stack depth 0
   316 ;; ---------------------------------------------------------------------------------
   317                           
   318 ;; Call Graph Graphs:
   319                           
   320 ;; _main (ROOT)
   321 ;;
   322                           
   323 ;; Address spaces:
   324                           
   325 ;;Name               Size   Autos  Total    Cost      Usage
   326 ;;BANK3               60      0       0       9        0.0%
   327 ;;BITBANK3            60      0       0       8        0.0%
   328 ;;SFR3                 0      0       0       4        0.0%
   329 ;;BITSFR3              0      0       0       4        0.0%
   330 ;;BANK2               60      0       0      11        0.0%
   331 ;;BITBANK2            60      0       0      10        0.0%
   332 ;;SFR2                 0      0       0       5        0.0%
   333 ;;BITSFR2              0      0       0       5        0.0%
   334 ;;SFR1                 0      0       0       2        0.0%
   335 ;;BITSFR1              0      0       0       2        0.0%
   336 ;;BANK1               50      0      14       7       25.0%
   337 ;;BITBANK1            50      0       0       6        0.0%
   338 ;;CODE                 0      0       0       0        0.0%
   339 ;;DATA                 0      0      60      12        0.0%
   340 ;;ABS                  0      0      60       3        0.0%
   341 ;;NULL                 0      0       0       0        0.0%
   342 ;;STACK                0      0       0       2        0.0%
   343 ;;BANK0               50     36      46       5       87.5%
   344 ;;BITBANK0            50      0       0       4        0.0%
   345 ;;SFR0                 0      0       0       1        0.0%
   346 ;;BITSFR0              0      0       0       1        0.0%
   347 ;;COMMON               E      6       6       1       42.9%
   348 ;;BITCOMMON            E      0       0       0        0.0%
   349 ;;EEDATA             100      0       0       0        0.0%
   350                           
   351                           	global	_main
   352                           psect	maintext,global,class=CODE,delta=2
   353                           global __pmaintext
   354  0260                     __pmaintext:
   355                           
   356 ;; *************** function _main *****************
   357 ;; Defined at:
   358 ;;		line 3 in file "E:\KTU\Softwares\mplab\Keypadpassword\keypadpassword.c"
   359 ;; Parameters:    Size  Location     Type
   360 ;;		None
   361 ;; Auto vars:     Size  Location     Type
   362 ;;  segment        20    4[BANK0 ] int [10]
   363 ;;  mat             8   40[BANK0 ] int [4]
   364 ;;  arr             8   32[BANK0 ] int [4]
   365 ;;  count           2   52[BANK0 ] int 
   366 ;;  dump            2   50[BANK0 ] int 
   367 ;;  temp            2   48[BANK0 ] int 
   368 ;;  i               2   30[BANK0 ] int 
   369 ;;  control         2   28[BANK0 ] int 
   370 ;;  correct         2   26[BANK0 ] int 
   371 ;;  check           2   24[BANK0 ] int 
   372 ;;  wrong           2    2[BANK0 ] int 
   373 ;;  count1          2    0[BANK0 ] int 
   374 ;; Return value:  Size  Location     Type
   375 ;;		None               void
   376 ;; Registers used:
   377 ;;		wreg, fsr0l, fsr0h, status,2, status,0, btemp+1
   378 ;; Tracked objects:
   379 ;;		On entry : 17F/0
   380 ;;		On exit  : 0/0
   381 ;;		Unchanged: 0/0
   382 ;; Data sizes:     COMMON   BANK0   BANK1   BANK3   BANK2
   383 ;;      Params:         0       0       0       0       0
   384 ;;      Locals:         0      54       0       0       0
   385 ;;      Temps:          6       0       0       0       0
   386 ;;      Totals:         6      54       0       0       0
   387 ;;Total ram usage:       60 bytes
   388 ;; This function calls:
   389 ;;		Nothing
   390 ;; This function is called by:
   391 ;;		Startup code after reset
   392 ;; This function uses a non-reentrant model
   393 ;;
   394                           psect	maintext
   395                           	file	"E:\KTU\Softwares\mplab\Keypadpassword\keypadpassword.c"
   396                           	line	3
   397                           	global	__size_of_main
   398  05A0                     	__size_of_main	equ	__end_of_main-_main
   399                           	
   400  0260                     _main:	
   401                           	opt	stack 8
   402                           ; Regs used in _main: [wreg-fsr0h+status,2+status,0+btemp+1]
   403                           	line	4
   404                           	
   405  0260                     l2629:	
   406                           ;keypadpassword.c: 4: PORTA=0X00;
   407  0260  1283               	bcf	status, 5	;RP0=0, select bank0
   408  0261  1303               	bcf	status, 6	;RP1=0, select bank0
   409  0262  0185               	clrf	(5)	;volatile
   410                           	line	5
   411                           	
   412  0263                     l2631:	
   413                           ;keypadpassword.c: 5: TRISA=0X07;
   414  0263  3007               	movlw	(07h)
   415  0264  1683               	bsf	status, 5	;RP0=1, select bank1
   416  0265  1303               	bcf	status, 6	;RP1=0, select bank1
   417  0266  0085               	movwf	(133)^080h	;volatile
   418                           	line	6
   419                           	
   420  0267                     l2633:	
   421                           ;keypadpassword.c: 6: PORTB=0X00;
   422  0267  1283               	bcf	status, 5	;RP0=0, select bank0
   423  0268  1303               	bcf	status, 6	;RP1=0, select bank0
   424  0269  0186               	clrf	(6)	;volatile
   425                           	line	7
   426                           	
   427  026A                     l2635:	
   428                           ;keypadpassword.c: 7: TRISB=0X00;
   429  026A  1683               	bsf	status, 5	;RP0=1, select bank1
   430  026B  1303               	bcf	status, 6	;RP1=0, select bank1
   431  026C  0186               	clrf	(134)^080h	;volatile
   432                           	line	8
   433                           	
   434  026D                     l2637:	
   435                           ;keypadpassword.c: 8: PORTC=0X00;
   436  026D  1283               	bcf	status, 5	;RP0=0, select bank0
   437  026E  1303               	bcf	status, 6	;RP1=0, select bank0
   438  026F  0187               	clrf	(7)	;volatile
   439                           	line	9
   440                           	
   441  0270                     l2639:	
   442                           ;keypadpassword.c: 9: TRISC=0X00;
   443  0270  1683               	bsf	status, 5	;RP0=1, select bank1
   444  0271  1303               	bcf	status, 6	;RP1=0, select bank1
   445  0272  0187               	clrf	(135)^080h	;volatile
   446                           	line	10
   447                           	
   448  0273                     l2641:	
   449                           ;keypadpassword.c: 10: PORTD=0X00;
   450  0273  1283               	bcf	status, 5	;RP0=0, select bank0
   451  0274  1303               	bcf	status, 6	;RP1=0, select bank0
   452  0275  0188               	clrf	(8)	;volatile
   453                           	line	11
   454                           	
   455  0276                     l2643:	
   456                           ;keypadpassword.c: 11: TRISD=0X00;
   457  0276  1683               	bsf	status, 5	;RP0=1, select bank1
   458  0277  1303               	bcf	status, 6	;RP1=0, select bank1
   459  0278  0188               	clrf	(136)^080h	;volatile
   460                           	line	12
   461                           	
   462  0279                     l2645:	
   463                           ;keypadpassword.c: 12: ANSEL=0X00;
   464  0279  1683               	bsf	status, 5	;RP0=1, select bank3
   465  027A  1703               	bsf	status, 6	;RP1=1, select bank3
   466  027B  0188               	clrf	(392)^0180h	;volatile
   467                           	line	13
   468                           	
   469  027C                     l2647:	
   470                           ;keypadpassword.c: 13: ANSELH=0X00;
   471  027C  0189               	clrf	(393)^0180h	;volatile
   472                           	line	14
   473                           	
   474  027D                     l2649:	
   475                           ;keypadpassword.c: 14: int control=1;
   476  027D  3001               	movlw	low(01h)
   477  027E  1283               	bcf	status, 5	;RP0=0, select bank0
   478  027F  1303               	bcf	status, 6	;RP1=0, select bank0
   479  0280  00BC               	movwf	(main@control)
   480  0281  3000               	movlw	high(01h)
   481  0282  00BD               	movwf	((main@control))+1
   482                           	line	15
   483                           	
   484  0283                     l2651:	
   485                           ;keypadpassword.c: 15: int segment[]={0XBF,0X06,0X5B,0X4F,0X66,0X6D,0X7C,0X07,0XFF,0XE7}
                                 ;
   486  0283  3024               	movlw	(main@segment)&0ffh
   487  0284  0084               	movwf	fsr0
   488  0285  30A0               	movlw	low(main@F1601)
   489  0286  00F0               	movwf	(??_main+0)+0
   490  0287  0804               	movf	fsr0,w
   491  0288  00F1               	movwf	((??_main+0)+0+1)
   492  0289  3014               	movlw	20
   493  028A  00F2               	movwf	((??_main+0)+0+2)
   494  028B                     u2830:
   495  028B  0870               	movf	(??_main+0)+0,w
   496  028C  0084               	movwf	fsr0
   497  028D  1383               	bcf	status, 7	;select IRP bank1
   498                           	
   499  028E  0800               	movf	indf,w
   500  028F  00F3               	movwf	((??_main+0)+0+3)
   501  0290  0AF0               	incf	(??_main+0)+0,f
   502  0291  0871               	movf	((??_main+0)+0+1),w
   503  0292  0084               	movwf	fsr0
   504                           	
   505  0293  0873               	movf	((??_main+0)+0+3),w
   506  0294  0080               	movwf	indf
   507  0295  0AF1               	incf	((??_main+0)+0+1),f
   508  0296  0BF2               	decfsz	((??_main+0)+0+2),f
   509  0297  2A8B               	goto	u2830
   510                           	line	16
   511                           	
   512  0298                     l2653:	
   513                           ;keypadpassword.c: 16: int arr[4]={0,0,0,0};
   514  0298  3040               	movlw	(main@arr)&0ffh
   515  0299  0084               	movwf	fsr0
   516  029A  3056               	movlw	low(main@F1603)
   517  029B  00F0               	movwf	(??_main+0)+0
   518  029C  0804               	movf	fsr0,w
   519  029D  00F1               	movwf	((??_main+0)+0+1)
   520  029E  3008               	movlw	8
   521  029F  00F2               	movwf	((??_main+0)+0+2)
   522  02A0                     u2840:
   523  02A0  0870               	movf	(??_main+0)+0,w
   524  02A1  0084               	movwf	fsr0
   525  02A2  1383               	bcf	status, 7	;select IRP bank0
   526                           	
   527  02A3  0800               	movf	indf,w
   528  02A4  00F3               	movwf	((??_main+0)+0+3)
   529  02A5  0AF0               	incf	(??_main+0)+0,f
   530  02A6  0871               	movf	((??_main+0)+0+1),w
   531  02A7  0084               	movwf	fsr0
   532                           	
   533  02A8  0873               	movf	((??_main+0)+0+3),w
   534  02A9  0080               	movwf	indf
   535  02AA  0AF1               	incf	((??_main+0)+0+1),f
   536  02AB  0BF2               	decfsz	((??_main+0)+0+2),f
   537  02AC  2AA0               	goto	u2840
   538                           	line	17
   539                           	
   540  02AD                     l2655:	
   541                           ;keypadpassword.c: 17: int mat[4]={0,0,0,0};
   542  02AD  3048               	movlw	(main@mat)&0ffh
   543  02AE  0084               	movwf	fsr0
   544  02AF  305E               	movlw	low(main@F1605)
   545  02B0  00F0               	movwf	(??_main+0)+0
   546  02B1  0804               	movf	fsr0,w
   547  02B2  00F1               	movwf	((??_main+0)+0+1)
   548  02B3  3008               	movlw	8
   549  02B4  00F2               	movwf	((??_main+0)+0+2)
   550  02B5                     u2850:
   551  02B5  0870               	movf	(??_main+0)+0,w
   552  02B6  0084               	movwf	fsr0
   553  02B7  1383               	bcf	status, 7	;select IRP bank0
   554                           	
   555  02B8  0800               	movf	indf,w
   556  02B9  00F3               	movwf	((??_main+0)+0+3)
   557  02BA  0AF0               	incf	(??_main+0)+0,f
   558  02BB  0871               	movf	((??_main+0)+0+1),w
   559  02BC  0084               	movwf	fsr0
   560                           	
   561  02BD  0873               	movf	((??_main+0)+0+3),w
   562  02BE  0080               	movwf	indf
   563  02BF  0AF1               	incf	((??_main+0)+0+1),f
   564  02C0  0BF2               	decfsz	((??_main+0)+0+2),f
   565  02C1  2AB5               	goto	u2850
   566                           	line	18
   567                           	
   568  02C2                     l2657:	
   569                           ;keypadpassword.c: 18: int temp=0;
   570  02C2  01D0               	clrf	(main@temp)
   571  02C3  01D1               	clrf	(main@temp+1)
   572                           	line	19
   573                           	
   574  02C4                     l2659:	
   575                           ;keypadpassword.c: 19: int dump=0;
   576  02C4  01D2               	clrf	(main@dump)
   577  02C5  01D3               	clrf	(main@dump+1)
   578                           	line	20
   579                           	
   580  02C6                     l2661:	
   581                           ;keypadpassword.c: 20: int count=0;
   582  02C6  01D4               	clrf	(main@count)
   583  02C7  01D5               	clrf	(main@count+1)
   584                           	line	21
   585                           	
   586  02C8                     l2663:	
   587                           ;keypadpassword.c: 21: int count1=0;
   588  02C8  01A0               	clrf	(main@count1)
   589  02C9  01A1               	clrf	(main@count1+1)
   590                           	line	23
   591                           	
   592  02CA                     l2665:	
   593                           ;keypadpassword.c: 22: int i;
   594                           ;keypadpassword.c: 23: int check=0,correct=0,wrong=0;
   595  02CA  01B8               	clrf	(main@check)
   596  02CB  01B9               	clrf	(main@check+1)
   597                           	
   598  02CC                     l2667:	
   599  02CC  01BA               	clrf	(main@correct)
   600  02CD  01BB               	clrf	(main@correct+1)
   601                           	
   602  02CE                     l2669:	
   603  02CE  01A2               	clrf	(main@wrong)
   604  02CF  01A3               	clrf	(main@wrong+1)
   605  02D0  2AD1               	goto	l2671
   606                           	line	24
   607                           ;keypadpassword.c: 24: while(1)
   608                           	
   609  02D1                     l1031:	
   610                           	line	26
   611                           	
   612  02D1                     l2671:	
   613                           ;keypadpassword.c: 25: {
   614                           ;keypadpassword.c: 26: if(control==1)
   615  02D1  3001               	movlw	01h
   616  02D2  063C               	xorwf	(main@control),w
   617  02D3  043D               	iorwf	(main@control+1),w
   618  02D4  1D03               	skipz
   619  02D5  2AD7               	goto	u2861
   620  02D6  2AD8               	goto	u2860
   621  02D7                     u2861:
   622  02D7  2C8C               	goto	l2747
   623  02D8                     u2860:
   624                           	line	28
   625                           	
   626  02D8                     l2673:	
   627                           ;keypadpassword.c: 27: {
   628                           ;keypadpassword.c: 28: RB0=1;
   629  02D8  1406               	bsf	(48/8),(48)&7
   630                           	line	29
   631                           ;keypadpassword.c: 29: RB1=0;
   632  02D9  1086               	bcf	(49/8),(49)&7
   633                           	line	30
   634                           ;keypadpassword.c: 30: RB2=0;
   635  02DA  1106               	bcf	(50/8),(50)&7
   636                           	line	31
   637                           ;keypadpassword.c: 31: RB3=0;
   638  02DB  1186               	bcf	(51/8),(51)&7
   639                           	line	32
   640                           ;keypadpassword.c: 32: if(RA0==1)
   641  02DC  1C05               	btfss	(40/8),(40)&7
   642  02DD  2ADF               	goto	u2871
   643  02DE  2AE0               	goto	u2870
   644  02DF                     u2871:
   645  02DF  2AF7               	goto	l1033
   646  02E0                     u2870:
   647                           	line	34
   648                           	
   649  02E0                     l2675:	
   650                           ;keypadpassword.c: 33: {
   651                           ;keypadpassword.c: 34: arr[temp]=1;
   652  02E0  0850               	movf	(main@temp),w
   653  02E1  00F0               	movwf	(??_main+0)+0
   654  02E2  0770               	addwf	(??_main+0)+0,w
   655  02E3  3E40               	addlw	main@arr&0ffh
   656  02E4  0084               	movwf	fsr0
   657  02E5  3001               	movlw	low(01h)
   658  02E6  1383               	bcf	status, 7	;select IRP bank0
   659  02E7  0080               	movwf	indf
   660  02E8  0A84               	incf	fsr0,f
   661  02E9  3000               	movlw	high(01h)
   662  02EA  0080               	movwf	indf
   663                           	line	35
   664                           	
   665  02EB                     l2677:	
   666                           ;keypadpassword.c: 35: temp++;
   667  02EB  3001               	movlw	low(01h)
   668  02EC  07D0               	addwf	(main@temp),f
   669  02ED  1803               	skipnc
   670  02EE  0AD1               	incf	(main@temp+1),f
   671  02EF  3000               	movlw	high(01h)
   672  02F0  07D1               	addwf	(main@temp+1),f
   673                           	line	36
   674                           ;keypadpassword.c: 36: while(RA0==1);
   675  02F1  2AF2               	goto	l1034
   676                           	
   677  02F2                     l1035:	
   678                           	
   679  02F2                     l1034:	
   680  02F2  1805               	btfsc	(40/8),(40)&7
   681  02F3  2AF5               	goto	u2881
   682  02F4  2AF6               	goto	u2880
   683  02F5                     u2881:
   684  02F5  2AF2               	goto	l1034
   685  02F6                     u2880:
   686  02F6  2AF7               	goto	l1033
   687                           	
   688  02F7                     l1036:	
   689                           	line	37
   690                           	
   691  02F7                     l1033:	
   692                           	line	38
   693                           ;keypadpassword.c: 37: }
   694                           ;keypadpassword.c: 38: if(RA1==1)
   695  02F7  1C85               	btfss	(41/8),(41)&7
   696  02F8  2AFA               	goto	u2891
   697  02F9  2AFB               	goto	u2890
   698  02FA                     u2891:
   699  02FA  2B12               	goto	l1037
   700  02FB                     u2890:
   701                           	line	40
   702                           	
   703  02FB                     l2679:	
   704                           ;keypadpassword.c: 39: {
   705                           ;keypadpassword.c: 40: arr[temp]=2;
   706  02FB  0850               	movf	(main@temp),w
   707  02FC  00F0               	movwf	(??_main+0)+0
   708  02FD  0770               	addwf	(??_main+0)+0,w
   709  02FE  3E40               	addlw	main@arr&0ffh
   710  02FF  0084               	movwf	fsr0
   711  0300  3002               	movlw	low(02h)
   712  0301  1383               	bcf	status, 7	;select IRP bank0
   713  0302  0080               	movwf	indf
   714  0303  0A84               	incf	fsr0,f
   715  0304  3000               	movlw	high(02h)
   716  0305  0080               	movwf	indf
   717                           	line	41
   718                           	
   719  0306                     l2681:	
   720                           ;keypadpassword.c: 41: temp++;
   721  0306  3001               	movlw	low(01h)
   722  0307  07D0               	addwf	(main@temp),f
   723  0308  1803               	skipnc
   724  0309  0AD1               	incf	(main@temp+1),f
   725  030A  3000               	movlw	high(01h)
   726  030B  07D1               	addwf	(main@temp+1),f
   727                           	line	42
   728                           ;keypadpassword.c: 42: while(RA0==1);
   729  030C  2B0D               	goto	l1038
   730                           	
   731  030D                     l1039:	
   732                           	
   733  030D                     l1038:	
   734  030D  1805               	btfsc	(40/8),(40)&7
   735  030E  2B10               	goto	u2901
   736  030F  2B11               	goto	u2900
   737  0310                     u2901:
   738  0310  2B0D               	goto	l1038
   739  0311                     u2900:
   740  0311  2B12               	goto	l1037
   741                           	
   742  0312                     l1040:	
   743                           	line	43
   744                           	
   745  0312                     l1037:	
   746                           	line	44
   747                           ;keypadpassword.c: 43: }
   748                           ;keypadpassword.c: 44: if(RA2==1)
   749  0312  1D05               	btfss	(42/8),(42)&7
   750  0313  2B15               	goto	u2911
   751  0314  2B16               	goto	u2910
   752  0315                     u2911:
   753  0315  2B2D               	goto	l1041
   754  0316                     u2910:
   755                           	line	46
   756                           	
   757  0316                     l2683:	
   758                           ;keypadpassword.c: 45: {
   759                           ;keypadpassword.c: 46: arr[temp]=3;
   760  0316  0850               	movf	(main@temp),w
   761  0317  00F0               	movwf	(??_main+0)+0
   762  0318  0770               	addwf	(??_main+0)+0,w
   763  0319  3E40               	addlw	main@arr&0ffh
   764  031A  0084               	movwf	fsr0
   765  031B  3003               	movlw	low(03h)
   766  031C  1383               	bcf	status, 7	;select IRP bank0
   767  031D  0080               	movwf	indf
   768  031E  0A84               	incf	fsr0,f
   769  031F  3000               	movlw	high(03h)
   770  0320  0080               	movwf	indf
   771                           	line	47
   772                           	
   773  0321                     l2685:	
   774                           ;keypadpassword.c: 47: temp++;
   775  0321  3001               	movlw	low(01h)
   776  0322  07D0               	addwf	(main@temp),f
   777  0323  1803               	skipnc
   778  0324  0AD1               	incf	(main@temp+1),f
   779  0325  3000               	movlw	high(01h)
   780  0326  07D1               	addwf	(main@temp+1),f
   781                           	line	48
   782                           ;keypadpassword.c: 48: while(RA0==1);
   783  0327  2B28               	goto	l1042
   784                           	
   785  0328                     l1043:	
   786                           	
   787  0328                     l1042:	
   788  0328  1805               	btfsc	(40/8),(40)&7
   789  0329  2B2B               	goto	u2921
   790  032A  2B2C               	goto	u2920
   791  032B                     u2921:
   792  032B  2B28               	goto	l1042
   793  032C                     u2920:
   794  032C  2B2D               	goto	l1041
   795                           	
   796  032D                     l1044:	
   797                           	line	49
   798                           	
   799  032D                     l1041:	
   800                           	line	50
   801                           ;keypadpassword.c: 49: }
   802                           ;keypadpassword.c: 50: RB0=0;
   803  032D  1006               	bcf	(48/8),(48)&7
   804                           	line	51
   805                           ;keypadpassword.c: 51: RB1=1;
   806  032E  1486               	bsf	(49/8),(49)&7
   807                           	line	52
   808                           ;keypadpassword.c: 52: RB2=0;
   809  032F  1106               	bcf	(50/8),(50)&7
   810                           	line	53
   811                           ;keypadpassword.c: 53: RB3=0;
   812  0330  1186               	bcf	(51/8),(51)&7
   813                           	line	54
   814                           ;keypadpassword.c: 54: if(RA0==1)
   815  0331  1C05               	btfss	(40/8),(40)&7
   816  0332  2B34               	goto	u2931
   817  0333  2B35               	goto	u2930
   818  0334                     u2931:
   819  0334  2B4C               	goto	l1045
   820  0335                     u2930:
   821                           	line	56
   822                           	
   823  0335                     l2687:	
   824                           ;keypadpassword.c: 55: {
   825                           ;keypadpassword.c: 56: arr[temp]=4;
   826  0335  0850               	movf	(main@temp),w
   827  0336  00F0               	movwf	(??_main+0)+0
   828  0337  0770               	addwf	(??_main+0)+0,w
   829  0338  3E40               	addlw	main@arr&0ffh
   830  0339  0084               	movwf	fsr0
   831  033A  3004               	movlw	low(04h)
   832  033B  1383               	bcf	status, 7	;select IRP bank0
   833  033C  0080               	movwf	indf
   834  033D  0A84               	incf	fsr0,f
   835  033E  3000               	movlw	high(04h)
   836  033F  0080               	movwf	indf
   837                           	line	57
   838                           	
   839  0340                     l2689:	
   840                           ;keypadpassword.c: 57: temp++;
   841  0340  3001               	movlw	low(01h)
   842  0341  07D0               	addwf	(main@temp),f
   843  0342  1803               	skipnc
   844  0343  0AD1               	incf	(main@temp+1),f
   845  0344  3000               	movlw	high(01h)
   846  0345  07D1               	addwf	(main@temp+1),f
   847                           	line	58
   848                           ;keypadpassword.c: 58: while(RA0==1);
   849  0346  2B47               	goto	l1046
   850                           	
   851  0347                     l1047:	
   852                           	
   853  0347                     l1046:	
   854  0347  1805               	btfsc	(40/8),(40)&7
   855  0348  2B4A               	goto	u2941
   856  0349  2B4B               	goto	u2940
   857  034A                     u2941:
   858  034A  2B47               	goto	l1046
   859  034B                     u2940:
   860  034B  2B4C               	goto	l1045
   861                           	
   862  034C                     l1048:	
   863                           	line	59
   864                           	
   865  034C                     l1045:	
   866                           	line	60
   867                           ;keypadpassword.c: 59: }
   868                           ;keypadpassword.c: 60: if(RA1==1)
   869  034C  1C85               	btfss	(41/8),(41)&7
   870  034D  2B4F               	goto	u2951
   871  034E  2B50               	goto	u2950
   872  034F                     u2951:
   873  034F  2B67               	goto	l1049
   874  0350                     u2950:
   875                           	line	62
   876                           	
   877  0350                     l2691:	
   878                           ;keypadpassword.c: 61: {
   879                           ;keypadpassword.c: 62: arr[temp]=5;
   880  0350  0850               	movf	(main@temp),w
   881  0351  00F0               	movwf	(??_main+0)+0
   882  0352  0770               	addwf	(??_main+0)+0,w
   883  0353  3E40               	addlw	main@arr&0ffh
   884  0354  0084               	movwf	fsr0
   885  0355  3005               	movlw	low(05h)
   886  0356  1383               	bcf	status, 7	;select IRP bank0
   887  0357  0080               	movwf	indf
   888  0358  0A84               	incf	fsr0,f
   889  0359  3000               	movlw	high(05h)
   890  035A  0080               	movwf	indf
   891                           	line	63
   892                           	
   893  035B                     l2693:	
   894                           ;keypadpassword.c: 63: temp++;
   895  035B  3001               	movlw	low(01h)
   896  035C  07D0               	addwf	(main@temp),f
   897  035D  1803               	skipnc
   898  035E  0AD1               	incf	(main@temp+1),f
   899  035F  3000               	movlw	high(01h)
   900  0360  07D1               	addwf	(main@temp+1),f
   901                           	line	64
   902                           ;keypadpassword.c: 64: while(RA0==1);
   903  0361  2B62               	goto	l1050
   904                           	
   905  0362                     l1051:	
   906                           	
   907  0362                     l1050:	
   908  0362  1805               	btfsc	(40/8),(40)&7
   909  0363  2B65               	goto	u2961
   910  0364  2B66               	goto	u2960
   911  0365                     u2961:
   912  0365  2B62               	goto	l1050
   913  0366                     u2960:
   914  0366  2B67               	goto	l1049
   915                           	
   916  0367                     l1052:	
   917                           	line	65
   918                           	
   919  0367                     l1049:	
   920                           	line	66
   921                           ;keypadpassword.c: 65: }
   922                           ;keypadpassword.c: 66: if(RA2==1)
   923  0367  1D05               	btfss	(42/8),(42)&7
   924  0368  2B6A               	goto	u2971
   925  0369  2B6B               	goto	u2970
   926  036A                     u2971:
   927  036A  2B82               	goto	l1053
   928  036B                     u2970:
   929                           	line	68
   930                           	
   931  036B                     l2695:	
   932                           ;keypadpassword.c: 67: {
   933                           ;keypadpassword.c: 68: arr[temp]=6;
   934  036B  0850               	movf	(main@temp),w
   935  036C  00F0               	movwf	(??_main+0)+0
   936  036D  0770               	addwf	(??_main+0)+0,w
   937  036E  3E40               	addlw	main@arr&0ffh
   938  036F  0084               	movwf	fsr0
   939  0370  3006               	movlw	low(06h)
   940  0371  1383               	bcf	status, 7	;select IRP bank0
   941  0372  0080               	movwf	indf
   942  0373  0A84               	incf	fsr0,f
   943  0374  3000               	movlw	high(06h)
   944  0375  0080               	movwf	indf
   945                           	line	69
   946                           	
   947  0376                     l2697:	
   948                           ;keypadpassword.c: 69: temp++;
   949  0376  3001               	movlw	low(01h)
   950  0377  07D0               	addwf	(main@temp),f
   951  0378  1803               	skipnc
   952  0379  0AD1               	incf	(main@temp+1),f
   953  037A  3000               	movlw	high(01h)
   954  037B  07D1               	addwf	(main@temp+1),f
   955                           	line	70
   956                           ;keypadpassword.c: 70: while(RA0==1);
   957  037C  2B7D               	goto	l1054
   958                           	
   959  037D                     l1055:	
   960                           	
   961  037D                     l1054:	
   962  037D  1805               	btfsc	(40/8),(40)&7
   963  037E  2B80               	goto	u2981
   964  037F  2B81               	goto	u2980
   965  0380                     u2981:
   966  0380  2B7D               	goto	l1054
   967  0381                     u2980:
   968  0381  2B82               	goto	l1053
   969                           	
   970  0382                     l1056:	
   971                           	line	71
   972                           	
   973  0382                     l1053:	
   974                           	line	72
   975                           ;keypadpassword.c: 71: }
   976                           ;keypadpassword.c: 72: RB0=0;
   977  0382  1006               	bcf	(48/8),(48)&7
   978                           	line	73
   979                           ;keypadpassword.c: 73: RB1=0;
   980  0383  1086               	bcf	(49/8),(49)&7
   981                           	line	74
   982                           ;keypadpassword.c: 74: RB2=1;
   983  0384  1506               	bsf	(50/8),(50)&7
   984                           	line	75
   985                           ;keypadpassword.c: 75: RB3=0;
   986  0385  1186               	bcf	(51/8),(51)&7
   987                           	line	76
   988                           ;keypadpassword.c: 76: if(RA0==1)
   989  0386  1C05               	btfss	(40/8),(40)&7
   990  0387  2B89               	goto	u2991
   991  0388  2B8A               	goto	u2990
   992  0389                     u2991:
   993  0389  2BA1               	goto	l1057
   994  038A                     u2990:
   995                           	line	78
   996                           	
   997  038A                     l2699:	
   998                           ;keypadpassword.c: 77: {
   999                           ;keypadpassword.c: 78: arr[temp]=7;
  1000  038A  0850               	movf	(main@temp),w
  1001  038B  00F0               	movwf	(??_main+0)+0
  1002  038C  0770               	addwf	(??_main+0)+0,w
  1003  038D  3E40               	addlw	main@arr&0ffh
  1004  038E  0084               	movwf	fsr0
  1005  038F  3007               	movlw	low(07h)
  1006  0390  1383               	bcf	status, 7	;select IRP bank0
  1007  0391  0080               	movwf	indf
  1008  0392  0A84               	incf	fsr0,f
  1009  0393  3000               	movlw	high(07h)
  1010  0394  0080               	movwf	indf
  1011                           	line	79
  1012                           	
  1013  0395                     l2701:	
  1014                           ;keypadpassword.c: 79: temp++;
  1015  0395  3001               	movlw	low(01h)
  1016  0396  07D0               	addwf	(main@temp),f
  1017  0397  1803               	skipnc
  1018  0398  0AD1               	incf	(main@temp+1),f
  1019  0399  3000               	movlw	high(01h)
  1020  039A  07D1               	addwf	(main@temp+1),f
  1021                           	line	80
  1022                           ;keypadpassword.c: 80: while(RA0==1);
  1023  039B  2B9C               	goto	l1058
  1024                           	
  1025  039C                     l1059:	
  1026                           	
  1027  039C                     l1058:	
  1028  039C  1805               	btfsc	(40/8),(40)&7
  1029  039D  2B9F               	goto	u3001
  1030  039E  2BA0               	goto	u3000
  1031  039F                     u3001:
  1032  039F  2B9C               	goto	l1058
  1033  03A0                     u3000:
  1034  03A0  2BA1               	goto	l1057
  1035                           	
  1036  03A1                     l1060:	
  1037                           	line	81
  1038                           	
  1039  03A1                     l1057:	
  1040                           	line	83
  1041                           ;keypadpassword.c: 81: }
  1042                           ;keypadpassword.c: 83: if(RA1==1)
  1043  03A1  1C85               	btfss	(41/8),(41)&7
  1044  03A2  2BA4               	goto	u3011
  1045  03A3  2BA5               	goto	u3010
  1046  03A4                     u3011:
  1047  03A4  2BBC               	goto	l1061
  1048  03A5                     u3010:
  1049                           	line	85
  1050                           	
  1051  03A5                     l2703:	
  1052                           ;keypadpassword.c: 84: {
  1053                           ;keypadpassword.c: 85: arr[temp]=8;
  1054  03A5  0850               	movf	(main@temp),w
  1055  03A6  00F0               	movwf	(??_main+0)+0
  1056  03A7  0770               	addwf	(??_main+0)+0,w
  1057  03A8  3E40               	addlw	main@arr&0ffh
  1058  03A9  0084               	movwf	fsr0
  1059  03AA  3008               	movlw	low(08h)
  1060  03AB  1383               	bcf	status, 7	;select IRP bank0
  1061  03AC  0080               	movwf	indf
  1062  03AD  0A84               	incf	fsr0,f
  1063  03AE  3000               	movlw	high(08h)
  1064  03AF  0080               	movwf	indf
  1065                           	line	86
  1066                           	
  1067  03B0                     l2705:	
  1068                           ;keypadpassword.c: 86: temp++;
  1069  03B0  3001               	movlw	low(01h)
  1070  03B1  07D0               	addwf	(main@temp),f
  1071  03B2  1803               	skipnc
  1072  03B3  0AD1               	incf	(main@temp+1),f
  1073  03B4  3000               	movlw	high(01h)
  1074  03B5  07D1               	addwf	(main@temp+1),f
  1075                           	line	87
  1076                           ;keypadpassword.c: 87: while(RA0==1);
  1077  03B6  2BB7               	goto	l1062
  1078                           	
  1079  03B7                     l1063:	
  1080                           	
  1081  03B7                     l1062:	
  1082  03B7  1805               	btfsc	(40/8),(40)&7
  1083  03B8  2BBA               	goto	u3021
  1084  03B9  2BBB               	goto	u3020
  1085  03BA                     u3021:
  1086  03BA  2BB7               	goto	l1062
  1087  03BB                     u3020:
  1088  03BB  2BBC               	goto	l1061
  1089                           	
  1090  03BC                     l1064:	
  1091                           	line	88
  1092                           	
  1093  03BC                     l1061:	
  1094                           	line	89
  1095                           ;keypadpassword.c: 88: }
  1096                           ;keypadpassword.c: 89: if(RA2==1)
  1097  03BC  1D05               	btfss	(42/8),(42)&7
  1098  03BD  2BBF               	goto	u3031
  1099  03BE  2BC0               	goto	u3030
  1100  03BF                     u3031:
  1101  03BF  2BD7               	goto	l1065
  1102  03C0                     u3030:
  1103                           	line	91
  1104                           	
  1105  03C0                     l2707:	
  1106                           ;keypadpassword.c: 90: {
  1107                           ;keypadpassword.c: 91: arr[temp]=9;
  1108  03C0  0850               	movf	(main@temp),w
  1109  03C1  00F0               	movwf	(??_main+0)+0
  1110  03C2  0770               	addwf	(??_main+0)+0,w
  1111  03C3  3E40               	addlw	main@arr&0ffh
  1112  03C4  0084               	movwf	fsr0
  1113  03C5  3009               	movlw	low(09h)
  1114  03C6  1383               	bcf	status, 7	;select IRP bank0
  1115  03C7  0080               	movwf	indf
  1116  03C8  0A84               	incf	fsr0,f
  1117  03C9  3000               	movlw	high(09h)
  1118  03CA  0080               	movwf	indf
  1119                           	line	92
  1120                           	
  1121  03CB                     l2709:	
  1122                           ;keypadpassword.c: 92: temp++;
  1123  03CB  3001               	movlw	low(01h)
  1124  03CC  07D0               	addwf	(main@temp),f
  1125  03CD  1803               	skipnc
  1126  03CE  0AD1               	incf	(main@temp+1),f
  1127  03CF  3000               	movlw	high(01h)
  1128  03D0  07D1               	addwf	(main@temp+1),f
  1129                           	line	93
  1130                           ;keypadpassword.c: 93: while(RA0==1);
  1131  03D1  2BD2               	goto	l1066
  1132                           	
  1133  03D2                     l1067:	
  1134                           	
  1135  03D2                     l1066:	
  1136  03D2  1805               	btfsc	(40/8),(40)&7
  1137  03D3  2BD5               	goto	u3041
  1138  03D4  2BD6               	goto	u3040
  1139  03D5                     u3041:
  1140  03D5  2BD2               	goto	l1066
  1141  03D6                     u3040:
  1142  03D6  2BD7               	goto	l1065
  1143                           	
  1144  03D7                     l1068:	
  1145                           	line	94
  1146                           	
  1147  03D7                     l1065:	
  1148                           	line	95
  1149                           ;keypadpassword.c: 94: }
  1150                           ;keypadpassword.c: 95: RB0=0;
  1151  03D7  1006               	bcf	(48/8),(48)&7
  1152                           	line	96
  1153                           ;keypadpassword.c: 96: RB1=0;
  1154  03D8  1086               	bcf	(49/8),(49)&7
  1155                           	line	97
  1156                           ;keypadpassword.c: 97: RB2=0;
  1157  03D9  1106               	bcf	(50/8),(50)&7
  1158                           	line	98
  1159                           ;keypadpassword.c: 98: RB3=1;
  1160  03DA  1586               	bsf	(51/8),(51)&7
  1161                           	line	99
  1162                           ;keypadpassword.c: 99: if(RA0==1)
  1163  03DB  1C05               	btfss	(40/8),(40)&7
  1164  03DC  2BDE               	goto	u3051
  1165  03DD  2BDF               	goto	u3050
  1166  03DE                     u3051:
  1167  03DE  2C01               	goto	l2719
  1168  03DF                     u3050:
  1169  03DF  2BE1               	goto	l1070
  1170                           	line	101
  1171                           	
  1172  03E0                     l2711:	
  1173                           ;keypadpassword.c: 100: {
  1174                           ;keypadpassword.c: 101: while(RA0==1);
  1175  03E0  2BE1               	goto	l1070
  1176                           	
  1177  03E1                     l1071:	
  1178                           	
  1179  03E1                     l1070:	
  1180  03E1  1805               	btfsc	(40/8),(40)&7
  1181  03E2  2BE4               	goto	u3061
  1182  03E3  2BE5               	goto	u3060
  1183  03E4                     u3061:
  1184  03E4  2BE1               	goto	l1070
  1185  03E5                     u3060:
  1186  03E5  2BE6               	goto	l2713
  1187                           	
  1188  03E6                     l1072:	
  1189                           	line	102
  1190                           	
  1191  03E6                     l2713:	
  1192                           ;keypadpassword.c: 102: control=2;
  1193  03E6  3002               	movlw	low(02h)
  1194  03E7  00BC               	movwf	(main@control)
  1195  03E8  3000               	movlw	high(02h)
  1196  03E9  00BD               	movwf	((main@control))+1
  1197  03EA  2C01               	goto	l2719
  1198                           	line	103
  1199                           	
  1200  03EB                     l1069:	
  1201                           	line	104
  1202                           ;keypadpassword.c: 103: }
  1203                           ;keypadpassword.c: 104: while(count<3000)
  1204  03EB  2C01               	goto	l2719
  1205                           	
  1206  03EC                     l1074:	
  1207                           	line	106
  1208                           ;keypadpassword.c: 105: {
  1209                           ;keypadpassword.c: 106: RD0=0;RD1=1;RD2=1;RD3=1;
  1210  03EC  1283               	bcf	status, 5	;RP0=0, select bank0
  1211  03ED  1303               	bcf	status, 6	;RP1=0, select bank0
  1212  03EE  1008               	bcf	(64/8),(64)&7
  1213  03EF  1488               	bsf	(65/8),(65)&7
  1214  03F0  1508               	bsf	(66/8),(66)&7
  1215  03F1  1588               	bsf	(67/8),(67)&7
  1216                           	line	107
  1217                           	
  1218  03F2                     l2715:	
  1219                           ;keypadpassword.c: 107: PORTC=segment[arr[0]];
  1220  03F2  0840               	movf	(main@arr),w
  1221  03F3  00F0               	movwf	(??_main+0)+0
  1222  03F4  0770               	addwf	(??_main+0)+0,w
  1223  03F5  3E24               	addlw	main@segment&0ffh
  1224  03F6  0084               	movwf	fsr0
  1225  03F7  1383               	bcf	status, 7	;select IRP bank0
  1226  03F8  0800               	movf	indf,w
  1227  03F9  0087               	movwf	(7)	;volatile
  1228                           	line	108
  1229                           	
  1230  03FA                     l2717:	
  1231                           ;keypadpassword.c: 108: count++;
  1232  03FA  3001               	movlw	low(01h)
  1233  03FB  07D4               	addwf	(main@count),f
  1234  03FC  1803               	skipnc
  1235  03FD  0AD5               	incf	(main@count+1),f
  1236  03FE  3000               	movlw	high(01h)
  1237  03FF  07D5               	addwf	(main@count+1),f
  1238  0400  2C01               	goto	l2719
  1239                           	line	109
  1240                           	
  1241  0401                     l1073:	
  1242                           	line	104
  1243                           	
  1244  0401                     l2719:	
  1245  0401  0855               	movf	(main@count+1),w
  1246  0402  3A80               	xorlw	80h
  1247  0403  00FF               	movwf	btemp+1
  1248  0404  308B               	movlw	(high(0BB8h))^80h
  1249  0405  027F               	subwf	btemp+1,w
  1250  0406  1D03               	skipz
  1251  0407  2C0A               	goto	u3075
  1252  0408  30B8               	movlw	low(0BB8h)
  1253  0409  0254               	subwf	(main@count),w
  1254  040A                     u3075:
  1255                           
  1256  040A  1C03               	skipc
  1257  040B  2C0D               	goto	u3071
  1258  040C  2C0E               	goto	u3070
  1259  040D                     u3071:
  1260  040D  2BEC               	goto	l1074
  1261  040E                     u3070:
  1262  040E  2C0F               	goto	l2721
  1263                           	
  1264  040F                     l1075:	
  1265                           	line	110
  1266                           	
  1267  040F                     l2721:	
  1268                           ;keypadpassword.c: 109: }
  1269                           ;keypadpassword.c: 110: count=0;
  1270  040F  1283               	bcf	status, 5	;RP0=0, select bank0
  1271  0410  1303               	bcf	status, 6	;RP1=0, select bank0
  1272  0411  01D4               	clrf	(main@count)
  1273  0412  01D5               	clrf	(main@count+1)
  1274                           	line	111
  1275                           ;keypadpassword.c: 111: while(count<3000)
  1276  0413  2C29               	goto	l2727
  1277                           	
  1278  0414                     l1077:	
  1279                           	line	113
  1280                           ;keypadpassword.c: 112: {
  1281                           ;keypadpassword.c: 113: RD0=1;RD1=0;RD2=1;RD3=1;
  1282  0414  1283               	bcf	status, 5	;RP0=0, select bank0
  1283  0415  1303               	bcf	status, 6	;RP1=0, select bank0
  1284  0416  1408               	bsf	(64/8),(64)&7
  1285  0417  1088               	bcf	(65/8),(65)&7
  1286  0418  1508               	bsf	(66/8),(66)&7
  1287  0419  1588               	bsf	(67/8),(67)&7
  1288                           	line	114
  1289                           	
  1290  041A                     l2723:	
  1291                           ;keypadpassword.c: 114: PORTC=segment[arr[1]];
  1292  041A  0842               	movf	0+(main@arr)+02h,w
  1293  041B  00F0               	movwf	(??_main+0)+0
  1294  041C  0770               	addwf	(??_main+0)+0,w
  1295  041D  3E24               	addlw	main@segment&0ffh
  1296  041E  0084               	movwf	fsr0
  1297  041F  1383               	bcf	status, 7	;select IRP bank0
  1298  0420  0800               	movf	indf,w
  1299  0421  0087               	movwf	(7)	;volatile
  1300                           	line	115
  1301                           	
  1302  0422                     l2725:	
  1303                           ;keypadpassword.c: 115: count++;
  1304  0422  3001               	movlw	low(01h)
  1305  0423  07D4               	addwf	(main@count),f
  1306  0424  1803               	skipnc
  1307  0425  0AD5               	incf	(main@count+1),f
  1308  0426  3000               	movlw	high(01h)
  1309  0427  07D5               	addwf	(main@count+1),f
  1310  0428  2C29               	goto	l2727
  1311                           	line	116
  1312                           	
  1313  0429                     l1076:	
  1314                           	line	111
  1315                           	
  1316  0429                     l2727:	
  1317  0429  0855               	movf	(main@count+1),w
  1318  042A  3A80               	xorlw	80h
  1319  042B  00FF               	movwf	btemp+1
  1320  042C  308B               	movlw	(high(0BB8h))^80h
  1321  042D  027F               	subwf	btemp+1,w
  1322  042E  1D03               	skipz
  1323  042F  2C32               	goto	u3085
  1324  0430  30B8               	movlw	low(0BB8h)
  1325  0431  0254               	subwf	(main@count),w
  1326  0432                     u3085:
  1327                           
  1328  0432  1C03               	skipc
  1329  0433  2C35               	goto	u3081
  1330  0434  2C36               	goto	u3080
  1331  0435                     u3081:
  1332  0435  2C14               	goto	l1077
  1333  0436                     u3080:
  1334  0436  2C37               	goto	l2729
  1335                           	
  1336  0437                     l1078:	
  1337                           	line	117
  1338                           	
  1339  0437                     l2729:	
  1340                           ;keypadpassword.c: 116: }
  1341                           ;keypadpassword.c: 117: count=0;
  1342  0437  1283               	bcf	status, 5	;RP0=0, select bank0
  1343  0438  1303               	bcf	status, 6	;RP1=0, select bank0
  1344  0439  01D4               	clrf	(main@count)
  1345  043A  01D5               	clrf	(main@count+1)
  1346                           	line	118
  1347                           ;keypadpassword.c: 118: while(count<3000)
  1348  043B  2C51               	goto	l2735
  1349                           	
  1350  043C                     l1080:	
  1351                           	line	120
  1352                           ;keypadpassword.c: 119: {
  1353                           ;keypadpassword.c: 120: RD0=1;RD1=1;RD2=0;RD3=1;
  1354  043C  1283               	bcf	status, 5	;RP0=0, select bank0
  1355  043D  1303               	bcf	status, 6	;RP1=0, select bank0
  1356  043E  1408               	bsf	(64/8),(64)&7
  1357  043F  1488               	bsf	(65/8),(65)&7
  1358  0440  1108               	bcf	(66/8),(66)&7
  1359  0441  1588               	bsf	(67/8),(67)&7
  1360                           	line	121
  1361                           	
  1362  0442                     l2731:	
  1363                           ;keypadpassword.c: 121: PORTC=segment[arr[2]];
  1364  0442  0844               	movf	0+(main@arr)+04h,w
  1365  0443  00F0               	movwf	(??_main+0)+0
  1366  0444  0770               	addwf	(??_main+0)+0,w
  1367  0445  3E24               	addlw	main@segment&0ffh
  1368  0446  0084               	movwf	fsr0
  1369  0447  1383               	bcf	status, 7	;select IRP bank0
  1370  0448  0800               	movf	indf,w
  1371  0449  0087               	movwf	(7)	;volatile
  1372                           	line	122
  1373                           	
  1374  044A                     l2733:	
  1375                           ;keypadpassword.c: 122: count++;
  1376  044A  3001               	movlw	low(01h)
  1377  044B  07D4               	addwf	(main@count),f
  1378  044C  1803               	skipnc
  1379  044D  0AD5               	incf	(main@count+1),f
  1380  044E  3000               	movlw	high(01h)
  1381  044F  07D5               	addwf	(main@count+1),f
  1382  0450  2C51               	goto	l2735
  1383                           	line	123
  1384                           	
  1385  0451                     l1079:	
  1386                           	line	118
  1387                           	
  1388  0451                     l2735:	
  1389  0451  0855               	movf	(main@count+1),w
  1390  0452  3A80               	xorlw	80h
  1391  0453  00FF               	movwf	btemp+1
  1392  0454  308B               	movlw	(high(0BB8h))^80h
  1393  0455  027F               	subwf	btemp+1,w
  1394  0456  1D03               	skipz
  1395  0457  2C5A               	goto	u3095
  1396  0458  30B8               	movlw	low(0BB8h)
  1397  0459  0254               	subwf	(main@count),w
  1398  045A                     u3095:
  1399                           
  1400  045A  1C03               	skipc
  1401  045B  2C5D               	goto	u3091
  1402  045C  2C5E               	goto	u3090
  1403  045D                     u3091:
  1404  045D  2C3C               	goto	l1080
  1405  045E                     u3090:
  1406  045E  2C5F               	goto	l2737
  1407                           	
  1408  045F                     l1081:	
  1409                           	line	124
  1410                           	
  1411  045F                     l2737:	
  1412                           ;keypadpassword.c: 123: }
  1413                           ;keypadpassword.c: 124: count=0;
  1414  045F  1283               	bcf	status, 5	;RP0=0, select bank0
  1415  0460  1303               	bcf	status, 6	;RP1=0, select bank0
  1416  0461  01D4               	clrf	(main@count)
  1417  0462  01D5               	clrf	(main@count+1)
  1418                           	line	125
  1419                           ;keypadpassword.c: 125: while(count<3000)
  1420  0463  2C79               	goto	l2743
  1421                           	
  1422  0464                     l1083:	
  1423                           	line	127
  1424                           ;keypadpassword.c: 126: {
  1425                           ;keypadpassword.c: 127: RD0=1;RD1=1;RD2=1;RD3=0;
  1426  0464  1283               	bcf	status, 5	;RP0=0, select bank0
  1427  0465  1303               	bcf	status, 6	;RP1=0, select bank0
  1428  0466  1408               	bsf	(64/8),(64)&7
  1429  0467  1488               	bsf	(65/8),(65)&7
  1430  0468  1508               	bsf	(66/8),(66)&7
  1431  0469  1188               	bcf	(67/8),(67)&7
  1432                           	line	128
  1433                           	
  1434  046A                     l2739:	
  1435                           ;keypadpassword.c: 128: PORTC=segment[arr[3]];
  1436  046A  0846               	movf	0+(main@arr)+06h,w
  1437  046B  00F0               	movwf	(??_main+0)+0
  1438  046C  0770               	addwf	(??_main+0)+0,w
  1439  046D  3E24               	addlw	main@segment&0ffh
  1440  046E  0084               	movwf	fsr0
  1441  046F  1383               	bcf	status, 7	;select IRP bank0
  1442  0470  0800               	movf	indf,w
  1443  0471  0087               	movwf	(7)	;volatile
  1444                           	line	129
  1445                           	
  1446  0472                     l2741:	
  1447                           ;keypadpassword.c: 129: count++;
  1448  0472  3001               	movlw	low(01h)
  1449  0473  07D4               	addwf	(main@count),f
  1450  0474  1803               	skipnc
  1451  0475  0AD5               	incf	(main@count+1),f
  1452  0476  3000               	movlw	high(01h)
  1453  0477  07D5               	addwf	(main@count+1),f
  1454  0478  2C79               	goto	l2743
  1455                           	line	130
  1456                           	
  1457  0479                     l1082:	
  1458                           	line	125
  1459                           	
  1460  0479                     l2743:	
  1461  0479  0855               	movf	(main@count+1),w
  1462  047A  3A80               	xorlw	80h
  1463  047B  00FF               	movwf	btemp+1
  1464  047C  308B               	movlw	(high(0BB8h))^80h
  1465  047D  027F               	subwf	btemp+1,w
  1466  047E  1D03               	skipz
  1467  047F  2C82               	goto	u3105
  1468  0480  30B8               	movlw	low(0BB8h)
  1469  0481  0254               	subwf	(main@count),w
  1470  0482                     u3105:
  1471                           
  1472  0482  1C03               	skipc
  1473  0483  2C85               	goto	u3101
  1474  0484  2C86               	goto	u3100
  1475  0485                     u3101:
  1476  0485  2C64               	goto	l1083
  1477  0486                     u3100:
  1478  0486  2C87               	goto	l2745
  1479                           	
  1480  0487                     l1084:	
  1481                           	line	131
  1482                           	
  1483  0487                     l2745:	
  1484                           ;keypadpassword.c: 130: }
  1485                           ;keypadpassword.c: 131: count=0;
  1486  0487  1283               	bcf	status, 5	;RP0=0, select bank0
  1487  0488  1303               	bcf	status, 6	;RP1=0, select bank0
  1488  0489  01D4               	clrf	(main@count)
  1489  048A  01D5               	clrf	(main@count+1)
  1490  048B  2C8C               	goto	l2747
  1491                           	line	132
  1492                           	
  1493  048C                     l1032:	
  1494                           	line	133
  1495                           	
  1496  048C                     l2747:	
  1497                           ;keypadpassword.c: 132: }
  1498                           ;keypadpassword.c: 133: if(control==2)
  1499  048C  3002               	movlw	02h
  1500  048D  063C               	xorwf	(main@control),w
  1501  048E  043D               	iorwf	(main@control+1),w
  1502  048F  1D03               	skipz
  1503  0490  2C92               	goto	u3111
  1504  0491  2C93               	goto	u3110
  1505  0492                     u3111:
  1506  0492  2E47               	goto	l2823
  1507  0493                     u3110:
  1508                           	line	135
  1509                           	
  1510  0493                     l2749:	
  1511                           ;keypadpassword.c: 134: {
  1512                           ;keypadpassword.c: 135: RB0=1;
  1513  0493  1406               	bsf	(48/8),(48)&7
  1514                           	line	136
  1515                           ;keypadpassword.c: 136: RB1=0;
  1516  0494  1086               	bcf	(49/8),(49)&7
  1517                           	line	137
  1518                           ;keypadpassword.c: 137: RB2=0;
  1519  0495  1106               	bcf	(50/8),(50)&7
  1520                           	line	138
  1521                           ;keypadpassword.c: 138: RB3=0;
  1522  0496  1186               	bcf	(51/8),(51)&7
  1523                           	line	139
  1524                           ;keypadpassword.c: 139: if(RA0==1)
  1525  0497  1C05               	btfss	(40/8),(40)&7
  1526  0498  2C9A               	goto	u3121
  1527  0499  2C9B               	goto	u3120
  1528  049A                     u3121:
  1529  049A  2CB2               	goto	l1086
  1530  049B                     u3120:
  1531                           	line	141
  1532                           	
  1533  049B                     l2751:	
  1534                           ;keypadpassword.c: 140: {
  1535                           ;keypadpassword.c: 141: mat[dump]=1;
  1536  049B  0852               	movf	(main@dump),w
  1537  049C  00F0               	movwf	(??_main+0)+0
  1538  049D  0770               	addwf	(??_main+0)+0,w
  1539  049E  3E48               	addlw	main@mat&0ffh
  1540  049F  0084               	movwf	fsr0
  1541  04A0  3001               	movlw	low(01h)
  1542  04A1  1383               	bcf	status, 7	;select IRP bank0
  1543  04A2  0080               	movwf	indf
  1544  04A3  0A84               	incf	fsr0,f
  1545  04A4  3000               	movlw	high(01h)
  1546  04A5  0080               	movwf	indf
  1547                           	line	142
  1548                           	
  1549  04A6                     l2753:	
  1550                           ;keypadpassword.c: 142: dump++;
  1551  04A6  3001               	movlw	low(01h)
  1552  04A7  07D2               	addwf	(main@dump),f
  1553  04A8  1803               	skipnc
  1554  04A9  0AD3               	incf	(main@dump+1),f
  1555  04AA  3000               	movlw	high(01h)
  1556  04AB  07D3               	addwf	(main@dump+1),f
  1557                           	line	143
  1558                           ;keypadpassword.c: 143: while(RA0==1);
  1559  04AC  2CAD               	goto	l1087
  1560                           	
  1561  04AD                     l1088:	
  1562                           	
  1563  04AD                     l1087:	
  1564  04AD  1805               	btfsc	(40/8),(40)&7
  1565  04AE  2CB0               	goto	u3131
  1566  04AF  2CB1               	goto	u3130
  1567  04B0                     u3131:
  1568  04B0  2CAD               	goto	l1087
  1569  04B1                     u3130:
  1570  04B1  2CB2               	goto	l1086
  1571                           	
  1572  04B2                     l1089:	
  1573                           	line	144
  1574                           	
  1575  04B2                     l1086:	
  1576                           	line	145
  1577                           ;keypadpassword.c: 144: }
  1578                           ;keypadpassword.c: 145: if(RA1==1)
  1579  04B2  1C85               	btfss	(41/8),(41)&7
  1580  04B3  2CB5               	goto	u3141
  1581  04B4  2CB6               	goto	u3140
  1582  04B5                     u3141:
  1583  04B5  2CCD               	goto	l1090
  1584  04B6                     u3140:
  1585                           	line	147
  1586                           	
  1587  04B6                     l2755:	
  1588                           ;keypadpassword.c: 146: {
  1589                           ;keypadpassword.c: 147: mat[dump]=2;
  1590  04B6  0852               	movf	(main@dump),w
  1591  04B7  00F0               	movwf	(??_main+0)+0
  1592  04B8  0770               	addwf	(??_main+0)+0,w
  1593  04B9  3E48               	addlw	main@mat&0ffh
  1594  04BA  0084               	movwf	fsr0
  1595  04BB  3002               	movlw	low(02h)
  1596  04BC  1383               	bcf	status, 7	;select IRP bank0
  1597  04BD  0080               	movwf	indf
  1598  04BE  0A84               	incf	fsr0,f
  1599  04BF  3000               	movlw	high(02h)
  1600  04C0  0080               	movwf	indf
  1601                           	line	148
  1602                           	
  1603  04C1                     l2757:	
  1604                           ;keypadpassword.c: 148: dump++;
  1605  04C1  3001               	movlw	low(01h)
  1606  04C2  07D2               	addwf	(main@dump),f
  1607  04C3  1803               	skipnc
  1608  04C4  0AD3               	incf	(main@dump+1),f
  1609  04C5  3000               	movlw	high(01h)
  1610  04C6  07D3               	addwf	(main@dump+1),f
  1611                           	line	149
  1612                           ;keypadpassword.c: 149: while(RA0==1);
  1613  04C7  2CC8               	goto	l1091
  1614                           	
  1615  04C8                     l1092:	
  1616                           	
  1617  04C8                     l1091:	
  1618  04C8  1805               	btfsc	(40/8),(40)&7
  1619  04C9  2CCB               	goto	u3151
  1620  04CA  2CCC               	goto	u3150
  1621  04CB                     u3151:
  1622  04CB  2CC8               	goto	l1091
  1623  04CC                     u3150:
  1624  04CC  2CCD               	goto	l1090
  1625                           	
  1626  04CD                     l1093:	
  1627                           	line	150
  1628                           	
  1629  04CD                     l1090:	
  1630                           	line	151
  1631                           ;keypadpassword.c: 150: }
  1632                           ;keypadpassword.c: 151: if(RA2==1)
  1633  04CD  1D05               	btfss	(42/8),(42)&7
  1634  04CE  2CD0               	goto	u3161
  1635  04CF  2CD1               	goto	u3160
  1636  04D0                     u3161:
  1637  04D0  2CE8               	goto	l1094
  1638  04D1                     u3160:
  1639                           	line	153
  1640                           	
  1641  04D1                     l2759:	
  1642                           ;keypadpassword.c: 152: {
  1643                           ;keypadpassword.c: 153: mat[dump]=3;
  1644  04D1  0852               	movf	(main@dump),w
  1645  04D2  00F0               	movwf	(??_main+0)+0
  1646  04D3  0770               	addwf	(??_main+0)+0,w
  1647  04D4  3E48               	addlw	main@mat&0ffh
  1648  04D5  0084               	movwf	fsr0
  1649  04D6  3003               	movlw	low(03h)
  1650  04D7  1383               	bcf	status, 7	;select IRP bank0
  1651  04D8  0080               	movwf	indf
  1652  04D9  0A84               	incf	fsr0,f
  1653  04DA  3000               	movlw	high(03h)
  1654  04DB  0080               	movwf	indf
  1655                           	line	154
  1656                           	
  1657  04DC                     l2761:	
  1658                           ;keypadpassword.c: 154: dump++;
  1659  04DC  3001               	movlw	low(01h)
  1660  04DD  07D2               	addwf	(main@dump),f
  1661  04DE  1803               	skipnc
  1662  04DF  0AD3               	incf	(main@dump+1),f
  1663  04E0  3000               	movlw	high(01h)
  1664  04E1  07D3               	addwf	(main@dump+1),f
  1665                           	line	155
  1666                           ;keypadpassword.c: 155: while(RA0==1);
  1667  04E2  2CE3               	goto	l1095
  1668                           	
  1669  04E3                     l1096:	
  1670                           	
  1671  04E3                     l1095:	
  1672  04E3  1805               	btfsc	(40/8),(40)&7
  1673  04E4  2CE6               	goto	u3171
  1674  04E5  2CE7               	goto	u3170
  1675  04E6                     u3171:
  1676  04E6  2CE3               	goto	l1095
  1677  04E7                     u3170:
  1678  04E7  2CE8               	goto	l1094
  1679                           	
  1680  04E8                     l1097:	
  1681                           	line	156
  1682                           	
  1683  04E8                     l1094:	
  1684                           	line	157
  1685                           ;keypadpassword.c: 156: }
  1686                           ;keypadpassword.c: 157: RB0=0;
  1687  04E8  1006               	bcf	(48/8),(48)&7
  1688                           	line	158
  1689                           ;keypadpassword.c: 158: RB1=1;
  1690  04E9  1486               	bsf	(49/8),(49)&7
  1691                           	line	159
  1692                           ;keypadpassword.c: 159: RB2=0;
  1693  04EA  1106               	bcf	(50/8),(50)&7
  1694                           	line	160
  1695                           ;keypadpassword.c: 160: RB3=0;
  1696  04EB  1186               	bcf	(51/8),(51)&7
  1697                           	line	161
  1698                           ;keypadpassword.c: 161: if(RA0==1)
  1699  04EC  1C05               	btfss	(40/8),(40)&7
  1700  04ED  2CEF               	goto	u3181
  1701  04EE  2CF0               	goto	u3180
  1702  04EF                     u3181:
  1703  04EF  2D07               	goto	l1098
  1704  04F0                     u3180:
  1705                           	line	163
  1706                           	
  1707  04F0                     l2763:	
  1708                           ;keypadpassword.c: 162: {
  1709                           ;keypadpassword.c: 163: mat[dump]=4;
  1710  04F0  0852               	movf	(main@dump),w
  1711  04F1  00F0               	movwf	(??_main+0)+0
  1712  04F2  0770               	addwf	(??_main+0)+0,w
  1713  04F3  3E48               	addlw	main@mat&0ffh
  1714  04F4  0084               	movwf	fsr0
  1715  04F5  3004               	movlw	low(04h)
  1716  04F6  1383               	bcf	status, 7	;select IRP bank0
  1717  04F7  0080               	movwf	indf
  1718  04F8  0A84               	incf	fsr0,f
  1719  04F9  3000               	movlw	high(04h)
  1720  04FA  0080               	movwf	indf
  1721                           	line	164
  1722                           	
  1723  04FB                     l2765:	
  1724                           ;keypadpassword.c: 164: dump++;
  1725  04FB  3001               	movlw	low(01h)
  1726  04FC  07D2               	addwf	(main@dump),f
  1727  04FD  1803               	skipnc
  1728  04FE  0AD3               	incf	(main@dump+1),f
  1729  04FF  3000               	movlw	high(01h)
  1730  0500  07D3               	addwf	(main@dump+1),f
  1731                           	line	165
  1732                           ;keypadpassword.c: 165: while(RA0==1);
  1733  0501  2D02               	goto	l1099
  1734                           	
  1735  0502                     l1100:	
  1736                           	
  1737  0502                     l1099:	
  1738  0502  1805               	btfsc	(40/8),(40)&7
  1739  0503  2D05               	goto	u3191
  1740  0504  2D06               	goto	u3190
  1741  0505                     u3191:
  1742  0505  2D02               	goto	l1099
  1743  0506                     u3190:
  1744  0506  2D07               	goto	l1098
  1745                           	
  1746  0507                     l1101:	
  1747                           	line	166
  1748                           	
  1749  0507                     l1098:	
  1750                           	line	167
  1751                           ;keypadpassword.c: 166: }
  1752                           ;keypadpassword.c: 167: if(RA1==1)
  1753  0507  1C85               	btfss	(41/8),(41)&7
  1754  0508  2D0A               	goto	u3201
  1755  0509  2D0B               	goto	u3200
  1756  050A                     u3201:
  1757  050A  2D22               	goto	l1102
  1758  050B                     u3200:
  1759                           	line	169
  1760                           	
  1761  050B                     l2767:	
  1762                           ;keypadpassword.c: 168: {
  1763                           ;keypadpassword.c: 169: mat[dump]=5;
  1764  050B  0852               	movf	(main@dump),w
  1765  050C  00F0               	movwf	(??_main+0)+0
  1766  050D  0770               	addwf	(??_main+0)+0,w
  1767  050E  3E48               	addlw	main@mat&0ffh
  1768  050F  0084               	movwf	fsr0
  1769  0510  3005               	movlw	low(05h)
  1770  0511  1383               	bcf	status, 7	;select IRP bank0
  1771  0512  0080               	movwf	indf
  1772  0513  0A84               	incf	fsr0,f
  1773  0514  3000               	movlw	high(05h)
  1774  0515  0080               	movwf	indf
  1775                           	line	170
  1776                           	
  1777  0516                     l2769:	
  1778                           ;keypadpassword.c: 170: dump++;
  1779  0516  3001               	movlw	low(01h)
  1780  0517  07D2               	addwf	(main@dump),f
  1781  0518  1803               	skipnc
  1782  0519  0AD3               	incf	(main@dump+1),f
  1783  051A  3000               	movlw	high(01h)
  1784  051B  07D3               	addwf	(main@dump+1),f
  1785                           	line	171
  1786                           ;keypadpassword.c: 171: while(RA0==1);
  1787  051C  2D1D               	goto	l1103
  1788                           	
  1789  051D                     l1104:	
  1790                           	
  1791  051D                     l1103:	
  1792  051D  1805               	btfsc	(40/8),(40)&7
  1793  051E  2D20               	goto	u3211
  1794  051F  2D21               	goto	u3210
  1795  0520                     u3211:
  1796  0520  2D1D               	goto	l1103
  1797  0521                     u3210:
  1798  0521  2D22               	goto	l1102
  1799                           	
  1800  0522                     l1105:	
  1801                           	line	172
  1802                           	
  1803  0522                     l1102:	
  1804                           	line	173
  1805                           ;keypadpassword.c: 172: }
  1806                           ;keypadpassword.c: 173: if(RA2==1)
  1807  0522  1D05               	btfss	(42/8),(42)&7
  1808  0523  2D25               	goto	u3221
  1809  0524  2D26               	goto	u3220
  1810  0525                     u3221:
  1811  0525  2D3D               	goto	l1106
  1812  0526                     u3220:
  1813                           	line	175
  1814                           	
  1815  0526                     l2771:	
  1816                           ;keypadpassword.c: 174: {
  1817                           ;keypadpassword.c: 175: mat[dump]=6;
  1818  0526  0852               	movf	(main@dump),w
  1819  0527  00F0               	movwf	(??_main+0)+0
  1820  0528  0770               	addwf	(??_main+0)+0,w
  1821  0529  3E48               	addlw	main@mat&0ffh
  1822  052A  0084               	movwf	fsr0
  1823  052B  3006               	movlw	low(06h)
  1824  052C  1383               	bcf	status, 7	;select IRP bank0
  1825  052D  0080               	movwf	indf
  1826  052E  0A84               	incf	fsr0,f
  1827  052F  3000               	movlw	high(06h)
  1828  0530  0080               	movwf	indf
  1829                           	line	176
  1830                           	
  1831  0531                     l2773:	
  1832                           ;keypadpassword.c: 176: dump++;
  1833  0531  3001               	movlw	low(01h)
  1834  0532  07D2               	addwf	(main@dump),f
  1835  0533  1803               	skipnc
  1836  0534  0AD3               	incf	(main@dump+1),f
  1837  0535  3000               	movlw	high(01h)
  1838  0536  07D3               	addwf	(main@dump+1),f
  1839                           	line	177
  1840                           ;keypadpassword.c: 177: while(RA0==1);
  1841  0537  2D38               	goto	l1107
  1842                           	
  1843  0538                     l1108:	
  1844                           	
  1845  0538                     l1107:	
  1846  0538  1805               	btfsc	(40/8),(40)&7
  1847  0539  2D3B               	goto	u3231
  1848  053A  2D3C               	goto	u3230
  1849  053B                     u3231:
  1850  053B  2D38               	goto	l1107
  1851  053C                     u3230:
  1852  053C  2D3D               	goto	l1106
  1853                           	
  1854  053D                     l1109:	
  1855                           	line	178
  1856                           	
  1857  053D                     l1106:	
  1858                           	line	179
  1859                           ;keypadpassword.c: 178: }
  1860                           ;keypadpassword.c: 179: RB0=0;
  1861  053D  1006               	bcf	(48/8),(48)&7
  1862                           	line	180
  1863                           ;keypadpassword.c: 180: RB1=0;
  1864  053E  1086               	bcf	(49/8),(49)&7
  1865                           	line	181
  1866                           ;keypadpassword.c: 181: RB2=1;
  1867  053F  1506               	bsf	(50/8),(50)&7
  1868                           	line	182
  1869                           ;keypadpassword.c: 182: RB3=0;
  1870  0540  1186               	bcf	(51/8),(51)&7
  1871                           	line	183
  1872                           ;keypadpassword.c: 183: if(RA0==1)
  1873  0541  1C05               	btfss	(40/8),(40)&7
  1874  0542  2D44               	goto	u3241
  1875  0543  2D45               	goto	u3240
  1876  0544                     u3241:
  1877  0544  2D5C               	goto	l1110
  1878  0545                     u3240:
  1879                           	line	185
  1880                           	
  1881  0545                     l2775:	
  1882                           ;keypadpassword.c: 184: {
  1883                           ;keypadpassword.c: 185: mat[dump]=7;
  1884  0545  0852               	movf	(main@dump),w
  1885  0546  00F0               	movwf	(??_main+0)+0
  1886  0547  0770               	addwf	(??_main+0)+0,w
  1887  0548  3E48               	addlw	main@mat&0ffh
  1888  0549  0084               	movwf	fsr0
  1889  054A  3007               	movlw	low(07h)
  1890  054B  1383               	bcf	status, 7	;select IRP bank0
  1891  054C  0080               	movwf	indf
  1892  054D  0A84               	incf	fsr0,f
  1893  054E  3000               	movlw	high(07h)
  1894  054F  0080               	movwf	indf
  1895                           	line	186
  1896                           	
  1897  0550                     l2777:	
  1898                           ;keypadpassword.c: 186: dump++;
  1899  0550  3001               	movlw	low(01h)
  1900  0551  07D2               	addwf	(main@dump),f
  1901  0552  1803               	skipnc
  1902  0553  0AD3               	incf	(main@dump+1),f
  1903  0554  3000               	movlw	high(01h)
  1904  0555  07D3               	addwf	(main@dump+1),f
  1905                           	line	187
  1906                           ;keypadpassword.c: 187: while(RA0==1);
  1907  0556  2D57               	goto	l1111
  1908                           	
  1909  0557                     l1112:	
  1910                           	
  1911  0557                     l1111:	
  1912  0557  1805               	btfsc	(40/8),(40)&7
  1913  0558  2D5A               	goto	u3251
  1914  0559  2D5B               	goto	u3250
  1915  055A                     u3251:
  1916  055A  2D57               	goto	l1111
  1917  055B                     u3250:
  1918  055B  2D5C               	goto	l1110
  1919                           	
  1920  055C                     l1113:	
  1921                           	line	188
  1922                           	
  1923  055C                     l1110:	
  1924                           	line	189
  1925                           ;keypadpassword.c: 188: }
  1926                           ;keypadpassword.c: 189: if(RA1==1)
  1927  055C  1C85               	btfss	(41/8),(41)&7
  1928  055D  2D5F               	goto	u3261
  1929  055E  2D60               	goto	u3260
  1930  055F                     u3261:
  1931  055F  2D77               	goto	l1114
  1932  0560                     u3260:
  1933                           	line	191
  1934                           	
  1935  0560                     l2779:	
  1936                           ;keypadpassword.c: 190: {
  1937                           ;keypadpassword.c: 191: mat[dump]=8;
  1938  0560  0852               	movf	(main@dump),w
  1939  0561  00F0               	movwf	(??_main+0)+0
  1940  0562  0770               	addwf	(??_main+0)+0,w
  1941  0563  3E48               	addlw	main@mat&0ffh
  1942  0564  0084               	movwf	fsr0
  1943  0565  3008               	movlw	low(08h)
  1944  0566  1383               	bcf	status, 7	;select IRP bank0
  1945  0567  0080               	movwf	indf
  1946  0568  0A84               	incf	fsr0,f
  1947  0569  3000               	movlw	high(08h)
  1948  056A  0080               	movwf	indf
  1949                           	line	192
  1950                           	
  1951  056B                     l2781:	
  1952                           ;keypadpassword.c: 192: dump++;
  1953  056B  3001               	movlw	low(01h)
  1954  056C  07D2               	addwf	(main@dump),f
  1955  056D  1803               	skipnc
  1956  056E  0AD3               	incf	(main@dump+1),f
  1957  056F  3000               	movlw	high(01h)
  1958  0570  07D3               	addwf	(main@dump+1),f
  1959                           	line	193
  1960                           ;keypadpassword.c: 193: while(RA0==1);
  1961  0571  2D72               	goto	l1115
  1962                           	
  1963  0572                     l1116:	
  1964                           	
  1965  0572                     l1115:	
  1966  0572  1805               	btfsc	(40/8),(40)&7
  1967  0573  2D75               	goto	u3271
  1968  0574  2D76               	goto	u3270
  1969  0575                     u3271:
  1970  0575  2D72               	goto	l1115
  1971  0576                     u3270:
  1972  0576  2D77               	goto	l1114
  1973                           	
  1974  0577                     l1117:	
  1975                           	line	194
  1976                           	
  1977  0577                     l1114:	
  1978                           	line	195
  1979                           ;keypadpassword.c: 194: }
  1980                           ;keypadpassword.c: 195: if(RA2==1)
  1981  0577  1D05               	btfss	(42/8),(42)&7
  1982  0578  2D7A               	goto	u3281
  1983  0579  2D7B               	goto	u3280
  1984  057A                     u3281:
  1985  057A  2D92               	goto	l1118
  1986  057B                     u3280:
  1987                           	line	197
  1988                           	
  1989  057B                     l2783:	
  1990                           ;keypadpassword.c: 196: {
  1991                           ;keypadpassword.c: 197: mat[dump]=9;
  1992  057B  0852               	movf	(main@dump),w
  1993  057C  00F0               	movwf	(??_main+0)+0
  1994  057D  0770               	addwf	(??_main+0)+0,w
  1995  057E  3E48               	addlw	main@mat&0ffh
  1996  057F  0084               	movwf	fsr0
  1997  0580  3009               	movlw	low(09h)
  1998  0581  1383               	bcf	status, 7	;select IRP bank0
  1999  0582  0080               	movwf	indf
  2000  0583  0A84               	incf	fsr0,f
  2001  0584  3000               	movlw	high(09h)
  2002  0585  0080               	movwf	indf
  2003                           	line	198
  2004                           	
  2005  0586                     l2785:	
  2006                           ;keypadpassword.c: 198: dump++;
  2007  0586  3001               	movlw	low(01h)
  2008  0587  07D2               	addwf	(main@dump),f
  2009  0588  1803               	skipnc
  2010  0589  0AD3               	incf	(main@dump+1),f
  2011  058A  3000               	movlw	high(01h)
  2012  058B  07D3               	addwf	(main@dump+1),f
  2013                           	line	199
  2014                           ;keypadpassword.c: 199: while(RA0==1);
  2015  058C  2D8D               	goto	l1119
  2016                           	
  2017  058D                     l1120:	
  2018                           	
  2019  058D                     l1119:	
  2020  058D  1805               	btfsc	(40/8),(40)&7
  2021  058E  2D90               	goto	u3291
  2022  058F  2D91               	goto	u3290
  2023  0590                     u3291:
  2024  0590  2D8D               	goto	l1119
  2025  0591                     u3290:
  2026  0591  2D92               	goto	l1118
  2027                           	
  2028  0592                     l1121:	
  2029                           	line	200
  2030                           	
  2031  0592                     l1118:	
  2032                           	line	201
  2033                           ;keypadpassword.c: 200: }
  2034                           ;keypadpassword.c: 201: RB0=0;
  2035  0592  1006               	bcf	(48/8),(48)&7
  2036                           	line	202
  2037                           ;keypadpassword.c: 202: RB1=0;
  2038  0593  1086               	bcf	(49/8),(49)&7
  2039                           	line	203
  2040                           ;keypadpassword.c: 203: RB2=0;
  2041  0594  1106               	bcf	(50/8),(50)&7
  2042                           	line	204
  2043                           ;keypadpassword.c: 204: RB3=1;
  2044  0595  1586               	bsf	(51/8),(51)&7
  2045                           	line	205
  2046                           ;keypadpassword.c: 205: if(RA0==1)
  2047  0596  1C05               	btfss	(40/8),(40)&7
  2048  0597  2D99               	goto	u3301
  2049  0598  2D9A               	goto	u3300
  2050  0599                     u3301:
  2051  0599  2DBC               	goto	l2795
  2052  059A                     u3300:
  2053  059A  2D9C               	goto	l1123
  2054                           	line	207
  2055                           	
  2056  059B                     l2787:	
  2057                           ;keypadpassword.c: 206: {
  2058                           ;keypadpassword.c: 207: while(RA0==1);
  2059  059B  2D9C               	goto	l1123
  2060                           	
  2061  059C                     l1124:	
  2062                           	
  2063  059C                     l1123:	
  2064  059C  1805               	btfsc	(40/8),(40)&7
  2065  059D  2D9F               	goto	u3311
  2066  059E  2DA0               	goto	u3310
  2067  059F                     u3311:
  2068  059F  2D9C               	goto	l1123
  2069  05A0                     u3310:
  2070  05A0  2DA1               	goto	l2789
  2071                           	
  2072  05A1                     l1125:	
  2073                           	line	208
  2074                           	
  2075  05A1                     l2789:	
  2076                           ;keypadpassword.c: 208: control=3;
  2077  05A1  3003               	movlw	low(03h)
  2078  05A2  00BC               	movwf	(main@control)
  2079  05A3  3000               	movlw	high(03h)
  2080  05A4  00BD               	movwf	((main@control))+1
  2081  05A5  2DBC               	goto	l2795
  2082                           	line	209
  2083                           	
  2084  05A6                     l1122:	
  2085                           	line	210
  2086                           ;keypadpassword.c: 209: }
  2087                           ;keypadpassword.c: 210: while(count<3000)
  2088  05A6  2DBC               	goto	l2795
  2089                           	
  2090  05A7                     l1127:	
  2091                           	line	212
  2092                           ;keypadpassword.c: 211: {
  2093                           ;keypadpassword.c: 212: RD0=0;RD1=1;RD2=1;RD3=1;
  2094  05A7  1283               	bcf	status, 5	;RP0=0, select bank0
  2095  05A8  1303               	bcf	status, 6	;RP1=0, select bank0
  2096  05A9  1008               	bcf	(64/8),(64)&7
  2097  05AA  1488               	bsf	(65/8),(65)&7
  2098  05AB  1508               	bsf	(66/8),(66)&7
  2099  05AC  1588               	bsf	(67/8),(67)&7
  2100                           	line	213
  2101                           	
  2102  05AD                     l2791:	
  2103                           ;keypadpassword.c: 213: PORTC=segment[mat[0]];
  2104  05AD  0848               	movf	(main@mat),w
  2105  05AE  00F0               	movwf	(??_main+0)+0
  2106  05AF  0770               	addwf	(??_main+0)+0,w
  2107  05B0  3E24               	addlw	main@segment&0ffh
  2108  05B1  0084               	movwf	fsr0
  2109  05B2  1383               	bcf	status, 7	;select IRP bank0
  2110  05B3  0800               	movf	indf,w
  2111  05B4  0087               	movwf	(7)	;volatile
  2112                           	line	214
  2113                           	
  2114  05B5                     l2793:	
  2115                           ;keypadpassword.c: 214: count++;
  2116  05B5  3001               	movlw	low(01h)
  2117  05B6  07D4               	addwf	(main@count),f
  2118  05B7  1803               	skipnc
  2119  05B8  0AD5               	incf	(main@count+1),f
  2120  05B9  3000               	movlw	high(01h)
  2121  05BA  07D5               	addwf	(main@count+1),f
  2122  05BB  2DBC               	goto	l2795
  2123                           	line	215
  2124                           	
  2125  05BC                     l1126:	
  2126                           	line	210
  2127                           	
  2128  05BC                     l2795:	
  2129  05BC  0855               	movf	(main@count+1),w
  2130  05BD  3A80               	xorlw	80h
  2131  05BE  00FF               	movwf	btemp+1
  2132  05BF  308B               	movlw	(high(0BB8h))^80h
  2133  05C0  027F               	subwf	btemp+1,w
  2134  05C1  1D03               	skipz
  2135  05C2  2DC5               	goto	u3325
  2136  05C3  30B8               	movlw	low(0BB8h)
  2137  05C4  0254               	subwf	(main@count),w
  2138  05C5                     u3325:
  2139                           
  2140  05C5  1C03               	skipc
  2141  05C6  2DC8               	goto	u3321
  2142  05C7  2DC9               	goto	u3320
  2143  05C8                     u3321:
  2144  05C8  2DA7               	goto	l1127
  2145  05C9                     u3320:
  2146  05C9  2DCA               	goto	l2797
  2147                           	
  2148  05CA                     l1128:	
  2149                           	line	216
  2150                           	
  2151  05CA                     l2797:	
  2152                           ;keypadpassword.c: 215: }
  2153                           ;keypadpassword.c: 216: count=0;
  2154  05CA  1283               	bcf	status, 5	;RP0=0, select bank0
  2155  05CB  1303               	bcf	status, 6	;RP1=0, select bank0
  2156  05CC  01D4               	clrf	(main@count)
  2157  05CD  01D5               	clrf	(main@count+1)
  2158                           	line	217
  2159                           ;keypadpassword.c: 217: while(count<3000)
  2160  05CE  2DE4               	goto	l2803
  2161                           	
  2162  05CF                     l1130:	
  2163                           	line	219
  2164                           ;keypadpassword.c: 218: {
  2165                           ;keypadpassword.c: 219: RD0=1;RD1=0;RD2=1;RD3=1;
  2166  05CF  1283               	bcf	status, 5	;RP0=0, select bank0
  2167  05D0  1303               	bcf	status, 6	;RP1=0, select bank0
  2168  05D1  1408               	bsf	(64/8),(64)&7
  2169  05D2  1088               	bcf	(65/8),(65)&7
  2170  05D3  1508               	bsf	(66/8),(66)&7
  2171  05D4  1588               	bsf	(67/8),(67)&7
  2172                           	line	220
  2173                           	
  2174  05D5                     l2799:	
  2175                           ;keypadpassword.c: 220: PORTC=segment[mat[1]];
  2176  05D5  084A               	movf	0+(main@mat)+02h,w
  2177  05D6  00F0               	movwf	(??_main+0)+0
  2178  05D7  0770               	addwf	(??_main+0)+0,w
  2179  05D8  3E24               	addlw	main@segment&0ffh
  2180  05D9  0084               	movwf	fsr0
  2181  05DA  1383               	bcf	status, 7	;select IRP bank0
  2182  05DB  0800               	movf	indf,w
  2183  05DC  0087               	movwf	(7)	;volatile
  2184                           	line	221
  2185                           	
  2186  05DD                     l2801:	
  2187                           ;keypadpassword.c: 221: count++;
  2188  05DD  3001               	movlw	low(01h)
  2189  05DE  07D4               	addwf	(main@count),f
  2190  05DF  1803               	skipnc
  2191  05E0  0AD5               	incf	(main@count+1),f
  2192  05E1  3000               	movlw	high(01h)
  2193  05E2  07D5               	addwf	(main@count+1),f
  2194  05E3  2DE4               	goto	l2803
  2195                           	line	222
  2196                           	
  2197  05E4                     l1129:	
  2198                           	line	217
  2199                           	
  2200  05E4                     l2803:	
  2201  05E4  0855               	movf	(main@count+1),w
  2202  05E5  3A80               	xorlw	80h
  2203  05E6  00FF               	movwf	btemp+1
  2204  05E7  308B               	movlw	(high(0BB8h))^80h
  2205  05E8  027F               	subwf	btemp+1,w
  2206  05E9  1D03               	skipz
  2207  05EA  2DED               	goto	u3335
  2208  05EB  30B8               	movlw	low(0BB8h)
  2209  05EC  0254               	subwf	(main@count),w
  2210  05ED                     u3335:
  2211                           
  2212  05ED  1C03               	skipc
  2213  05EE  2DF0               	goto	u3331
  2214  05EF  2DF1               	goto	u3330
  2215  05F0                     u3331:
  2216  05F0  2DCF               	goto	l1130
  2217  05F1                     u3330:
  2218  05F1  2DF2               	goto	l2805
  2219                           	
  2220  05F2                     l1131:	
  2221                           	line	223
  2222                           	
  2223  05F2                     l2805:	
  2224                           ;keypadpassword.c: 222: }
  2225                           ;keypadpassword.c: 223: count=0;
  2226  05F2  1283               	bcf	status, 5	;RP0=0, select bank0
  2227  05F3  1303               	bcf	status, 6	;RP1=0, select bank0
  2228  05F4  01D4               	clrf	(main@count)
  2229  05F5  01D5               	clrf	(main@count+1)
  2230                           	line	224
  2231                           ;keypadpassword.c: 224: while(count<3000)
  2232  05F6  2E0C               	goto	l2811
  2233                           	
  2234  05F7                     l1133:	
  2235                           	line	226
  2236                           ;keypadpassword.c: 225: {
  2237                           ;keypadpassword.c: 226: RD0=1;RD1=1;RD2=0;RD3=1;
  2238  05F7  1283               	bcf	status, 5	;RP0=0, select bank0
  2239  05F8  1303               	bcf	status, 6	;RP1=0, select bank0
  2240  05F9  1408               	bsf	(64/8),(64)&7
  2241  05FA  1488               	bsf	(65/8),(65)&7
  2242  05FB  1108               	bcf	(66/8),(66)&7
  2243  05FC  1588               	bsf	(67/8),(67)&7
  2244                           	line	227
  2245                           	
  2246  05FD                     l2807:	
  2247                           ;keypadpassword.c: 227: PORTC=segment[mat[2]];
  2248  05FD  084C               	movf	0+(main@mat)+04h,w
  2249  05FE  00F0               	movwf	(??_main+0)+0
  2250  05FF  0770               	addwf	(??_main+0)+0,w
  2251  0600  3E24               	addlw	main@segment&0ffh
  2252  0601  0084               	movwf	fsr0
  2253  0602  1383               	bcf	status, 7	;select IRP bank0
  2254  0603  0800               	movf	indf,w
  2255  0604  0087               	movwf	(7)	;volatile
  2256                           	line	228
  2257                           	
  2258  0605                     l2809:	
  2259                           ;keypadpassword.c: 228: count++;
  2260  0605  3001               	movlw	low(01h)
  2261  0606  07D4               	addwf	(main@count),f
  2262  0607  1803               	skipnc
  2263  0608  0AD5               	incf	(main@count+1),f
  2264  0609  3000               	movlw	high(01h)
  2265  060A  07D5               	addwf	(main@count+1),f
  2266  060B  2E0C               	goto	l2811
  2267                           	line	229
  2268                           	
  2269  060C                     l1132:	
  2270                           	line	224
  2271                           	
  2272  060C                     l2811:	
  2273  060C  0855               	movf	(main@count+1),w
  2274  060D  3A80               	xorlw	80h
  2275  060E  00FF               	movwf	btemp+1
  2276  060F  308B               	movlw	(high(0BB8h))^80h
  2277  0610  027F               	subwf	btemp+1,w
  2278  0611  1D03               	skipz
  2279  0612  2E15               	goto	u3345
  2280  0613  30B8               	movlw	low(0BB8h)
  2281  0614  0254               	subwf	(main@count),w
  2282  0615                     u3345:
  2283                           
  2284  0615  1C03               	skipc
  2285  0616  2E18               	goto	u3341
  2286  0617  2E19               	goto	u3340
  2287  0618                     u3341:
  2288  0618  2DF7               	goto	l1133
  2289  0619                     u3340:
  2290  0619  2E1A               	goto	l2813
  2291                           	
  2292  061A                     l1134:	
  2293                           	line	230
  2294                           	
  2295  061A                     l2813:	
  2296                           ;keypadpassword.c: 229: }
  2297                           ;keypadpassword.c: 230: count=0;
  2298  061A  1283               	bcf	status, 5	;RP0=0, select bank0
  2299  061B  1303               	bcf	status, 6	;RP1=0, select bank0
  2300  061C  01D4               	clrf	(main@count)
  2301  061D  01D5               	clrf	(main@count+1)
  2302                           	line	231
  2303                           ;keypadpassword.c: 231: while(count<3000)
  2304  061E  2E34               	goto	l2819
  2305                           	
  2306  061F                     l1136:	
  2307                           	line	233
  2308                           ;keypadpassword.c: 232: {
  2309                           ;keypadpassword.c: 233: RD0=1;RD1=1;RD2=1;RD3=0;
  2310  061F  1283               	bcf	status, 5	;RP0=0, select bank0
  2311  0620  1303               	bcf	status, 6	;RP1=0, select bank0
  2312  0621  1408               	bsf	(64/8),(64)&7
  2313  0622  1488               	bsf	(65/8),(65)&7
  2314  0623  1508               	bsf	(66/8),(66)&7
  2315  0624  1188               	bcf	(67/8),(67)&7
  2316                           	line	234
  2317                           	
  2318  0625                     l2815:	
  2319                           ;keypadpassword.c: 234: PORTC=segment[mat[3]];
  2320  0625  084E               	movf	0+(main@mat)+06h,w
  2321  0626  00F0               	movwf	(??_main+0)+0
  2322  0627  0770               	addwf	(??_main+0)+0,w
  2323  0628  3E24               	addlw	main@segment&0ffh
  2324  0629  0084               	movwf	fsr0
  2325  062A  1383               	bcf	status, 7	;select IRP bank0
  2326  062B  0800               	movf	indf,w
  2327  062C  0087               	movwf	(7)	;volatile
  2328                           	line	235
  2329                           	
  2330  062D                     l2817:	
  2331                           ;keypadpassword.c: 235: count++;
  2332  062D  3001               	movlw	low(01h)
  2333  062E  07D4               	addwf	(main@count),f
  2334  062F  1803               	skipnc
  2335  0630  0AD5               	incf	(main@count+1),f
  2336  0631  3000               	movlw	high(01h)
  2337  0632  07D5               	addwf	(main@count+1),f
  2338  0633  2E34               	goto	l2819
  2339                           	line	236
  2340                           	
  2341  0634                     l1135:	
  2342                           	line	231
  2343                           	
  2344  0634                     l2819:	
  2345  0634  0855               	movf	(main@count+1),w
  2346  0635  3A80               	xorlw	80h
  2347  0636  00FF               	movwf	btemp+1
  2348  0637  308B               	movlw	(high(0BB8h))^80h
  2349  0638  027F               	subwf	btemp+1,w
  2350  0639  1D03               	skipz
  2351  063A  2E3D               	goto	u3355
  2352  063B  30B8               	movlw	low(0BB8h)
  2353  063C  0254               	subwf	(main@count),w
  2354  063D                     u3355:
  2355                           
  2356  063D  1C03               	skipc
  2357  063E  2E40               	goto	u3351
  2358  063F  2E41               	goto	u3350
  2359  0640                     u3351:
  2360  0640  2E1F               	goto	l1136
  2361  0641                     u3350:
  2362  0641  2E42               	goto	l2821
  2363                           	
  2364  0642                     l1137:	
  2365                           	line	237
  2366                           	
  2367  0642                     l2821:	
  2368                           ;keypadpassword.c: 236: }
  2369                           ;keypadpassword.c: 237: count=0;
  2370  0642  1283               	bcf	status, 5	;RP0=0, select bank0
  2371  0643  1303               	bcf	status, 6	;RP1=0, select bank0
  2372  0644  01D4               	clrf	(main@count)
  2373  0645  01D5               	clrf	(main@count+1)
  2374  0646  2E47               	goto	l2823
  2375                           	line	238
  2376                           	
  2377  0647                     l1085:	
  2378                           	line	239
  2379                           	
  2380  0647                     l2823:	
  2381                           ;keypadpassword.c: 238: }
  2382                           ;keypadpassword.c: 239: if(control==3)
  2383  0647  3003               	movlw	03h
  2384  0648  063C               	xorwf	(main@control),w
  2385  0649  043D               	iorwf	(main@control+1),w
  2386  064A  1D03               	skipz
  2387  064B  2E4D               	goto	u3361
  2388  064C  2E4E               	goto	u3360
  2389  064D                     u3361:
  2390  064D  2AD1               	goto	l2671
  2391  064E                     u3360:
  2392                           	line	241
  2393                           	
  2394  064E                     l2825:	
  2395                           ;keypadpassword.c: 240: {
  2396                           ;keypadpassword.c: 241: for(i=0;i<4;i++)
  2397  064E  01BE               	clrf	(main@i)
  2398  064F  01BF               	clrf	(main@i+1)
  2399                           	
  2400  0650                     l2827:	
  2401  0650  083F               	movf	(main@i+1),w
  2402  0651  3A80               	xorlw	80h
  2403  0652  00FF               	movwf	btemp+1
  2404  0653  3080               	movlw	(high(04h))^80h
  2405  0654  027F               	subwf	btemp+1,w
  2406  0655  1D03               	skipz
  2407  0656  2E59               	goto	u3375
  2408  0657  3004               	movlw	low(04h)
  2409  0658  023E               	subwf	(main@i),w
  2410  0659                     u3375:
  2411                           
  2412  0659  1C03               	skipc
  2413  065A  2E5C               	goto	u3371
  2414  065B  2E5D               	goto	u3370
  2415  065C                     u3371:
  2416  065C  2E5F               	goto	l2831
  2417  065D                     u3370:
  2418  065D  2EA7               	goto	l2841
  2419                           	
  2420  065E                     l2829:	
  2421  065E  2EA7               	goto	l2841
  2422                           	line	242
  2423                           	
  2424  065F                     l1139:	
  2425                           	line	243
  2426                           	
  2427  065F                     l2831:	
  2428                           ;keypadpassword.c: 242: {
  2429                           ;keypadpassword.c: 243: check++;
  2430  065F  3001               	movlw	low(01h)
  2431  0660  1283               	bcf	status, 5	;RP0=0, select bank0
  2432  0661  1303               	bcf	status, 6	;RP1=0, select bank0
  2433  0662  07B8               	addwf	(main@check),f
  2434  0663  1803               	skipnc
  2435  0664  0AB9               	incf	(main@check+1),f
  2436  0665  3000               	movlw	high(01h)
  2437  0666  07B9               	addwf	(main@check+1),f
  2438                           	line	244
  2439                           	
  2440  0667                     l2833:	
  2441                           ;keypadpassword.c: 244: if(arr[i]==mat[i])
  2442  0667  083E               	movf	(main@i),w
  2443  0668  00F0               	movwf	(??_main+0)+0
  2444  0669  0770               	addwf	(??_main+0)+0,w
  2445  066A  3E48               	addlw	main@mat&0ffh
  2446  066B  0084               	movwf	fsr0
  2447  066C  1383               	bcf	status, 7	;select IRP bank0
  2448  066D  0800               	movf	indf,w
  2449  066E  00F1               	movwf	(??_main+1)+0+0
  2450  066F  0A84               	incf	fsr0,f
  2451  0670  0800               	movf	indf,w
  2452  0671  00F2               	movwf	(??_main+1)+0+1
  2453  0672  083E               	movf	(main@i),w
  2454  0673  00F3               	movwf	(??_main+3)+0
  2455  0674  0773               	addwf	(??_main+3)+0,w
  2456  0675  3E40               	addlw	main@arr&0ffh
  2457  0676  0084               	movwf	fsr0
  2458  0677  0800               	movf	indf,w
  2459  0678  00F4               	movwf	(??_main+4)+0+0
  2460  0679  0A84               	incf	fsr0,f
  2461  067A  0800               	movf	indf,w
  2462  067B  00F5               	movwf	(??_main+4)+0+1
  2463  067C  0872               	movf	1+(??_main+1)+0,w
  2464  067D  0675               	xorwf	1+(??_main+4)+0,w
  2465  067E  1D03               	skipz
  2466  067F  2E82               	goto	u3385
  2467  0680  0871               	movf	0+(??_main+1)+0,w
  2468  0681  0674               	xorwf	0+(??_main+4)+0,w
  2469  0682                     u3385:
  2470                           
  2471  0682  1D03               	skipz
  2472  0683  2E85               	goto	u3381
  2473  0684  2E86               	goto	u3380
  2474  0685                     u3381:
  2475  0685  2E8D               	goto	l2837
  2476  0686                     u3380:
  2477                           	line	246
  2478                           	
  2479  0686                     l2835:	
  2480                           ;keypadpassword.c: 245: {
  2481                           ;keypadpassword.c: 246: correct++;
  2482  0686  3001               	movlw	low(01h)
  2483  0687  07BA               	addwf	(main@correct),f
  2484  0688  1803               	skipnc
  2485  0689  0ABB               	incf	(main@correct+1),f
  2486  068A  3000               	movlw	high(01h)
  2487  068B  07BB               	addwf	(main@correct+1),f
  2488                           	line	247
  2489                           ;keypadpassword.c: 247: }
  2490  068C  2E93               	goto	l1142
  2491                           	line	248
  2492                           	
  2493  068D                     l1141:	
  2494                           	line	250
  2495                           	
  2496  068D                     l2837:	
  2497                           ;keypadpassword.c: 248: else
  2498                           ;keypadpassword.c: 249: {
  2499                           ;keypadpassword.c: 250: wrong++;
  2500  068D  3001               	movlw	low(01h)
  2501  068E  07A2               	addwf	(main@wrong),f
  2502  068F  1803               	skipnc
  2503  0690  0AA3               	incf	(main@wrong+1),f
  2504  0691  3000               	movlw	high(01h)
  2505  0692  07A3               	addwf	(main@wrong+1),f
  2506                           	line	251
  2507                           	
  2508  0693                     l1142:	
  2509                           	line	241
  2510  0693  3001               	movlw	low(01h)
  2511  0694  07BE               	addwf	(main@i),f
  2512  0695  1803               	skipnc
  2513  0696  0ABF               	incf	(main@i+1),f
  2514  0697  3000               	movlw	high(01h)
  2515  0698  07BF               	addwf	(main@i+1),f
  2516                           	
  2517  0699                     l2839:	
  2518  0699  083F               	movf	(main@i+1),w
  2519  069A  3A80               	xorlw	80h
  2520  069B  00FF               	movwf	btemp+1
  2521  069C  3080               	movlw	(high(04h))^80h
  2522  069D  027F               	subwf	btemp+1,w
  2523  069E  1D03               	skipz
  2524  069F  2EA2               	goto	u3395
  2525  06A0  3004               	movlw	low(04h)
  2526  06A1  023E               	subwf	(main@i),w
  2527  06A2                     u3395:
  2528                           
  2529  06A2  1C03               	skipc
  2530  06A3  2EA5               	goto	u3391
  2531  06A4  2EA6               	goto	u3390
  2532  06A5                     u3391:
  2533  06A5  2E5F               	goto	l2831
  2534  06A6                     u3390:
  2535  06A6  2EA7               	goto	l2841
  2536                           	
  2537  06A7                     l1140:	
  2538                           	line	253
  2539                           	
  2540  06A7                     l2841:	
  2541                           ;keypadpassword.c: 251: }
  2542                           ;keypadpassword.c: 252: }
  2543                           ;keypadpassword.c: 253: if(check==correct)
  2544  06A7  1283               	bcf	status, 5	;RP0=0, select bank0
  2545  06A8  1303               	bcf	status, 6	;RP1=0, select bank0
  2546  06A9  083B               	movf	(main@correct+1),w
  2547  06AA  0639               	xorwf	(main@check+1),w
  2548  06AB  1D03               	skipz
  2549  06AC  2EAF               	goto	u3405
  2550  06AD  083A               	movf	(main@correct),w
  2551  06AE  0638               	xorwf	(main@check),w
  2552  06AF                     u3405:
  2553                           
  2554  06AF  1D03               	skipz
  2555  06B0  2EB2               	goto	u3401
  2556  06B1  2EB3               	goto	u3400
  2557  06B2                     u3401:
  2558  06B2  2F52               	goto	l2881
  2559  06B3                     u3400:
  2560  06B3  2EC5               	goto	l2849
  2561                           	line	255
  2562                           	
  2563  06B4                     l2843:	
  2564                           ;keypadpassword.c: 254: {
  2565                           ;keypadpassword.c: 255: while(count<3000)
  2566  06B4  2EC5               	goto	l2849
  2567                           	
  2568  06B5                     l1145:	
  2569                           	line	257
  2570                           ;keypadpassword.c: 256: {
  2571                           ;keypadpassword.c: 257: RD0=0;RD1=1;RD2=1;RD3=1;
  2572  06B5  1283               	bcf	status, 5	;RP0=0, select bank0
  2573  06B6  1303               	bcf	status, 6	;RP1=0, select bank0
  2574  06B7  1008               	bcf	(64/8),(64)&7
  2575  06B8  1488               	bsf	(65/8),(65)&7
  2576  06B9  1508               	bsf	(66/8),(66)&7
  2577  06BA  1588               	bsf	(67/8),(67)&7
  2578                           	line	258
  2579                           	
  2580  06BB                     l2845:	
  2581                           ;keypadpassword.c: 258: PORTC=0X5E;
  2582  06BB  305E               	movlw	(05Eh)
  2583  06BC  0087               	movwf	(7)	;volatile
  2584                           	line	259
  2585                           	
  2586  06BD                     l2847:	
  2587                           ;keypadpassword.c: 259: RA3=1;
  2588  06BD  1585               	bsf	(43/8),(43)&7
  2589                           	line	260
  2590                           ;keypadpassword.c: 260: count++;
  2591  06BE  3001               	movlw	low(01h)
  2592  06BF  07D4               	addwf	(main@count),f
  2593  06C0  1803               	skipnc
  2594  06C1  0AD5               	incf	(main@count+1),f
  2595  06C2  3000               	movlw	high(01h)
  2596  06C3  07D5               	addwf	(main@count+1),f
  2597  06C4  2EC5               	goto	l2849
  2598                           	line	261
  2599                           	
  2600  06C5                     l1144:	
  2601                           	line	255
  2602                           	
  2603  06C5                     l2849:	
  2604  06C5  0855               	movf	(main@count+1),w
  2605  06C6  3A80               	xorlw	80h
  2606  06C7  00FF               	movwf	btemp+1
  2607  06C8  308B               	movlw	(high(0BB8h))^80h
  2608  06C9  027F               	subwf	btemp+1,w
  2609  06CA  1D03               	skipz
  2610  06CB  2ECE               	goto	u3415
  2611  06CC  30B8               	movlw	low(0BB8h)
  2612  06CD  0254               	subwf	(main@count),w
  2613  06CE                     u3415:
  2614                           
  2615  06CE  1C03               	skipc
  2616  06CF  2ED1               	goto	u3411
  2617  06D0  2ED2               	goto	u3410
  2618  06D1                     u3411:
  2619  06D1  2EB5               	goto	l1145
  2620  06D2                     u3410:
  2621  06D2  2ED3               	goto	l2851
  2622                           	
  2623  06D3                     l1146:	
  2624                           	line	262
  2625                           	
  2626  06D3                     l2851:	
  2627                           ;keypadpassword.c: 261: }
  2628                           ;keypadpassword.c: 262: count=0;
  2629  06D3  1283               	bcf	status, 5	;RP0=0, select bank0
  2630  06D4  1303               	bcf	status, 6	;RP1=0, select bank0
  2631  06D5  01D4               	clrf	(main@count)
  2632  06D6  01D5               	clrf	(main@count+1)
  2633                           	line	263
  2634                           ;keypadpassword.c: 263: while(count<3000)
  2635  06D7  2EE8               	goto	l2857
  2636                           	
  2637  06D8                     l1148:	
  2638                           	line	265
  2639                           ;keypadpassword.c: 264: {
  2640                           ;keypadpassword.c: 265: RD0=1;RD1=0;RD2=1;RD3=1;
  2641  06D8  1283               	bcf	status, 5	;RP0=0, select bank0
  2642  06D9  1303               	bcf	status, 6	;RP1=0, select bank0
  2643  06DA  1408               	bsf	(64/8),(64)&7
  2644  06DB  1088               	bcf	(65/8),(65)&7
  2645  06DC  1508               	bsf	(66/8),(66)&7
  2646  06DD  1588               	bsf	(67/8),(67)&7
  2647                           	line	266
  2648                           	
  2649  06DE                     l2853:	
  2650                           ;keypadpassword.c: 266: PORTC=0XBF;
  2651  06DE  30BF               	movlw	(0BFh)
  2652  06DF  0087               	movwf	(7)	;volatile
  2653                           	line	267
  2654                           	
  2655  06E0                     l2855:	
  2656                           ;keypadpassword.c: 267: RA3=1;
  2657  06E0  1585               	bsf	(43/8),(43)&7
  2658                           	line	268
  2659                           ;keypadpassword.c: 268: count++;
  2660  06E1  3001               	movlw	low(01h)
  2661  06E2  07D4               	addwf	(main@count),f
  2662  06E3  1803               	skipnc
  2663  06E4  0AD5               	incf	(main@count+1),f
  2664  06E5  3000               	movlw	high(01h)
  2665  06E6  07D5               	addwf	(main@count+1),f
  2666  06E7  2EE8               	goto	l2857
  2667                           	line	269
  2668                           	
  2669  06E8                     l1147:	
  2670                           	line	263
  2671                           	
  2672  06E8                     l2857:	
  2673  06E8  0855               	movf	(main@count+1),w
  2674  06E9  3A80               	xorlw	80h
  2675  06EA  00FF               	movwf	btemp+1
  2676  06EB  308B               	movlw	(high(0BB8h))^80h
  2677  06EC  027F               	subwf	btemp+1,w
  2678  06ED  1D03               	skipz
  2679  06EE  2EF1               	goto	u3425
  2680  06EF  30B8               	movlw	low(0BB8h)
  2681  06F0  0254               	subwf	(main@count),w
  2682  06F1                     u3425:
  2683                           
  2684  06F1  1C03               	skipc
  2685  06F2  2EF4               	goto	u3421
  2686  06F3  2EF5               	goto	u3420
  2687  06F4                     u3421:
  2688  06F4  2ED8               	goto	l1148
  2689  06F5                     u3420:
  2690  06F5  2EF6               	goto	l2859
  2691                           	
  2692  06F6                     l1149:	
  2693                           	line	270
  2694                           	
  2695  06F6                     l2859:	
  2696                           ;keypadpassword.c: 269: }
  2697                           ;keypadpassword.c: 270: count=0;
  2698  06F6  1283               	bcf	status, 5	;RP0=0, select bank0
  2699  06F7  1303               	bcf	status, 6	;RP1=0, select bank0
  2700  06F8  01D4               	clrf	(main@count)
  2701  06F9  01D5               	clrf	(main@count+1)
  2702                           	line	271
  2703                           ;keypadpassword.c: 271: while(count<3000)
  2704  06FA  2F0B               	goto	l2865
  2705                           	
  2706  06FB                     l1151:	
  2707                           	line	273
  2708                           ;keypadpassword.c: 272: {
  2709                           ;keypadpassword.c: 273: RD0=1;RD1=1;RD2=0;RD3=1;
  2710  06FB  1283               	bcf	status, 5	;RP0=0, select bank0
  2711  06FC  1303               	bcf	status, 6	;RP1=0, select bank0
  2712  06FD  1408               	bsf	(64/8),(64)&7
  2713  06FE  1488               	bsf	(65/8),(65)&7
  2714  06FF  1108               	bcf	(66/8),(66)&7
  2715  0700  1588               	bsf	(67/8),(67)&7
  2716                           	line	274
  2717                           	
  2718  0701                     l2861:	
  2719                           ;keypadpassword.c: 274: PORTC=0X37;
  2720  0701  3037               	movlw	(037h)
  2721  0702  0087               	movwf	(7)	;volatile
  2722                           	line	275
  2723                           	
  2724  0703                     l2863:	
  2725                           ;keypadpassword.c: 275: RA3=1;
  2726  0703  1585               	bsf	(43/8),(43)&7
  2727                           	line	276
  2728                           ;keypadpassword.c: 276: count++;
  2729  0704  3001               	movlw	low(01h)
  2730  0705  07D4               	addwf	(main@count),f
  2731  0706  1803               	skipnc
  2732  0707  0AD5               	incf	(main@count+1),f
  2733  0708  3000               	movlw	high(01h)
  2734  0709  07D5               	addwf	(main@count+1),f
  2735  070A  2F0B               	goto	l2865
  2736                           	line	277
  2737                           	
  2738  070B                     l1150:	
  2739                           	line	271
  2740                           	
  2741  070B                     l2865:	
  2742  070B  0855               	movf	(main@count+1),w
  2743  070C  3A80               	xorlw	80h
  2744  070D  00FF               	movwf	btemp+1
  2745  070E  308B               	movlw	(high(0BB8h))^80h
  2746  070F  027F               	subwf	btemp+1,w
  2747  0710  1D03               	skipz
  2748  0711  2F14               	goto	u3435
  2749  0712  30B8               	movlw	low(0BB8h)
  2750  0713  0254               	subwf	(main@count),w
  2751  0714                     u3435:
  2752                           
  2753  0714  1C03               	skipc
  2754  0715  2F17               	goto	u3431
  2755  0716  2F18               	goto	u3430
  2756  0717                     u3431:
  2757  0717  2EFB               	goto	l1151
  2758  0718                     u3430:
  2759  0718  2F19               	goto	l2867
  2760                           	
  2761  0719                     l1152:	
  2762                           	line	278
  2763                           	
  2764  0719                     l2867:	
  2765                           ;keypadpassword.c: 277: }
  2766                           ;keypadpassword.c: 278: count=0;
  2767  0719  1283               	bcf	status, 5	;RP0=0, select bank0
  2768  071A  1303               	bcf	status, 6	;RP1=0, select bank0
  2769  071B  01D4               	clrf	(main@count)
  2770  071C  01D5               	clrf	(main@count+1)
  2771                           	line	279
  2772                           ;keypadpassword.c: 279: while(count<3000)
  2773  071D  2F2E               	goto	l2873
  2774                           	
  2775  071E                     l1154:	
  2776                           	line	281
  2777                           ;keypadpassword.c: 280: {
  2778                           ;keypadpassword.c: 281: RD0=1;RD1=1;RD2=1;RD3=0;
  2779  071E  1283               	bcf	status, 5	;RP0=0, select bank0
  2780  071F  1303               	bcf	status, 6	;RP1=0, select bank0
  2781  0720  1408               	bsf	(64/8),(64)&7
  2782  0721  1488               	bsf	(65/8),(65)&7
  2783  0722  1508               	bsf	(66/8),(66)&7
  2784  0723  1188               	bcf	(67/8),(67)&7
  2785                           	line	282
  2786                           	
  2787  0724                     l2869:	
  2788                           ;keypadpassword.c: 282: PORTC=0XF9;
  2789  0724  30F9               	movlw	(0F9h)
  2790  0725  0087               	movwf	(7)	;volatile
  2791                           	line	283
  2792                           	
  2793  0726                     l2871:	
  2794                           ;keypadpassword.c: 283: RA3=1;
  2795  0726  1585               	bsf	(43/8),(43)&7
  2796                           	line	284
  2797                           ;keypadpassword.c: 284: count++;
  2798  0727  3001               	movlw	low(01h)
  2799  0728  07D4               	addwf	(main@count),f
  2800  0729  1803               	skipnc
  2801  072A  0AD5               	incf	(main@count+1),f
  2802  072B  3000               	movlw	high(01h)
  2803  072C  07D5               	addwf	(main@count+1),f
  2804  072D  2F2E               	goto	l2873
  2805                           	line	285
  2806                           	
  2807  072E                     l1153:	
  2808                           	line	279
  2809                           	
  2810  072E                     l2873:	
  2811  072E  0855               	movf	(main@count+1),w
  2812  072F  3A80               	xorlw	80h
  2813  0730  00FF               	movwf	btemp+1
  2814  0731  308B               	movlw	(high(0BB8h))^80h
  2815  0732  027F               	subwf	btemp+1,w
  2816  0733  1D03               	skipz
  2817  0734  2F37               	goto	u3445
  2818  0735  30B8               	movlw	low(0BB8h)
  2819  0736  0254               	subwf	(main@count),w
  2820  0737                     u3445:
  2821                           
  2822  0737  1C03               	skipc
  2823  0738  2F3A               	goto	u3441
  2824  0739  2F3B               	goto	u3440
  2825  073A                     u3441:
  2826  073A  2F1E               	goto	l1154
  2827  073B                     u3440:
  2828  073B  2F3C               	goto	l2875
  2829                           	
  2830  073C                     l1155:	
  2831                           	line	286
  2832                           	
  2833  073C                     l2875:	
  2834                           ;keypadpassword.c: 285: }
  2835                           ;keypadpassword.c: 286: count=0;
  2836  073C  1283               	bcf	status, 5	;RP0=0, select bank0
  2837  073D  1303               	bcf	status, 6	;RP1=0, select bank0
  2838  073E  01D4               	clrf	(main@count)
  2839  073F  01D5               	clrf	(main@count+1)
  2840                           	line	287
  2841                           ;keypadpassword.c: 287: }
  2842  0740  2FCE               	goto	l2909
  2843                           	line	288
  2844                           	
  2845  0741                     l1143:	
  2846                           	line	290
  2847                           ;keypadpassword.c: 288: else
  2848                           ;keypadpassword.c: 289: {
  2849                           ;keypadpassword.c: 290: while(count<3000)
  2850  0741  2F52               	goto	l2881
  2851                           	
  2852  0742                     l1158:	
  2853                           	line	292
  2854                           ;keypadpassword.c: 291: {
  2855                           ;keypadpassword.c: 292: RD0=0;RD1=1;RD2=1;RD3=1;
  2856  0742  1283               	bcf	status, 5	;RP0=0, select bank0
  2857  0743  1303               	bcf	status, 6	;RP1=0, select bank0
  2858  0744  1008               	bcf	(64/8),(64)&7
  2859  0745  1488               	bsf	(65/8),(65)&7
  2860  0746  1508               	bsf	(66/8),(66)&7
  2861  0747  1588               	bsf	(67/8),(67)&7
  2862                           	line	293
  2863                           	
  2864  0748                     l2877:	
  2865                           ;keypadpassword.c: 293: PORTC=0X37;
  2866  0748  3037               	movlw	(037h)
  2867  0749  0087               	movwf	(7)	;volatile
  2868                           	line	294
  2869                           	
  2870  074A                     l2879:	
  2871                           ;keypadpassword.c: 294: RA4=1;
  2872  074A  1605               	bsf	(44/8),(44)&7
  2873                           	line	295
  2874                           ;keypadpassword.c: 295: count++;
  2875  074B  3001               	movlw	low(01h)
  2876  074C  07D4               	addwf	(main@count),f
  2877  074D  1803               	skipnc
  2878  074E  0AD5               	incf	(main@count+1),f
  2879  074F  3000               	movlw	high(01h)
  2880  0750  07D5               	addwf	(main@count+1),f
  2881  0751  2F52               	goto	l2881
  2882                           	line	296
  2883                           	
  2884  0752                     l1157:	
  2885                           	line	290
  2886                           	
  2887  0752                     l2881:	
  2888  0752  0855               	movf	(main@count+1),w
  2889  0753  3A80               	xorlw	80h
  2890  0754  00FF               	movwf	btemp+1
  2891  0755  308B               	movlw	(high(0BB8h))^80h
  2892  0756  027F               	subwf	btemp+1,w
  2893  0757  1D03               	skipz
  2894  0758  2F5B               	goto	u3455
  2895  0759  30B8               	movlw	low(0BB8h)
  2896  075A  0254               	subwf	(main@count),w
  2897  075B                     u3455:
  2898                           
  2899  075B  1C03               	skipc
  2900  075C  2F5E               	goto	u3451
  2901  075D  2F5F               	goto	u3450
  2902  075E                     u3451:
  2903  075E  2F42               	goto	l1158
  2904  075F                     u3450:
  2905  075F  2F60               	goto	l2883
  2906                           	
  2907  0760                     l1159:	
  2908                           	line	297
  2909                           	
  2910  0760                     l2883:	
  2911                           ;keypadpassword.c: 296: }
  2912                           ;keypadpassword.c: 297: count=0;
  2913  0760  1283               	bcf	status, 5	;RP0=0, select bank0
  2914  0761  1303               	bcf	status, 6	;RP1=0, select bank0
  2915  0762  01D4               	clrf	(main@count)
  2916  0763  01D5               	clrf	(main@count+1)
  2917                           	line	298
  2918                           ;keypadpassword.c: 298: while(count<3000)
  2919  0764  2F75               	goto	l2889
  2920                           	
  2921  0765                     l1161:	
  2922                           	line	300
  2923                           ;keypadpassword.c: 299: {
  2924                           ;keypadpassword.c: 300: RD0=1;RD1=0;RD2=1;RD3=1;
  2925  0765  1283               	bcf	status, 5	;RP0=0, select bank0
  2926  0766  1303               	bcf	status, 6	;RP1=0, select bank0
  2927  0767  1408               	bsf	(64/8),(64)&7
  2928  0768  1088               	bcf	(65/8),(65)&7
  2929  0769  1508               	bsf	(66/8),(66)&7
  2930  076A  1588               	bsf	(67/8),(67)&7
  2931                           	line	301
  2932                           	
  2933  076B                     l2885:	
  2934                           ;keypadpassword.c: 301: PORTC=0XBF;
  2935  076B  30BF               	movlw	(0BFh)
  2936  076C  0087               	movwf	(7)	;volatile
  2937                           	line	302
  2938                           	
  2939  076D                     l2887:	
  2940                           ;keypadpassword.c: 302: RA4=1;
  2941  076D  1605               	bsf	(44/8),(44)&7
  2942                           	line	303
  2943                           ;keypadpassword.c: 303: count++;
  2944  076E  3001               	movlw	low(01h)
  2945  076F  07D4               	addwf	(main@count),f
  2946  0770  1803               	skipnc
  2947  0771  0AD5               	incf	(main@count+1),f
  2948  0772  3000               	movlw	high(01h)
  2949  0773  07D5               	addwf	(main@count+1),f
  2950  0774  2F75               	goto	l2889
  2951                           	line	304
  2952                           	
  2953  0775                     l1160:	
  2954                           	line	298
  2955                           	
  2956  0775                     l2889:	
  2957  0775  0855               	movf	(main@count+1),w
  2958  0776  3A80               	xorlw	80h
  2959  0777  00FF               	movwf	btemp+1
  2960  0778  308B               	movlw	(high(0BB8h))^80h
  2961  0779  027F               	subwf	btemp+1,w
  2962  077A  1D03               	skipz
  2963  077B  2F7E               	goto	u3465
  2964  077C  30B8               	movlw	low(0BB8h)
  2965  077D  0254               	subwf	(main@count),w
  2966  077E                     u3465:
  2967                           
  2968  077E  1C03               	skipc
  2969  077F  2F81               	goto	u3461
  2970  0780  2F82               	goto	u3460
  2971  0781                     u3461:
  2972  0781  2F65               	goto	l1161
  2973  0782                     u3460:
  2974  0782  2F83               	goto	l2891
  2975                           	
  2976  0783                     l1162:	
  2977                           	line	305
  2978                           	
  2979  0783                     l2891:	
  2980                           ;keypadpassword.c: 304: }
  2981                           ;keypadpassword.c: 305: count=0;
  2982  0783  1283               	bcf	status, 5	;RP0=0, select bank0
  2983  0784  1303               	bcf	status, 6	;RP1=0, select bank0
  2984  0785  01D4               	clrf	(main@count)
  2985  0786  01D5               	clrf	(main@count+1)
  2986                           	line	306
  2987                           ;keypadpassword.c: 306: while(count<3000)
  2988  0787  2F98               	goto	l2897
  2989                           	
  2990  0788                     l1164:	
  2991                           	line	308
  2992                           ;keypadpassword.c: 307: {
  2993                           ;keypadpassword.c: 308: RD0=1;RD1=1;RD2=0;RD3=1;
  2994  0788  1283               	bcf	status, 5	;RP0=0, select bank0
  2995  0789  1303               	bcf	status, 6	;RP1=0, select bank0
  2996  078A  1408               	bsf	(64/8),(64)&7
  2997  078B  1488               	bsf	(65/8),(65)&7
  2998  078C  1108               	bcf	(66/8),(66)&7
  2999  078D  1588               	bsf	(67/8),(67)&7
  3000                           	line	309
  3001                           	
  3002  078E                     l2893:	
  3003                           ;keypadpassword.c: 309: PORTC=0XBF;
  3004  078E  30BF               	movlw	(0BFh)
  3005  078F  0087               	movwf	(7)	;volatile
  3006                           	line	310
  3007                           	
  3008  0790                     l2895:	
  3009                           ;keypadpassword.c: 310: RA4=1;
  3010  0790  1605               	bsf	(44/8),(44)&7
  3011                           	line	311
  3012                           ;keypadpassword.c: 311: count++;
  3013  0791  3001               	movlw	low(01h)
  3014  0792  07D4               	addwf	(main@count),f
  3015  0793  1803               	skipnc
  3016  0794  0AD5               	incf	(main@count+1),f
  3017  0795  3000               	movlw	high(01h)
  3018  0796  07D5               	addwf	(main@count+1),f
  3019  0797  2F98               	goto	l2897
  3020                           	line	312
  3021                           	
  3022  0798                     l1163:	
  3023                           	line	306
  3024                           	
  3025  0798                     l2897:	
  3026  0798  0855               	movf	(main@count+1),w
  3027  0799  3A80               	xorlw	80h
  3028  079A  00FF               	movwf	btemp+1
  3029  079B  308B               	movlw	(high(0BB8h))^80h
  3030  079C  027F               	subwf	btemp+1,w
  3031  079D  1D03               	skipz
  3032  079E  2FA1               	goto	u3475
  3033  079F  30B8               	movlw	low(0BB8h)
  3034  07A0  0254               	subwf	(main@count),w
  3035  07A1                     u3475:
  3036                           
  3037  07A1  1C03               	skipc
  3038  07A2  2FA4               	goto	u3471
  3039  07A3  2FA5               	goto	u3470
  3040  07A4                     u3471:
  3041  07A4  2F88               	goto	l1164
  3042  07A5                     u3470:
  3043  07A5  2FA6               	goto	l2899
  3044                           	
  3045  07A6                     l1165:	
  3046                           	line	313
  3047                           	
  3048  07A6                     l2899:	
  3049                           ;keypadpassword.c: 312: }
  3050                           ;keypadpassword.c: 313: count=0;
  3051  07A6  1283               	bcf	status, 5	;RP0=0, select bank0
  3052  07A7  1303               	bcf	status, 6	;RP1=0, select bank0
  3053  07A8  01D4               	clrf	(main@count)
  3054  07A9  01D5               	clrf	(main@count+1)
  3055                           	line	314
  3056                           ;keypadpassword.c: 314: while(count<3000)
  3057  07AA  2FBB               	goto	l2905
  3058                           	
  3059  07AB                     l1167:	
  3060                           	line	316
  3061                           ;keypadpassword.c: 315: {
  3062                           ;keypadpassword.c: 316: RD0=1;RD1=1;RD2=1;RD3=0;
  3063  07AB  1283               	bcf	status, 5	;RP0=0, select bank0
  3064  07AC  1303               	bcf	status, 6	;RP1=0, select bank0
  3065  07AD  1408               	bsf	(64/8),(64)&7
  3066  07AE  1488               	bsf	(65/8),(65)&7
  3067  07AF  1508               	bsf	(66/8),(66)&7
  3068  07B0  1188               	bcf	(67/8),(67)&7
  3069                           	line	317
  3070                           	
  3071  07B1                     l2901:	
  3072                           ;keypadpassword.c: 317: PORTC=0XBF;
  3073  07B1  30BF               	movlw	(0BFh)
  3074  07B2  0087               	movwf	(7)	;volatile
  3075                           	line	318
  3076                           	
  3077  07B3                     l2903:	
  3078                           ;keypadpassword.c: 318: RA4=1;
  3079  07B3  1605               	bsf	(44/8),(44)&7
  3080                           	line	319
  3081                           ;keypadpassword.c: 319: count++;
  3082  07B4  3001               	movlw	low(01h)
  3083  07B5  07D4               	addwf	(main@count),f
  3084  07B6  1803               	skipnc
  3085  07B7  0AD5               	incf	(main@count+1),f
  3086  07B8  3000               	movlw	high(01h)
  3087  07B9  07D5               	addwf	(main@count+1),f
  3088  07BA  2FBB               	goto	l2905
  3089                           	line	320
  3090                           	
  3091  07BB                     l1166:	
  3092                           	line	314
  3093                           	
  3094  07BB                     l2905:	
  3095  07BB  0855               	movf	(main@count+1),w
  3096  07BC  3A80               	xorlw	80h
  3097  07BD  00FF               	movwf	btemp+1
  3098  07BE  308B               	movlw	(high(0BB8h))^80h
  3099  07BF  027F               	subwf	btemp+1,w
  3100  07C0  1D03               	skipz
  3101  07C1  2FC4               	goto	u3485
  3102  07C2  30B8               	movlw	low(0BB8h)
  3103  07C3  0254               	subwf	(main@count),w
  3104  07C4                     u3485:
  3105                           
  3106  07C4  1C03               	skipc
  3107  07C5  2FC7               	goto	u3481
  3108  07C6  2FC8               	goto	u3480
  3109  07C7                     u3481:
  3110  07C7  2FAB               	goto	l1167
  3111  07C8                     u3480:
  3112  07C8  2FC9               	goto	l2907
  3113                           	
  3114  07C9                     l1168:	
  3115                           	line	321
  3116                           	
  3117  07C9                     l2907:	
  3118                           ;keypadpassword.c: 320: }
  3119                           ;keypadpassword.c: 321: count=0;
  3120  07C9  1283               	bcf	status, 5	;RP0=0, select bank0
  3121  07CA  1303               	bcf	status, 6	;RP1=0, select bank0
  3122  07CB  01D4               	clrf	(main@count)
  3123  07CC  01D5               	clrf	(main@count+1)
  3124  07CD  2FCE               	goto	l2909
  3125                           	line	322
  3126                           	
  3127  07CE                     l1156:	
  3128                           	line	323
  3129                           	
  3130  07CE                     l2909:	
  3131                           ;keypadpassword.c: 322: }
  3132                           ;keypadpassword.c: 323: RB0=1;
  3133  07CE  1406               	bsf	(48/8),(48)&7
  3134                           	line	324
  3135                           	
  3136  07CF                     l2911:	
  3137                           ;keypadpassword.c: 324: RB1=0;
  3138  07CF  1086               	bcf	(49/8),(49)&7
  3139                           	line	325
  3140                           	
  3141  07D0                     l2913:	
  3142                           ;keypadpassword.c: 325: RB2=0;
  3143  07D0  1106               	bcf	(50/8),(50)&7
  3144                           	line	326
  3145                           	
  3146  07D1                     l2915:	
  3147                           ;keypadpassword.c: 326: RB3=0;
  3148  07D1  1186               	bcf	(51/8),(51)&7
  3149                           	line	327
  3150                           	
  3151  07D2                     l2917:	
  3152                           ;keypadpassword.c: 327: if(RA0==1 || RA1==1 || RA2==1)
  3153  07D2  1805               	btfsc	(40/8),(40)&7
  3154  07D3  2FD5               	goto	u3491
  3155  07D4  2FD6               	goto	u3490
  3156  07D5                     u3491:
  3157  07D5  2FDF               	goto	l2923
  3158  07D6                     u3490:
  3159                           	
  3160  07D6                     l2919:	
  3161  07D6  1885               	btfsc	(41/8),(41)&7
  3162  07D7  2FD9               	goto	u3501
  3163  07D8  2FDA               	goto	u3500
  3164  07D9                     u3501:
  3165  07D9  2FDF               	goto	l2923
  3166  07DA                     u3500:
  3167                           	
  3168  07DA                     l2921:	
  3169  07DA  1D05               	btfss	(42/8),(42)&7
  3170  07DB  2FDD               	goto	u3511
  3171  07DC  2FDE               	goto	u3510
  3172  07DD                     u3511:
  3173  07DD  2AD1               	goto	l2671
  3174  07DE                     u3510:
  3175  07DE  2FDF               	goto	l2923
  3176                           	
  3177  07DF                     l1171:	
  3178                           	line	329
  3179                           	
  3180  07DF                     l2923:	
  3181                           ;keypadpassword.c: 328: {
  3182                           ;keypadpassword.c: 329: control=1;
  3183  07DF  3001               	movlw	low(01h)
  3184  07E0  00BC               	movwf	(main@control)
  3185  07E1  3000               	movlw	high(01h)
  3186  07E2  00BD               	movwf	((main@control))+1
  3187                           	line	330
  3188                           	
  3189  07E3                     l2925:	
  3190                           ;keypadpassword.c: 330: RA3=0;
  3191  07E3  1185               	bcf	(43/8),(43)&7
  3192                           	line	331
  3193                           	
  3194  07E4                     l2927:	
  3195                           ;keypadpassword.c: 331: RA4=0;
  3196  07E4  1205               	bcf	(44/8),(44)&7
  3197                           	line	332
  3198                           	
  3199  07E5                     l2929:	
  3200                           ;keypadpassword.c: 332: arr[4]=0;
  3201  07E5  01C8               	clrf	0+(main@arr)+08h
  3202  07E6  01C9               	clrf	1+(main@arr)+08h
  3203                           	line	333
  3204                           	
  3205  07E7                     l2931:	
  3206                           ;keypadpassword.c: 333: mat[4]=0;
  3207  07E7  01D0               	clrf	0+(main@mat)+08h
  3208  07E8  01D1               	clrf	1+(main@mat)+08h
  3209                           	line	334
  3210                           	
  3211  07E9                     l2933:	
  3212                           ;keypadpassword.c: 334: arr[3]=0;
  3213  07E9  01C6               	clrf	0+(main@arr)+06h
  3214  07EA  01C7               	clrf	1+(main@arr)+06h
  3215                           	line	335
  3216                           	
  3217  07EB                     l2935:	
  3218                           ;keypadpassword.c: 335: mat[3]=0;
  3219  07EB  01CE               	clrf	0+(main@mat)+06h
  3220  07EC  01CF               	clrf	1+(main@mat)+06h
  3221                           	line	336
  3222                           	
  3223  07ED                     l2937:	
  3224                           ;keypadpassword.c: 336: arr[2]=0;
  3225  07ED  01C4               	clrf	0+(main@arr)+04h
  3226  07EE  01C5               	clrf	1+(main@arr)+04h
  3227                           	line	337
  3228                           	
  3229  07EF                     l2939:	
  3230                           ;keypadpassword.c: 337: mat[2]=0;
  3231  07EF  01CC               	clrf	0+(main@mat)+04h
  3232  07F0  01CD               	clrf	1+(main@mat)+04h
  3233                           	line	338
  3234                           	
  3235  07F1                     l2941:	
  3236                           ;keypadpassword.c: 338: arr[1]=0;
  3237  07F1  01C2               	clrf	0+(main@arr)+02h
  3238  07F2  01C3               	clrf	1+(main@arr)+02h
  3239                           	line	339
  3240                           	
  3241  07F3                     l2943:	
  3242                           ;keypadpassword.c: 339: mat[1]=0;
  3243  07F3  01CA               	clrf	0+(main@mat)+02h
  3244  07F4  01CB               	clrf	1+(main@mat)+02h
  3245                           	line	340
  3246                           	
  3247  07F5                     l2945:	
  3248                           ;keypadpassword.c: 340: temp=0;
  3249  07F5  01D0               	clrf	(main@temp)
  3250  07F6  01D1               	clrf	(main@temp+1)
  3251                           	line	341
  3252                           	
  3253  07F7                     l2947:	
  3254                           ;keypadpassword.c: 341: dump=0;
  3255  07F7  01D2               	clrf	(main@dump)
  3256  07F8  01D3               	clrf	(main@dump+1)
  3257  07F9  2AD1               	goto	l2671
  3258                           	line	342
  3259                           	
  3260  07FA                     l1169:	
  3261  07FA  2AD1               	goto	l2671
  3262                           	line	343
  3263                           	
  3264  07FB                     l1138:	
  3265  07FB  2AD1               	goto	l2671
  3266                           	line	344
  3267                           	
  3268  07FC                     l1172:	
  3269                           	line	24
  3270  07FC  2AD1               	goto	l2671
  3271                           	
  3272  07FD                     l1173:	
  3273                           	line	345
  3274                           	
  3275  07FD                     l1174:	
  3276                           	global	start
  3277  07FD  120A  118A  2800   	ljmp	start
  3278                           	opt stack 0
  3279                           GLOBAL	__end_of_main
  3280  0800                     	__end_of_main:
  3281 ;; =============== function _main ends ============
  3282                           
  3283                           	signat	_main,88
  3284                           psect	maintext
  3285                           	global	btemp
  3286  007E                     	btemp set 07Eh
  3287                           
  3288                           	DABS	1,126,2	;btemp
  3289                           	global	wtemp0
  3290  007E                     	wtemp0 set btemp


HI-TECH Software PICC Macro Assembler V9.81 build 7503 
Symbol Table                                                                                   Sun May 23 20:30:52 2021

                   pc 0002                    fsr 0004                   _RA0 0028                   _RA1 0029  
                 _RB0 0030                   _RA2 002A                   _RB1 0031                   _RA3 002B  
                 _RB2 0032                   _RA4 002C                   _RB3 0033                   _RD0 0040  
                 _RD1 0041                   _RD2 0042                   _RD3 0043                   fsr0 0004  
                 indf 0000                  l1100 0502                  l1101 0507                  l1110 055C  
                l1102 0522                  l1111 0557                  l1103 051D                  l1031 02D1  
                l1120 058D                  l1112 0557                  l1104 051D                  l1032 048C  
                l1040 0312                  l1121 0592                  l1113 055C                  l1105 0522  
                l1041 032D                  l1033 02F7                  l1130 05CF                  l1122 05A6  
                l1114 0577                  l1106 053D                  l1050 0362                  l1042 0328  
                l1034 02F2                  l1131 05F2                  l1123 059C                  l1115 0572  
                l1107 0538                  l1051 0362                  l1043 0328                  l1035 02F2  
                l1140 06A7                  l1132 060C                  l1124 059C                  l1116 0572  
                l1108 0538                  l1060 03A1                  l1052 0367                  l1044 032D  
                l1036 02F7                  l1141 068D                  l1133 05F7                  l1125 05A1  
                l1117 0577                  l1109 053D                  l1061 03BC                  l1053 0382  
                l1045 034C                  l1037 0312                  l1150 070B                  l1142 0693  
                l1134 061A                  l1126 05BC                  l1118 0592                  l1070 03E1  
                l1062 03B7                  l1054 037D                  l1046 0347                  l1038 030D  
                l1143 0741                  l1151 06FB                  l1135 0634                  l1127 05A7  
                l1119 058D                  l1071 03E1                  l1063 03B7                  l1055 037D  
                l1047 0347                  l1039 030D                  l1160 0775                  l1152 0719  
                l1144 06C5                  l1136 061F                  l1128 05CA                  l1080 043C  
                l1072 03E6                  l1064 03BC                  l1056 0382                  l1048 034C  
                l1161 0765                  l1153 072E                  l1145 06B5                  l1137 0642  
                l1129 05E4                  l1081 045F                  l1073 0401                  l1065 03D7  
                l1057 03A1                  l1049 0367                  l1138 07FB                  l1162 0783  
                l1154 071E                  l1146 06D3                  l1090 04CD                  l1082 0479  
                l1074 03EC                  l1066 03D2                  l1058 039C                  l1171 07DF  
                l1163 0798                  l1155 073C                  l1147 06E8                  l1139 065F  
                l1091 04C8                  l1083 0464                  l1075 040F                  l1067 03D2  
                l1059 039C                  l1172 07FC                  l1156 07CE                  l1164 0788  
                l1148 06D8                  l1092 04C8                  l1084 0487                  l1076 0429  
                l1068 03D7                  l1173 07FD                  l1165 07A6                  l1157 0752  
                l1149 06F6                  l1085 0647                  l1093 04CD                  l1077 0414  
                l1069 03EB                  l1174 07FD                  l1166 07BB                  l1158 0742  
                l1094 04E8                  l1086 04B2                  l1078 0437                  l1167 07AB  
                l1159 0760                  l1095 04E3                  l1087 04AD                  l1079 0451  
                l1168 07C9                  l1096 04E3                  l1088 04AD                  l1169 07FA  
                l1097 04E8                  l1089 04B2                  l1098 0507                  l1099 0502  
                l2701 0395                  l2711 03E0                  l2703 03A5                  l2631 0263  
                l2801 05DD                  l2721 040F                  l2713 03E6                  l2705 03B0  
                l2641 0273                  l2633 0267                  l2811 060C                  l2803 05E4  
                l2731 0442                  l2723 041A                  l2715 03F2                  l2707 03C0  
                l2651 0283                  l2643 0276                  l2635 026A                  l2901 07B1  
                l2821 0642                  l2813 061A                  l2805 05F2                  l2741 0472  
                l2733 044A                  l2725 0422                  l2717 03FA                  l2709 03CB  
                l2661 02C6                  l2653 0298                  l2645 0279                  l2637 026D  
                l2629 0260                  l2911 07CF                  l2903 07B3                  l2831 065F  
                l2815 0625                  l2807 05FD                  l2751 049B                  l2823 0647  
                l2743 0479                  l2735 0451                  l2727 0429                  l2719 0401  
                l2671 02D1                  l2663 02C8                  l2655 02AD                  l2647 027C  
                l2639 0270                  l2921 07DA                  l2913 07D0                  l2905 07BB  
                l2833 0667                  l2841 06A7                  l2825 064E                  l2817 062D  
                l2809 0605                  l2761 04DC                  l2753 04A6                  l2745 0487  
                l2737 045F                  l2729 0437                  l2681 0306                  l2673 02D8  
                l2665 02CA                  l2657 02C2                  l2649 027D                  l2931 07E7  
                l2923 07DF                  l2915 07D1                  l2907 07C9                  l2851 06D3  
                l2843 06B4                  l2835 0686                  l2827 0650                  l2819 0634  
                l2771 0526                  l2763 04F0                  l2755 04B6                  l2739 046A  
                l2691 0350                  l2683 0316                  l2675 02E0                  l2747 048C  
                l2667 02CC                  l2659 02C4                  l2941 07F1                  l2933 07E9  
                l2925 07E3                  l2917 07D2                  l2909 07CE                  l2861 0701  
                l2853 06DE                  l2845 06BB                  l2837 068D                  l2829 065E  
                l2781 056B                  l2773 0531                  l2765 04FB                  l2757 04C1  
                l2749 0493                  l2693 035B                  l2685 0321                  l2677 02EB  
                l2669 02CE                  l2943 07F3                  l2935 07EB                  l2927 07E4  
                l2919 07D6                  l2871 0726                  l2863 0703                  l2855 06E0  
                l2847 06BD                  l2839 0699                  l2791 05AD                  l2783 057B  
                l2775 0545                  l2767 050B                  l2759 04D1                  l2695 036B  
                l2687 0335                  l2679 02FB                  l2945 07F5                  l2937 07ED  
                l2929 07E5                  l2873 072E                  l2865 070B                  l2857 06E8  
                l2849 06C5                  l2881 0752                  l2793 05B5                  l2785 0586  
                l2777 0550                  l2769 0516                  l2697 0376                  l2689 0340  
                l2947 07F7                  l2939 07EF                  l2891 0783                  l2883 0760  
                l2875 073C                  l2867 0719                  l2859 06F6                  l2787 059B  
                l2795 05BC                  l2779 0560                  l2699 038A                  l2893 078E  
                l2885 076B                  l2877 0748                  l2869 0724                  l2797 05CA  
                l2789 05A1                  l2895 0790                  l2887 076D                  l2879 074A  
                l2799 05D5                  l2897 0798                  l2889 0775                  l2899 07A6  
         main@correct 003A           main@control 003C                  u3000 03A0                  u3001 039F  
                u3010 03A5                  u3011 03A4                  u3100 0486                  u3020 03BB  
                u3101 0485                  u3021 03BA                  u3110 0493                  u3030 03C0  
                u3111 0492                  u3031 03BF                  u3200 050B                  u3120 049B  
                u3040 03D6                  u3201 050A                  u3121 049A                  u3105 0482  
                u3041 03D5                  u3210 0521                  u3130 04B1                  u3050 03DF  
                u3211 0520                  u3131 04B0                  u3051 03DE                  u3300 059A  
                u3220 0526                  u3140 04B6                  u3060 03E5                  u3301 0599  
                u3221 0525                  u3141 04B5                  u3061 03E4                  u3310 05A0  
                u3230 053C                  u3150 04CC                  u3070 040E                  u3311 059F  
                u3231 053B                  u3151 04CB                  u3071 040D                  u3400 06B3  
                u3320 05C9                  u3240 0545                  u3160 04D1                  u3080 0436  
                u3401 06B2                  u3321 05C8                  u3241 0544                  u3161 04D0  
                u3081 0435                  u3410 06D2                  u3330 05F1                  u3250 055B  
                u3170 04E7                  u3090 045E                  u3411 06D1                  u3331 05F0  
                u3251 055A                  u3171 04E6                  u3091 045D                  u3075 040A  
                u3500 07DA                  u3420 06F5                  u3340 0619                  u3260 0560  
                u3180 04F0                  u3501 07D9                  u3421 06F4                  u3405 06AF  
                u3341 0618                  u3325 05C5                  u3261 055F                  u3181 04EF  
                u3085 0432                  u3510 07DE                  u3430 0718                  u3350 0641  
                u3270 0576                  u3190 0506                  u3511 07DD                  u3431 0717  
                u3415 06CE                  u3351 0640                  u3335 05ED                  u3271 0575  
                u3191 0505                  u3095 045A                  u3440 073B                  u3360 064E  
                u3280 057B                  u3441 073A                  u3425 06F1                  u3361 064D  
                u3345 0615                  u3281 057A                  u3450 075F                  u3370 065D  
                u3290 0591                  u3451 075E                  u3435 0714                  u3371 065C  
                u3355 063D                  u3291 0590                  u3460 0782                  u3380 0686  
                u2900 0311                  u3461 0781                  u3445 0737                  u3381 0685  
                u2901 0310                  u3470 07A5                  u3390 06A6                  u2910 0316  
                u2830 028B                  u3471 07A4                  u3455 075B                  u3391 06A5  
                u3375 0659                  u2911 0315                  u3480 07C8                  u2920 032C  
                u2840 02A0                  u3481 07C7                  u3465 077E                  u3385 0682  
                u2921 032B                  u3490 07D6                  u2930 0335                  u2850 02B5  
                u3491 07D5                  u3475 07A1                  u3395 06A2                  u2931 0334  
                u2940 034B                  u2860 02D8                  u3485 07C4                  u2941 034A  
                u2861 02D7                  u2950 0350                  u2870 02E0                  u2951 034F  
                u2871 02DF                  u2960 0366                  u2880 02F6                  u2961 0365  
                u2881 02F5                  u2970 036B                  u2890 02FB                  u2971 036A  
                u2891 02FA                  u2980 0381                  u2981 0380                  u2990 038A  
                u2991 0389           main@segment 0024                  _main 0260                  btemp 007E  
                start 0000                 ?_main 0070                 _ANSEL 0188                 _PORTA 0005  
               _PORTB 0006                 _PORTC 0007                 _PORTD 0008                 _TRISA 0085  
               _TRISB 0086                 _TRISC 0087                 _TRISD 0088                 main@i 003E  
               pclath 000A                 status 0003                 wtemp0 007E          __end_of_main 0800  
              ??_main 0070                _ANSELH 0189                clrloop 021A        __pcstackCOMMON 0070  
        __pidataBANK1 0232            __pbssBANK0 0056            __pmaintext 0260               main@arr 0040  
             main@mat 0048  end_of_initialization 025C               init_ram 0225            main@count1 0020  
 start_initialization 0246           __pdataBANK1 00A0         __pcstackBANK0 0020             main@F1601 00A0  
           main@F1603 0056             main@F1605 005E             main@check 0038             main@count 0054  
           main@wrong 0022             init_fetch 0221         __size_of_main 05A0              clear_ram 0219  
            main@dump 0052              main@temp 0050  
