

HI-TECH Software PIC LITE Macro Assembler V9.81 build 7503 
                                                                                               Mon Jun 07 11:22:57 2021

HI-TECH Software Omniscient Code Generator (Lite mode) build 7503
     1  0000                     opt subtitle "HI-TECH Software Omniscient Code Generator (Lite mode) build 7503"
     2                           
     3                           opt pagewidth 120
     4                           
     5                           	opt lm
     6                           
     7                           	processor	16F887
     8                           clrc	macro
     9                           	bcf	3,0
    10  0000                     	endm
    11                           clrz	macro
    12                           	bcf	3,2
    13  0000                     	endm
    14                           setc	macro
    15                           	bsf	3,0
    16  0000                     	endm
    17                           setz	macro
    18                           	bsf	3,2
    19  0000                     	endm
    20                           skipc	macro
    21                           	btfss	3,0
    22  0000                     	endm
    23                           skipz	macro
    24                           	btfss	3,2
    25  0000                     	endm
    26                           skipnc	macro
    27                           	btfsc	3,0
    28  0000                     	endm
    29                           skipnz	macro
    30                           	btfsc	3,2
    31  0000                     	endm
    32  0000                     indf	equ	0
    33  0000                     indf0	equ	0
    34  0002                     pc	equ	2
    35  0002                     pcl	equ	2
    36  0003                     status	equ	3
    37  0004                     fsr	equ	4
    38  0004                     fsr0	equ	4
    39  0001                     c	equ	1
    40  0000                     z	equ	0
    41  000A                     pclath	equ	10
    42                           	FNCALL	_main,_on
    43                           	FNCALL	_main,_type
    44                           	FNCALL	_main,_address
    45                           	FNCALL	_main,_display
    46                           	FNCALL	_main,_clear
    47                           	FNCALL	_main,_timer1
    48                           	FNCALL	_clear,_pulse
    49                           	FNCALL	_display,_pulse
    50                           	FNCALL	_address,_pulse
    51                           	FNCALL	_type,_pulse
    52                           	FNCALL	_on,_pulse
    53                           	FNCALL	_pulse,_delay
    54                           	FNROOT	_main
    55                           	global	main@F1612
    56                           	global	main@F1614
    57                           	global	main@F1616
    58                           	global	main@F1618
    59                           	global	main@F1620
    60                           psect	idataBANK2,class=CODE,space=0,delta=2
    61                           global __pidataBANK2
    62  0019                     __pidataBANK2:
    63                           	file	"E:\KTU\Softwares\MP lab\Timer1ask\timer1ask.c"
    64                           	line	73
    65                           
    66                           ;initializer for main@F1612
    67  0019  3431               	retlw	031h
    68  001A  3473               	retlw	073h
    69  001B  3474               	retlw	074h
    70  001C  3420               	retlw	020h
    71  001D  346C               	retlw	06Ch
    72  001E  3465               	retlw	065h
    73  001F  3464               	retlw	064h
    74  0020  3420               	retlw	020h
    75  0021  3464               	retlw	064h
    76  0022  3475               	retlw	075h
    77  0023  3472               	retlw	072h
    78  0024  3461               	retlw	061h
    79  0025  3474               	retlw	074h
    80  0026  3469               	retlw	069h
    81  0027  346F               	retlw	06Fh
    82  0028  346E               	retlw	06Eh
    83  0029  3400               	retlw	0
    84  002A  3400               	retlw	0
    85  002B  3400               	retlw	0
    86  002C  3400               	retlw	0
    87  002D  3400               	retlw	0
    88  002E  3400               	retlw	0
    89  002F  3400               	retlw	0
    90  0030  3400               	retlw	0
    91  0031  3400               	retlw	0
    92  0032  3400               	retlw	0
    93  0033  3400               	retlw	0
    94  0034  3400               	retlw	0
    95  0035  3400               	retlw	0
    96  0036  3400               	retlw	0
    97  0037  3400               	retlw	0
    98  0038  3400               	retlw	0
    99  0039  3400               	retlw	0
   100  003A  3400               	retlw	0
   101  003B  3400               	retlw	0
   102  003C  3400               	retlw	0
   103  003D  3400               	retlw	0
   104  003E  3400               	retlw	0
   105  003F  3400               	retlw	0
   106  0040  3400               	retlw	0
   107                           psect	idataBANK3,class=CODE,space=0,delta=2
   108                           global __pidataBANK3
   109  0072                     __pidataBANK3:
   110                           	line	74
   111                           
   112                           ;initializer for main@F1614
   113  0072  3432               	retlw	032h
   114  0073  346E               	retlw	06Eh
   115  0074  3464               	retlw	064h
   116  0075  3420               	retlw	020h
   117  0076  346C               	retlw	06Ch
   118  0077  3465               	retlw	065h
   119  0078  3464               	retlw	064h
   120  0079  3420               	retlw	020h
   121  007A  3464               	retlw	064h
   122  007B  3475               	retlw	075h
   123  007C  3472               	retlw	072h
   124  007D  3461               	retlw	061h
   125  007E  3474               	retlw	074h
   126  007F  3469               	retlw	069h
   127  0080  346F               	retlw	06Fh
   128  0081  346E               	retlw	06Eh
   129  0082  3400               	retlw	0
   130  0083  3400               	retlw	0
   131  0084  3400               	retlw	0
   132  0085  3400               	retlw	0
   133                           	line	75
   134                           
   135                           ;initializer for main@F1616
   136  0086  3433               	retlw	033h
   137  0087  3472               	retlw	072h
   138  0088  3464               	retlw	064h
   139  0089  3420               	retlw	020h
   140  008A  346C               	retlw	06Ch
   141  008B  3465               	retlw	065h
   142  008C  3464               	retlw	064h
   143  008D  3420               	retlw	020h
   144  008E  3464               	retlw	064h
   145  008F  3475               	retlw	075h
   146  0090  3472               	retlw	072h
   147  0091  3461               	retlw	061h
   148  0092  3474               	retlw	074h
   149  0093  3469               	retlw	069h
   150  0094  346F               	retlw	06Fh
   151  0095  346E               	retlw	06Eh
   152  0096  3400               	retlw	0
   153  0097  3400               	retlw	0
   154  0098  3400               	retlw	0
   155  0099  3400               	retlw	0
   156                           	line	76
   157                           
   158                           ;initializer for main@F1618
   159  009A  3442               	retlw	042h
   160  009B  346C               	retlw	06Ch
   161  009C  3469               	retlw	069h
   162  009D  346E               	retlw	06Eh
   163  009E  346B               	retlw	06Bh
   164  009F  3420               	retlw	020h
   165  00A0  3470               	retlw	070h
   166  00A1  3461               	retlw	061h
   167  00A2  3474               	retlw	074h
   168  00A3  3474               	retlw	074h
   169  00A4  3465               	retlw	065h
   170  00A5  3472               	retlw	072h
   171  00A6  346E               	retlw	06Eh
   172  00A7  3400               	retlw	0
   173  00A8  3400               	retlw	0
   174  00A9  3400               	retlw	0
   175  00AA  3400               	retlw	0
   176  00AB  3400               	retlw	0
   177  00AC  3400               	retlw	0
   178  00AD  3400               	retlw	0
   179                           psect	idataBANK1,class=CODE,space=0,delta=2
   180                           global __pidataBANK1
   181  0F7C                     __pidataBANK1:
   182                           	line	77
   183                           
   184                           ;initializer for main@F1620
   185  0F7C  3450               	retlw	050h
   186  0F7D  3472               	retlw	072h
   187  0F7E  346F               	retlw	06Fh
   188  0F7F  3463               	retlw	063h
   189  0F80  3465               	retlw	065h
   190  0F81  3473               	retlw	073h
   191  0F82  3473               	retlw	073h
   192  0F83  3469               	retlw	069h
   193  0F84  346E               	retlw	06Eh
   194  0F85  3467               	retlw	067h
   195                           	global	_count
   196                           	global	_PORTA
   197  0005                     _PORTA	set	5
   198                           	global	_PORTB
   199  0006                     _PORTB	set	6
   200                           	global	_PORTC
   201  0007                     _PORTC	set	7
   202                           	global	_PORTD
   203  0008                     _PORTD	set	8
   204                           	global	_T1CON
   205  0010                     _T1CON	set	16
   206                           	global	_RA0
   207  0028                     _RA0	set	40
   208                           	global	_RA1
   209  0029                     _RA1	set	41
   210                           	global	_RA2
   211  002A                     _RA2	set	42
   212                           	global	_RC0
   213  0038                     _RC0	set	56
   214                           	global	_RC1
   215  0039                     _RC1	set	57
   216                           	global	_RC2
   217  003A                     _RC2	set	58
   218                           	global	_RD0
   219  0040                     _RD0	set	64
   220                           	global	_RD1
   221  0041                     _RD1	set	65
   222                           	global	_RD2
   223  0042                     _RD2	set	66
   224                           	global	_RD3
   225  0043                     _RD3	set	67
   226                           	global	_RD4
   227  0044                     _RD4	set	68
   228                           	global	_RD5
   229  0045                     _RD5	set	69
   230                           	global	_RD6
   231  0046                     _RD6	set	70
   232                           	global	_TMR1IF
   233  0060                     _TMR1IF	set	96
   234                           	global	_TRISA
   235  0085                     _TRISA	set	133
   236                           	global	_TRISB
   237  0086                     _TRISB	set	134
   238                           	global	_TRISC
   239  0087                     _TRISC	set	135
   240                           	global	_TRISD
   241  0088                     _TRISD	set	136
   242                           	global	_ANSEL
   243  0188                     _ANSEL	set	392
   244                           	global	_ANSELH
   245  0189                     _ANSELH	set	393
   246                           	file	"timer1ask.as"
   247                           	line	#
   248                           psect cinit,class=CODE,delta=2
   249                           global start_initialization
   250  0041                     start_initialization:
   251                           
   252                           psect	bssBANK1,class=BANK1,space=1
   253                           global __pbssBANK1
   254  00DF                     __pbssBANK1:
   255  00DF                     _count:
   256  00DF                            ds      2
   257                           
   258                           psect	dataBANK1,class=BANK1,space=1
   259                           global __pdataBANK1
   260  00D5                     __pdataBANK1:
   261                           	file	"E:\KTU\Softwares\MP lab\Timer1ask\timer1ask.c"
   262  00D5                     main@F1620:
   263  00D5                            ds      10
   264                           
   265                           psect	dataBANK3,class=BANK3,space=1
   266                           global __pdataBANK3
   267  0190                     __pdataBANK3:
   268                           	file	"E:\KTU\Softwares\MP lab\Timer1ask\timer1ask.c"
   269                           	line	74
   270  0190                     main@F1614:
   271  0190                            ds      20
   272                           
   273                           psect	dataBANK3
   274                           	file	"E:\KTU\Softwares\MP lab\Timer1ask\timer1ask.c"
   275                           	line	75
   276  01A4                     main@F1616:
   277  01A4                            ds      20
   278                           
   279                           psect	dataBANK3
   280                           	file	"E:\KTU\Softwares\MP lab\Timer1ask\timer1ask.c"
   281                           	line	76
   282  01B8                     main@F1618:
   283  01B8                            ds      20
   284                           
   285                           psect	dataBANK2,class=BANK2,space=1
   286                           global __pdataBANK2
   287  0110                     __pdataBANK2:
   288                           	file	"E:\KTU\Softwares\MP lab\Timer1ask\timer1ask.c"
   289                           	line	73
   290  0110                     main@F1612:
   291  0110                            ds      40
   292                           
   293                           ; Clear objects allocated to BANK1
   294                           psect cinit,class=CODE,delta=2
   295  0041  1683               	bsf	status, 5	;RP0=1, select bank1
   296  0042  1303               	bcf	status, 6	;RP1=0, select bank1
   297  0043  01DF               	clrf	((__pbssBANK1)+0)&07Fh
   298  0044  01E0               	clrf	((__pbssBANK1)+1)&07Fh
   299                           global btemp
   300                           psect inittext,class=CODE,delta=2
   301                           global init_fetch,btemp
   302                           ;	Called with low address in FSR and high address in W
   303  0FC4                     init_fetch:
   304  0FC4  087E               	movf btemp,w
   305  0FC5  008A               	movwf pclath
   306  0FC6  087F               	movf btemp+1,w
   307  0FC7  0082               	movwf pc
   308                           global init_ram
   309                           ;Called with:
   310                           ;	high address of idata address in btemp 
   311                           ;	low address of idata address in btemp+1 
   312                           ;	low address of data in FSR
   313                           ;	high address + 1 of data in btemp-1
   314  0FC8                     init_ram:
   315  0FC8  27C4  120A  158A   	fcall init_fetch
   316  0FCB  0080               	movwf indf,f
   317  0FCC  0A84               	incf fsr,f
   318  0FCD  0804               	movf fsr,w
   319  0FCE  067D               	xorwf btemp-1,w
   320  0FCF  1903               	btfsc status,2
   321  0FD0  3400               	retlw 0
   322  0FD1  0AFF               	incf btemp+1,f
   323  0FD2  1903               	btfsc status,2
   324  0FD3  0AFE               	incf btemp,f
   325  0FD4  2FC8               	goto init_ram
   326                           ; Initialize objects allocated to BANK3
   327                           psect cinit,class=CODE,delta=2
   328                           global init_ram, __pidataBANK3
   329  0045  1783               	bsf	status, 7	;select IRP bank2
   330  0046  30CC               	movlw low(__pdataBANK3+60)
   331  0047  00FD               	movwf btemp-1,f
   332  0048  3000               	movlw high(__pidataBANK3)
   333  0049  00FE               	movwf btemp,f
   334  004A  3072               	movlw low(__pidataBANK3)
   335  004B  00FF               	movwf btemp+1,f
   336  004C  3090               	movlw low(__pdataBANK3)
   337  004D  0084               	movwf fsr,f
   338  004E  120A  158A  27C8   	fcall init_ram
              120A  118A         
   339                           ; Initialize objects allocated to BANK2
   340                           psect cinit,class=CODE,delta=2
   341                           global init_ram, __pidataBANK2
   342  0053  3038               	movlw low(__pdataBANK2+40)
   343  0054  00FD               	movwf btemp-1,f
   344  0055  3000               	movlw high(__pidataBANK2)
   345  0056  00FE               	movwf btemp,f
   346  0057  3019               	movlw low(__pidataBANK2)
   347  0058  00FF               	movwf btemp+1,f
   348  0059  3010               	movlw low(__pdataBANK2)
   349  005A  0084               	movwf fsr,f
   350  005B  120A  158A  27C8   	fcall init_ram
              120A  118A         
   351                           ; Initialize objects allocated to BANK1
   352                           psect cinit,class=CODE,delta=2
   353                           global init_ram, __pidataBANK1
   354  0060  1383               	bcf	status, 7	;select IRP bank0
   355  0061  30DF               	movlw low(__pdataBANK1+10)
   356  0062  00FD               	movwf btemp-1,f
   357  0063  300F               	movlw high(__pidataBANK1)
   358  0064  00FE               	movwf btemp,f
   359  0065  307C               	movlw low(__pidataBANK1)
   360  0066  00FF               	movwf btemp+1,f
   361  0067  30D5               	movlw low(__pdataBANK1)
   362  0068  0084               	movwf fsr,f
   363  0069  120A  158A  27C8   	fcall init_ram
              120A  118A         
   364                           psect cinit,class=CODE,delta=2
   365                           global end_of_initialization
   366                           
   367                           ;End of C runtime variable initialization code
   368                           
   369  006E                     end_of_initialization:
   370  006E  0183               clrf status
   371  006F  120A  118A  28AE   ljmp _main	;jump to C main() function
   372                           psect	cstackBANK1,class=BANK1,space=1
   373                           global __pcstackBANK1
   374  00A0                     __pcstackBANK1:
   375                           	global	main@pattern
   376  00A0                     main@pattern:	; 20 bytes @ 0x0
   377  00A0                     	ds	20
   378                           	global	main@process
   379  00B4                     main@process:	; 10 bytes @ 0x14
   380  00B4                     	ds	10
   381                           	global	main@val1
   382  00BE                     main@val1:	; 2 bytes @ 0x1E
   383  00BE                     	ds	2
   384                           	global	main@val2
   385  00C0                     main@val2:	; 2 bytes @ 0x20
   386  00C0                     	ds	2
   387                           	global	main@val3
   388  00C2                     main@val3:	; 2 bytes @ 0x22
   389  00C2                     	ds	2
   390                           	global	main@patval
   391  00C4                     main@patval:	; 6 bytes @ 0x24
   392  00C4                     	ds	6
   393                           	global	main@patt
   394  00CA                     main@patt:	; 3 bytes @ 0x2A
   395  00CA                     	ds	3
   396                           	global	main@arr2
   397  00CD                     main@arr2:	; 1 bytes @ 0x2D
   398  00CD                     	ds	1
   399                           	global	main@arr3
   400  00CE                     main@arr3:	; 1 bytes @ 0x2E
   401  00CE                     	ds	1
   402                           	global	main@control
   403  00CF                     main@control:	; 2 bytes @ 0x2F
   404  00CF                     	ds	2
   405                           	global	main@k
   406  00D1                     main@k:	; 2 bytes @ 0x31
   407  00D1                     	ds	2
   408                           	global	main@i
   409  00D3                     main@i:	; 2 bytes @ 0x33
   410  00D3                     	ds	2
   411                           psect	cstackCOMMON,class=COMMON,space=1
   412                           global __pcstackCOMMON
   413  0070                     __pcstackCOMMON:
   414                           	global	?_timer1
   415  0070                     ?_timer1:	; 0 bytes @ 0x0
   416                           	global	??_timer1
   417  0070                     ??_timer1:	; 0 bytes @ 0x0
   418                           	global	?_delay
   419  0070                     ?_delay:	; 0 bytes @ 0x0
   420                           	global	?_pulse
   421  0070                     ?_pulse:	; 0 bytes @ 0x0
   422                           	global	?_on
   423  0070                     ?_on:	; 0 bytes @ 0x0
   424                           	global	?_type
   425  0070                     ?_type:	; 0 bytes @ 0x0
   426                           	global	?_address
   427  0070                     ?_address:	; 0 bytes @ 0x0
   428                           	global	?_display
   429  0070                     ?_display:	; 0 bytes @ 0x0
   430                           	global	?_clear
   431  0070                     ?_clear:	; 0 bytes @ 0x0
   432                           	global	?_main
   433  0070                     ?_main:	; 0 bytes @ 0x0
   434                           	global	delay@del
   435  0070                     delay@del:	; 2 bytes @ 0x0
   436  0070                     	ds	2
   437                           	global	??_delay
   438  0072                     ??_delay:	; 0 bytes @ 0x2
   439                           	global	??_pulse
   440  0072                     ??_pulse:	; 0 bytes @ 0x2
   441                           	global	??_on
   442  0072                     ??_on:	; 0 bytes @ 0x2
   443                           	global	??_type
   444  0072                     ??_type:	; 0 bytes @ 0x2
   445                           	global	??_address
   446  0072                     ??_address:	; 0 bytes @ 0x2
   447                           	global	??_display
   448  0072                     ??_display:	; 0 bytes @ 0x2
   449                           	global	??_clear
   450  0072                     ??_clear:	; 0 bytes @ 0x2
   451                           	global	address@data
   452  0072                     address@data:	; 1 bytes @ 0x2
   453                           	global	display@data
   454  0072                     display@data:	; 1 bytes @ 0x2
   455  0072                     	ds	1
   456                           	global	??_main
   457  0073                     ??_main:	; 0 bytes @ 0x3
   458  0073                     	ds	4
   459                           	global	main@j
   460  0077                     main@j:	; 2 bytes @ 0x7
   461  0077                     	ds	2
   462                           	global	main@arr1
   463  0079                     main@arr1:	; 1 bytes @ 0x9
   464  0079                     	ds	1
   465                           psect	cstackBANK0,class=BANK0,space=1
   466                           global __pcstackBANK0
   467  0020                     __pcstackBANK0:
   468                           	global	main@first
   469  0020                     main@first:	; 40 bytes @ 0x0
   470  0020                     	ds	40
   471                           	global	main@second
   472  0048                     main@second:	; 20 bytes @ 0x28
   473  0048                     	ds	20
   474                           	global	main@third
   475  005C                     main@third:	; 20 bytes @ 0x3C
   476  005C                     	ds	20
   477 ;;Data sizes: Strings 0, constant 0, data 110, bss 2, persistent 0 stack 0
   478 ;;Auto spaces:   Size  Autos    Used
   479 ;; COMMON          14     10      10
   480 ;; BANK0           80     80      80
   481 ;; BANK1           80     53      65
   482 ;; BANK3           96      0      60
   483 ;; BANK2           96      0      40
   484                           
   485 ;;
   486 ;; Pointer list with targets:
   487                           
   488                           
   489                           
   490 ;;
   491 ;; Critical Paths under _main in COMMON
   492 ;;
   493 ;;   _main->_address
   494 ;;   _main->_display
   495 ;;   _pulse->_delay
   496 ;;
   497 ;; Critical Paths under _main in BANK0
   498 ;;
   499 ;;   None.
   500 ;;
   501 ;; Critical Paths under _main in BANK1
   502 ;;
   503 ;;   None.
   504 ;;
   505 ;; Critical Paths under _main in BANK3
   506 ;;
   507 ;;   None.
   508 ;;
   509 ;; Critical Paths under _main in BANK2
   510 ;;
   511 ;;   None.
   512                           
   513 ;;
   514 ;;Main: autosize = 0, tempsize = 4, incstack = 0, save=0
   515 ;;
   516                           
   517 ;;
   518 ;;Call Graph Tables:
   519 ;;
   520 ;; ---------------------------------------------------------------------------------
   521 ;; (Depth) Function   	        Calls       Base Space   Used Autos Params    Refs
   522 ;; ---------------------------------------------------------------------------------
   523 ;; (0) _main                                               140   140      0    2076
   524 ;;                                              3 COMMON     7     7      0
   525 ;;                                              0 BANK0     80    80      0
   526 ;;                                              0 BANK1     53    53      0
   527 ;;                                 _on
   528 ;;                               _type
   529 ;;                            _address
   530 ;;                            _display
   531 ;;                              _clear
   532 ;;                             _timer1
   533 ;; ---------------------------------------------------------------------------------
   534 ;; (1) _clear                                                0     0      0      22
   535 ;;                              _pulse
   536 ;; ---------------------------------------------------------------------------------
   537 ;; (1) _display                                              1     1      0      44
   538 ;;                                              2 COMMON     1     1      0
   539 ;;                              _pulse
   540 ;; ---------------------------------------------------------------------------------
   541 ;; (1) _address                                              1     1      0      44
   542 ;;                                              2 COMMON     1     1      0
   543 ;;                              _pulse
   544 ;; ---------------------------------------------------------------------------------
   545 ;; (1) _type                                                 0     0      0      22
   546 ;;                              _pulse
   547 ;; ---------------------------------------------------------------------------------
   548 ;; (1) _on                                                   0     0      0      22
   549 ;;                              _pulse
   550 ;; ---------------------------------------------------------------------------------
   551 ;; (2) _pulse                                                0     0      0      22
   552 ;;                              _delay
   553 ;; ---------------------------------------------------------------------------------
   554 ;; (3) _delay                                                2     0      2      22
   555 ;;                                              0 COMMON     2     0      2
   556 ;; ---------------------------------------------------------------------------------
   557 ;; (1) _timer1                                               0     0      0       0
   558 ;; ---------------------------------------------------------------------------------
   559 ;; Estimated maximum stack depth 3
   560 ;; ---------------------------------------------------------------------------------
   561                           
   562 ;; Call Graph Graphs:
   563                           
   564 ;; _main (ROOT)
   565 ;;   _on
   566 ;;     _pulse
   567 ;;       _delay
   568 ;;   _type
   569 ;;     _pulse
   570 ;;       _delay
   571 ;;   _address
   572 ;;     _pulse
   573 ;;       _delay
   574 ;;   _display
   575 ;;     _pulse
   576 ;;       _delay
   577 ;;   _clear
   578 ;;     _pulse
   579 ;;       _delay
   580 ;;   _timer1
   581 ;;
   582                           
   583 ;; Address spaces:
   584                           
   585 ;;Name               Size   Autos  Total    Cost      Usage
   586 ;;BANK3               60      0      3C       9       62.5%
   587 ;;BITBANK3            60      0       0       8        0.0%
   588 ;;SFR3                 0      0       0       4        0.0%
   589 ;;BITSFR3              0      0       0       4        0.0%
   590 ;;BANK2               60      0      28      11       41.7%
   591 ;;BITBANK2            60      0       0      10        0.0%
   592 ;;SFR2                 0      0       0       5        0.0%
   593 ;;BITSFR2              0      0       0       5        0.0%
   594 ;;SFR1                 0      0       0       2        0.0%
   595 ;;BITSFR1              0      0       0       2        0.0%
   596 ;;BANK1               50     35      41       7       81.3%
   597 ;;BITBANK1            50      0       0       6        0.0%
   598 ;;CODE                 0      0       0       0        0.0%
   599 ;;DATA                 0      0     102      12        0.0%
   600 ;;ABS                  0      0      FF       3        0.0%
   601 ;;NULL                 0      0       0       0        0.0%
   602 ;;STACK                0      0       3       2        0.0%
   603 ;;BANK0               50     50      50       5      100.0%
   604 ;;BITBANK0            50      0       0       4        0.0%
   605 ;;SFR0                 0      0       0       1        0.0%
   606 ;;BITSFR0              0      0       0       1        0.0%
   607 ;;COMMON               E      A       A       1       71.4%
   608 ;;BITCOMMON            E      0       0       0        0.0%
   609 ;;EEDATA             100      0       0       0        0.0%
   610                           
   611                           	global	_main
   612                           psect	maintext,global,class=CODE,delta=2
   613                           global __pmaintext
   614  00AE                     __pmaintext:
   615                           
   616 ;; *************** function _main *****************
   617 ;; Defined at:
   618 ;;		line 61 in file "E:\KTU\Softwares\MP lab\Timer1ask\timer1ask.c"
   619 ;; Parameters:    Size  Location     Type
   620 ;;		None
   621 ;; Auto vars:     Size  Location     Type
   622 ;;  first          40    0[BANK0 ] unsigned char [40]
   623 ;;  pattern        20    0[BANK1 ] unsigned char [20]
   624 ;;  third          20   60[BANK0 ] unsigned char [20]
   625 ;;  second         20   40[BANK0 ] unsigned char [20]
   626 ;;  process        10   20[BANK1 ] unsigned char [10]
   627 ;;  patval          6   36[BANK1 ] int [3]
   628 ;;  patt            3   42[BANK1 ] unsigned char [3]
   629 ;;  i               2   51[BANK1 ] int 
   630 ;;  k               2   49[BANK1 ] int 
   631 ;;  control         2   47[BANK1 ] int 
   632 ;;  val3            2   34[BANK1 ] int 
   633 ;;  val2            2   32[BANK1 ] int 
   634 ;;  val1            2   30[BANK1 ] int 
   635 ;;  j               2    7[COMMON] int 
   636 ;;  arr3            1   46[BANK1 ] unsigned char 
   637 ;;  arr2            1   45[BANK1 ] unsigned char 
   638 ;;  arr1            1    9[COMMON] unsigned char 
   639 ;; Return value:  Size  Location     Type
   640 ;;		None               void
   641 ;; Registers used:
   642 ;;		wreg, fsr0l, fsr0h, status,2, status,0, btemp+1, pclath, cstack
   643 ;; Tracked objects:
   644 ;;		On entry : 17F/0
   645 ;;		On exit  : 0/0
   646 ;;		Unchanged: 0/0
   647 ;; Data sizes:     COMMON   BANK0   BANK1   BANK3   BANK2
   648 ;;      Params:         0       0       0       0       0
   649 ;;      Locals:         3      80      53       0       0
   650 ;;      Temps:          4       0       0       0       0
   651 ;;      Totals:         7      80      53       0       0
   652 ;;Total ram usage:      140 bytes
   653 ;; Hardware stack levels required when called:    3
   654 ;; This function calls:
   655 ;;		_on
   656 ;;		_type
   657 ;;		_address
   658 ;;		_display
   659 ;;		_clear
   660 ;;		_timer1
   661 ;; This function is called by:
   662 ;;		Startup code after reset
   663 ;; This function uses a non-reentrant model
   664 ;;
   665                           psect	maintext
   666                           	file	"E:\KTU\Softwares\MP lab\Timer1ask\timer1ask.c"
   667                           	line	61
   668                           	global	__size_of_main
   669  0752                     	__size_of_main	equ	__end_of_main-_main
   670                           	
   671  00AE                     _main:	
   672                           	opt	stack 5
   673                           ; Regs used in _main: [wreg-fsr0h+status,2+status,0+btemp+1+pclath+cstack]
   674                           	line	62
   675                           	
   676  00AE                     l2999:	
   677                           ;timer1ask.c: 62: PORTA=0X00;
   678  00AE  1283               	bcf	status, 5	;RP0=0, select bank0
   679  00AF  1303               	bcf	status, 6	;RP1=0, select bank0
   680  00B0  0185               	clrf	(5)	;volatile
   681                           	line	63
   682                           ;timer1ask.c: 63: TRISA=0X00;
   683  00B1  1683               	bsf	status, 5	;RP0=1, select bank1
   684  00B2  1303               	bcf	status, 6	;RP1=0, select bank1
   685  00B3  0185               	clrf	(133)^080h	;volatile
   686                           	line	64
   687                           ;timer1ask.c: 64: PORTB=0X00;
   688  00B4  1283               	bcf	status, 5	;RP0=0, select bank0
   689  00B5  1303               	bcf	status, 6	;RP1=0, select bank0
   690  00B6  0186               	clrf	(6)	;volatile
   691                           	line	65
   692                           ;timer1ask.c: 65: TRISB=0X00;
   693  00B7  1683               	bsf	status, 5	;RP0=1, select bank1
   694  00B8  1303               	bcf	status, 6	;RP1=0, select bank1
   695  00B9  0186               	clrf	(134)^080h	;volatile
   696                           	line	66
   697                           ;timer1ask.c: 66: PORTC=0X00;
   698  00BA  1283               	bcf	status, 5	;RP0=0, select bank0
   699  00BB  1303               	bcf	status, 6	;RP1=0, select bank0
   700  00BC  0187               	clrf	(7)	;volatile
   701                           	line	67
   702                           ;timer1ask.c: 67: TRISC=0X00;
   703  00BD  1683               	bsf	status, 5	;RP0=1, select bank1
   704  00BE  1303               	bcf	status, 6	;RP1=0, select bank1
   705  00BF  0187               	clrf	(135)^080h	;volatile
   706                           	line	68
   707                           ;timer1ask.c: 68: PORTD=0X00;
   708  00C0  1283               	bcf	status, 5	;RP0=0, select bank0
   709  00C1  1303               	bcf	status, 6	;RP1=0, select bank0
   710  00C2  0188               	clrf	(8)	;volatile
   711                           	line	69
   712                           	
   713  00C3                     l3001:	
   714                           ;timer1ask.c: 69: TRISD=0X07;
   715  00C3  3007               	movlw	(07h)
   716  00C4  1683               	bsf	status, 5	;RP0=1, select bank1
   717  00C5  1303               	bcf	status, 6	;RP1=0, select bank1
   718  00C6  0088               	movwf	(136)^080h	;volatile
   719                           	line	70
   720                           	
   721  00C7                     l3003:	
   722                           ;timer1ask.c: 70: ANSEL=0X00;
   723  00C7  1683               	bsf	status, 5	;RP0=1, select bank3
   724  00C8  1703               	bsf	status, 6	;RP1=1, select bank3
   725  00C9  0188               	clrf	(392)^0180h	;volatile
   726                           	line	71
   727                           	
   728  00CA                     l3005:	
   729                           ;timer1ask.c: 71: ANSELH=0X00;
   730  00CA  0189               	clrf	(393)^0180h	;volatile
   731                           	line	72
   732                           	
   733  00CB                     l3007:	
   734                           ;timer1ask.c: 72: T1CON=0X31;
   735  00CB  3031               	movlw	(031h)
   736  00CC  1283               	bcf	status, 5	;RP0=0, select bank0
   737  00CD  1303               	bcf	status, 6	;RP1=0, select bank0
   738  00CE  0090               	movwf	(16)	;volatile
   739                           	line	73
   740                           	
   741  00CF                     l3009:	
   742                           ;timer1ask.c: 73: char first[40]="1st led duration";
   743  00CF  3020               	movlw	(main@first)&0ffh
   744  00D0  0084               	movwf	fsr0
   745  00D1  3010               	movlw	low(main@F1612)
   746  00D2  00F3               	movwf	(??_main+0)+0
   747  00D3  0804               	movf	fsr0,w
   748  00D4  00F4               	movwf	((??_main+0)+0+1)
   749  00D5  3028               	movlw	40
   750  00D6  00F5               	movwf	((??_main+0)+0+2)
   751  00D7                     u3320:
   752  00D7  0873               	movf	(??_main+0)+0,w
   753  00D8  0084               	movwf	fsr0
   754  00D9  1783               	bsf	status, 7	;select IRP bank2
   755                           	
   756  00DA  0800               	movf	indf,w
   757  00DB  00F6               	movwf	((??_main+0)+0+3)
   758  00DC  0AF3               	incf	(??_main+0)+0,f
   759  00DD  0874               	movf	((??_main+0)+0+1),w
   760  00DE  0084               	movwf	fsr0
   761  00DF  1383               	bcf	status, 7	;select IRP bank0
   762                           	
   763  00E0  0876               	movf	((??_main+0)+0+3),w
   764  00E1  0080               	movwf	indf
   765  00E2  0AF4               	incf	((??_main+0)+0+1),f
   766  00E3  0BF5               	decfsz	((??_main+0)+0+2),f
   767  00E4  28D7               	goto	u3320
   768                           	line	74
   769                           	
   770  00E5                     l3011:	
   771                           ;timer1ask.c: 74: char second[20]="2nd led duration";
   772  00E5  3048               	movlw	(main@second)&0ffh
   773  00E6  0084               	movwf	fsr0
   774  00E7  3090               	movlw	low(main@F1614)
   775  00E8  00F3               	movwf	(??_main+0)+0
   776  00E9  0804               	movf	fsr0,w
   777  00EA  00F4               	movwf	((??_main+0)+0+1)
   778  00EB  3014               	movlw	20
   779  00EC  00F5               	movwf	((??_main+0)+0+2)
   780  00ED                     u3330:
   781  00ED  0873               	movf	(??_main+0)+0,w
   782  00EE  0084               	movwf	fsr0
   783  00EF  1783               	bsf	status, 7	;select IRP bank3
   784                           	
   785  00F0  0800               	movf	indf,w
   786  00F1  00F6               	movwf	((??_main+0)+0+3)
   787  00F2  0AF3               	incf	(??_main+0)+0,f
   788  00F3  0874               	movf	((??_main+0)+0+1),w
   789  00F4  0084               	movwf	fsr0
   790  00F5  1383               	bcf	status, 7	;select IRP bank0
   791                           	
   792  00F6  0876               	movf	((??_main+0)+0+3),w
   793  00F7  0080               	movwf	indf
   794  00F8  0AF4               	incf	((??_main+0)+0+1),f
   795  00F9  0BF5               	decfsz	((??_main+0)+0+2),f
   796  00FA  28ED               	goto	u3330
   797                           	line	75
   798                           	
   799  00FB                     l3013:	
   800                           ;timer1ask.c: 75: char third[20]="3rd led duration";
   801  00FB  305C               	movlw	(main@third)&0ffh
   802  00FC  0084               	movwf	fsr0
   803  00FD  30A4               	movlw	low(main@F1616)
   804  00FE  00F3               	movwf	(??_main+0)+0
   805  00FF  0804               	movf	fsr0,w
   806  0100  00F4               	movwf	((??_main+0)+0+1)
   807  0101  3014               	movlw	20
   808  0102  00F5               	movwf	((??_main+0)+0+2)
   809  0103                     u3340:
   810  0103  0873               	movf	(??_main+0)+0,w
   811  0104  0084               	movwf	fsr0
   812  0105  1783               	bsf	status, 7	;select IRP bank3
   813                           	
   814  0106  0800               	movf	indf,w
   815  0107  00F6               	movwf	((??_main+0)+0+3)
   816  0108  0AF3               	incf	(??_main+0)+0,f
   817  0109  0874               	movf	((??_main+0)+0+1),w
   818  010A  0084               	movwf	fsr0
   819  010B  1383               	bcf	status, 7	;select IRP bank0
   820                           	
   821  010C  0876               	movf	((??_main+0)+0+3),w
   822  010D  0080               	movwf	indf
   823  010E  0AF4               	incf	((??_main+0)+0+1),f
   824  010F  0BF5               	decfsz	((??_main+0)+0+2),f
   825  0110  2903               	goto	u3340
   826                           	line	76
   827                           	
   828  0111                     l3015:	
   829                           ;timer1ask.c: 76: char pattern[20]="Blink pattern";
   830  0111  30A0               	movlw	(main@pattern)&0ffh
   831  0112  0084               	movwf	fsr0
   832  0113  30B8               	movlw	low(main@F1618)
   833  0114  00F3               	movwf	(??_main+0)+0
   834  0115  0804               	movf	fsr0,w
   835  0116  00F4               	movwf	((??_main+0)+0+1)
   836  0117  3014               	movlw	20
   837  0118  00F5               	movwf	((??_main+0)+0+2)
   838  0119                     u3350:
   839  0119  0873               	movf	(??_main+0)+0,w
   840  011A  0084               	movwf	fsr0
   841  011B  1783               	bsf	status, 7	;select IRP bank3
   842                           	
   843  011C  0800               	movf	indf,w
   844  011D  00F6               	movwf	((??_main+0)+0+3)
   845  011E  0AF3               	incf	(??_main+0)+0,f
   846  011F  0874               	movf	((??_main+0)+0+1),w
   847  0120  0084               	movwf	fsr0
   848  0121  1383               	bcf	status, 7	;select IRP bank1
   849                           	
   850  0122  0876               	movf	((??_main+0)+0+3),w
   851  0123  0080               	movwf	indf
   852  0124  0AF4               	incf	((??_main+0)+0+1),f
   853  0125  0BF5               	decfsz	((??_main+0)+0+2),f
   854  0126  2919               	goto	u3350
   855                           	line	77
   856                           	
   857  0127                     l3017:	
   858                           ;timer1ask.c: 77: char process[10]="Processing";
   859  0127  30B4               	movlw	(main@process)&0ffh
   860  0128  0084               	movwf	fsr0
   861  0129  30D5               	movlw	low(main@F1620)
   862  012A  00F3               	movwf	(??_main+0)+0
   863  012B  0804               	movf	fsr0,w
   864  012C  00F4               	movwf	((??_main+0)+0+1)
   865  012D  300A               	movlw	10
   866  012E  00F5               	movwf	((??_main+0)+0+2)
   867  012F                     u3360:
   868  012F  0873               	movf	(??_main+0)+0,w
   869  0130  0084               	movwf	fsr0
   870  0131  1383               	bcf	status, 7	;select IRP bank1
   871                           	
   872  0132  0800               	movf	indf,w
   873  0133  00F6               	movwf	((??_main+0)+0+3)
   874  0134  0AF3               	incf	(??_main+0)+0,f
   875  0135  0874               	movf	((??_main+0)+0+1),w
   876  0136  0084               	movwf	fsr0
   877                           	
   878  0137  0876               	movf	((??_main+0)+0+3),w
   879  0138  0080               	movwf	indf
   880  0139  0AF4               	incf	((??_main+0)+0+1),f
   881  013A  0BF5               	decfsz	((??_main+0)+0+2),f
   882  013B  292F               	goto	u3360
   883                           	line	78
   884                           	
   885  013C                     l3019:	
   886                           ;timer1ask.c: 78: int control=1;
   887  013C  3001               	movlw	low(01h)
   888  013D  1683               	bsf	status, 5	;RP0=1, select bank1
   889  013E  1303               	bcf	status, 6	;RP1=0, select bank1
   890  013F  00CF               	movwf	(main@control)^080h
   891  0140  3000               	movlw	high(01h)
   892  0141  00D0               	movwf	((main@control)^080h)+1
   893                           	line	79
   894                           	
   895  0142                     l3021:	
   896                           ;timer1ask.c: 79: int i,j=0;
   897  0142  01F7               	clrf	(main@j)
   898  0143  01F8               	clrf	(main@j+1)
   899                           	line	84
   900                           	
   901  0144                     l3023:	
   902                           ;timer1ask.c: 80: char arr1,arr2,arr3;
   903                           ;timer1ask.c: 81: int val1,val2,val3;
   904                           ;timer1ask.c: 82: char patt[3];
   905                           ;timer1ask.c: 83: int patval[3];
   906                           ;timer1ask.c: 84: int k=0;
   907  0144  01D1               	clrf	(main@k)^080h
   908  0145  01D2               	clrf	(main@k+1)^080h
   909                           	line	85
   910                           	
   911  0146                     l3025:	
   912                           ;timer1ask.c: 85: on();
   913  0146  120A  158A  2786   	fcall	_on
              120A  118A         
   914                           	line	86
   915                           	
   916  014B                     l3027:	
   917                           ;timer1ask.c: 86: type();
   918  014B  120A  158A  2792   	fcall	_type
              120A  118A         
   919  0150  2951               	goto	l3029
   920                           	line	87
   921                           ;timer1ask.c: 87: while(1)
   922                           	
   923  0151                     l1065:	
   924                           	line	89
   925                           	
   926  0151                     l3029:	
   927                           ;timer1ask.c: 88: {
   928                           ;timer1ask.c: 89: if(control==1)
   929  0151  3001               	movlw	01h
   930  0152  1683               	bsf	status, 5	;RP0=1, select bank1
   931  0153  1303               	bcf	status, 6	;RP1=0, select bank1
   932  0154  064F               	xorwf	(main@control)^080h,w
   933  0155  0450               	iorwf	(main@control+1)^080h,w
   934  0156  1D03               	skipz
   935  0157  2959               	goto	u3371
   936  0158  295A               	goto	u3370
   937  0159                     u3371:
   938  0159  299C               	goto	l1066
   939  015A                     u3370:
   940                           	line	91
   941                           	
   942  015A                     l3031:	
   943                           ;timer1ask.c: 90: {
   944                           ;timer1ask.c: 91: for(i=0;i<15;i++)
   945  015A  01D3               	clrf	(main@i)^080h
   946  015B  01D4               	clrf	(main@i+1)^080h
   947                           	
   948  015C                     l3033:	
   949  015C  0854               	movf	(main@i+1)^080h,w
   950  015D  3A80               	xorlw	80h
   951  015E  00FF               	movwf	btemp+1
   952  015F  3080               	movlw	(high(0Fh))^80h
   953  0160  027F               	subwf	btemp+1,w
   954  0161  1D03               	skipz
   955  0162  2965               	goto	u3385
   956  0163  300F               	movlw	low(0Fh)
   957  0164  0253               	subwf	(main@i)^080h,w
   958  0165                     u3385:
   959                           
   960  0165  1C03               	skipc
   961  0166  2968               	goto	u3381
   962  0167  2969               	goto	u3380
   963  0168                     u3381:
   964  0168  296B               	goto	l3037
   965  0169                     u3380:
   966  0169  2996               	goto	l3045
   967                           	
   968  016A                     l3035:	
   969  016A  2996               	goto	l3045
   970                           	line	92
   971                           	
   972  016B                     l1067:	
   973                           	line	93
   974                           	
   975  016B                     l3037:	
   976                           ;timer1ask.c: 92: {
   977                           ;timer1ask.c: 93: address(0X80+i);
   978  016B  1683               	bsf	status, 5	;RP0=1, select bank1
   979  016C  1303               	bcf	status, 6	;RP1=0, select bank1
   980  016D  0853               	movf	(main@i)^080h,w
   981  016E  3E80               	addlw	080h
   982  016F  120A  158A  27AA   	fcall	_address
              120A  118A         
   983                           	line	94
   984                           	
   985  0174                     l3039:	
   986                           ;timer1ask.c: 94: display(first[i]);
   987  0174  1683               	bsf	status, 5	;RP0=1, select bank1
   988  0175  1303               	bcf	status, 6	;RP1=0, select bank1
   989  0176  0853               	movf	(main@i)^080h,w
   990  0177  3E20               	addlw	main@first&0ffh
   991  0178  0084               	movwf	fsr0
   992  0179  1383               	bcf	status, 7	;select IRP bank0
   993  017A  0800               	movf	indf,w
   994  017B  120A  158A  27B7   	fcall	_display
              120A  118A         
   995                           	line	91
   996                           	
   997  0180                     l3041:	
   998  0180  3001               	movlw	low(01h)
   999  0181  1683               	bsf	status, 5	;RP0=1, select bank1
  1000  0182  1303               	bcf	status, 6	;RP1=0, select bank1
  1001  0183  07D3               	addwf	(main@i)^080h,f
  1002  0184  1803               	skipnc
  1003  0185  0AD4               	incf	(main@i+1)^080h,f
  1004  0186  3000               	movlw	high(01h)
  1005  0187  07D4               	addwf	(main@i+1)^080h,f
  1006                           	
  1007  0188                     l3043:	
  1008  0188  0854               	movf	(main@i+1)^080h,w
  1009  0189  3A80               	xorlw	80h
  1010  018A  00FF               	movwf	btemp+1
  1011  018B  3080               	movlw	(high(0Fh))^80h
  1012  018C  027F               	subwf	btemp+1,w
  1013  018D  1D03               	skipz
  1014  018E  2991               	goto	u3395
  1015  018F  300F               	movlw	low(0Fh)
  1016  0190  0253               	subwf	(main@i)^080h,w
  1017  0191                     u3395:
  1018                           
  1019  0191  1C03               	skipc
  1020  0192  2994               	goto	u3391
  1021  0193  2995               	goto	u3390
  1022  0194                     u3391:
  1023  0194  296B               	goto	l3037
  1024  0195                     u3390:
  1025  0195  2996               	goto	l3045
  1026                           	
  1027  0196                     l1068:	
  1028                           	line	96
  1029                           	
  1030  0196                     l3045:	
  1031                           ;timer1ask.c: 95: }
  1032                           ;timer1ask.c: 96: control=2;
  1033  0196  3002               	movlw	low(02h)
  1034  0197  1683               	bsf	status, 5	;RP0=1, select bank1
  1035  0198  1303               	bcf	status, 6	;RP1=0, select bank1
  1036  0199  00CF               	movwf	(main@control)^080h
  1037  019A  3000               	movlw	high(02h)
  1038  019B  00D0               	movwf	((main@control)^080h)+1
  1039                           	line	97
  1040                           	
  1041  019C                     l1066:	
  1042                           	line	98
  1043                           ;timer1ask.c: 97: }
  1044                           ;timer1ask.c: 98: if(control==2)
  1045  019C  3002               	movlw	02h
  1046  019D  064F               	xorwf	(main@control)^080h,w
  1047  019E  0450               	iorwf	(main@control+1)^080h,w
  1048  019F  1D03               	skipz
  1049  01A0  29A2               	goto	u3401
  1050  01A1  29A3               	goto	u3400
  1051  01A2                     u3401:
  1052  01A2  2A72               	goto	l3145
  1053  01A3                     u3400:
  1054                           	line	100
  1055                           	
  1056  01A3                     l3047:	
  1057                           ;timer1ask.c: 99: {
  1058                           ;timer1ask.c: 100: address(0XC0+0);
  1059  01A3  30C0               	movlw	(0C0h)
  1060  01A4  120A  158A  27AA   	fcall	_address
              120A  118A         
  1061                           	line	101
  1062                           ;timer1ask.c: 101: display(arr1);
  1063  01A9  0879               	movf	(main@arr1),w
  1064  01AA  120A  158A  27B7   	fcall	_display
              120A  118A         
  1065                           	line	102
  1066                           	
  1067  01AF                     l3049:	
  1068                           ;timer1ask.c: 102: RD3=1;RD4=0;RD5=0;RD6=0;
  1069  01AF  1283               	bcf	status, 5	;RP0=0, select bank0
  1070  01B0  1303               	bcf	status, 6	;RP1=0, select bank0
  1071  01B1  1588               	bsf	(67/8),(67)&7
  1072                           	
  1073  01B2                     l3051:	
  1074  01B2  1208               	bcf	(68/8),(68)&7
  1075                           	
  1076  01B3                     l3053:	
  1077  01B3  1288               	bcf	(69/8),(69)&7
  1078                           	
  1079  01B4                     l3055:	
  1080  01B4  1308               	bcf	(70/8),(70)&7
  1081                           	line	103
  1082                           	
  1083  01B5                     l3057:	
  1084                           ;timer1ask.c: 103: if(RD0==1)
  1085  01B5  1C08               	btfss	(64/8),(64)&7
  1086  01B6  29B8               	goto	u3411
  1087  01B7  29B9               	goto	u3410
  1088  01B8                     u3411:
  1089  01B8  29C5               	goto	l3063
  1090  01B9                     u3410:
  1091  01B9  29BB               	goto	l1071
  1092                           	line	105
  1093                           	
  1094  01BA                     l3059:	
  1095                           ;timer1ask.c: 104: {
  1096                           ;timer1ask.c: 105: while(RD0==1);
  1097  01BA  29BB               	goto	l1071
  1098                           	
  1099  01BB                     l1072:	
  1100                           	
  1101  01BB                     l1071:	
  1102  01BB  1808               	btfsc	(64/8),(64)&7
  1103  01BC  29BE               	goto	u3421
  1104  01BD  29BF               	goto	u3420
  1105  01BE                     u3421:
  1106  01BE  29BB               	goto	l1071
  1107  01BF                     u3420:
  1108  01BF  29C0               	goto	l3061
  1109                           	
  1110  01C0                     l1073:	
  1111                           	line	106
  1112                           	
  1113  01C0                     l3061:	
  1114                           ;timer1ask.c: 106: arr1='1';
  1115  01C0  3031               	movlw	(031h)
  1116  01C1  00F3               	movwf	(??_main+0)+0
  1117  01C2  0873               	movf	(??_main+0)+0,w
  1118  01C3  00F9               	movwf	(main@arr1)
  1119  01C4  29C5               	goto	l3063
  1120                           	line	107
  1121                           	
  1122  01C5                     l1070:	
  1123                           	line	108
  1124                           	
  1125  01C5                     l3063:	
  1126                           ;timer1ask.c: 107: }
  1127                           ;timer1ask.c: 108: if(RD1==1)
  1128  01C5  1C88               	btfss	(65/8),(65)&7
  1129  01C6  29C8               	goto	u3431
  1130  01C7  29C9               	goto	u3430
  1131  01C8                     u3431:
  1132  01C8  29D5               	goto	l3069
  1133  01C9                     u3430:
  1134  01C9  29CB               	goto	l1075
  1135                           	line	110
  1136                           	
  1137  01CA                     l3065:	
  1138                           ;timer1ask.c: 109: {
  1139                           ;timer1ask.c: 110: while(RD1==1);
  1140  01CA  29CB               	goto	l1075
  1141                           	
  1142  01CB                     l1076:	
  1143                           	
  1144  01CB                     l1075:	
  1145  01CB  1888               	btfsc	(65/8),(65)&7
  1146  01CC  29CE               	goto	u3441
  1147  01CD  29CF               	goto	u3440
  1148  01CE                     u3441:
  1149  01CE  29CB               	goto	l1075
  1150  01CF                     u3440:
  1151  01CF  29D0               	goto	l3067
  1152                           	
  1153  01D0                     l1077:	
  1154                           	line	111
  1155                           	
  1156  01D0                     l3067:	
  1157                           ;timer1ask.c: 111: arr1='2';
  1158  01D0  3032               	movlw	(032h)
  1159  01D1  00F3               	movwf	(??_main+0)+0
  1160  01D2  0873               	movf	(??_main+0)+0,w
  1161  01D3  00F9               	movwf	(main@arr1)
  1162  01D4  29D5               	goto	l3069
  1163                           	line	112
  1164                           	
  1165  01D5                     l1074:	
  1166                           	line	113
  1167                           	
  1168  01D5                     l3069:	
  1169                           ;timer1ask.c: 112: }
  1170                           ;timer1ask.c: 113: if(RD2==1)
  1171  01D5  1D08               	btfss	(66/8),(66)&7
  1172  01D6  29D8               	goto	u3451
  1173  01D7  29D9               	goto	u3450
  1174  01D8                     u3451:
  1175  01D8  29E5               	goto	l3075
  1176  01D9                     u3450:
  1177  01D9  29DB               	goto	l1079
  1178                           	line	115
  1179                           	
  1180  01DA                     l3071:	
  1181                           ;timer1ask.c: 114: {
  1182                           ;timer1ask.c: 115: while(RD2==1);
  1183  01DA  29DB               	goto	l1079
  1184                           	
  1185  01DB                     l1080:	
  1186                           	
  1187  01DB                     l1079:	
  1188  01DB  1908               	btfsc	(66/8),(66)&7
  1189  01DC  29DE               	goto	u3461
  1190  01DD  29DF               	goto	u3460
  1191  01DE                     u3461:
  1192  01DE  29DB               	goto	l1079
  1193  01DF                     u3460:
  1194  01DF  29E0               	goto	l3073
  1195                           	
  1196  01E0                     l1081:	
  1197                           	line	116
  1198                           	
  1199  01E0                     l3073:	
  1200                           ;timer1ask.c: 116: arr1='3';
  1201  01E0  3033               	movlw	(033h)
  1202  01E1  00F3               	movwf	(??_main+0)+0
  1203  01E2  0873               	movf	(??_main+0)+0,w
  1204  01E3  00F9               	movwf	(main@arr1)
  1205  01E4  29E5               	goto	l3075
  1206                           	line	117
  1207                           	
  1208  01E5                     l1078:	
  1209                           	line	118
  1210                           	
  1211  01E5                     l3075:	
  1212                           ;timer1ask.c: 117: }
  1213                           ;timer1ask.c: 118: RD3=0;RD4=1;RD5=0;RD6=0;
  1214  01E5  1188               	bcf	(67/8),(67)&7
  1215                           	
  1216  01E6                     l3077:	
  1217  01E6  1608               	bsf	(68/8),(68)&7
  1218                           	
  1219  01E7                     l3079:	
  1220  01E7  1288               	bcf	(69/8),(69)&7
  1221                           	
  1222  01E8                     l3081:	
  1223  01E8  1308               	bcf	(70/8),(70)&7
  1224                           	line	119
  1225                           	
  1226  01E9                     l3083:	
  1227                           ;timer1ask.c: 119: if(RD0==1)
  1228  01E9  1C08               	btfss	(64/8),(64)&7
  1229  01EA  29EC               	goto	u3471
  1230  01EB  29ED               	goto	u3470
  1231  01EC                     u3471:
  1232  01EC  29F9               	goto	l3089
  1233  01ED                     u3470:
  1234  01ED  29EF               	goto	l1083
  1235                           	line	121
  1236                           	
  1237  01EE                     l3085:	
  1238                           ;timer1ask.c: 120: {
  1239                           ;timer1ask.c: 121: while(RD0==1);
  1240  01EE  29EF               	goto	l1083
  1241                           	
  1242  01EF                     l1084:	
  1243                           	
  1244  01EF                     l1083:	
  1245  01EF  1808               	btfsc	(64/8),(64)&7
  1246  01F0  29F2               	goto	u3481
  1247  01F1  29F3               	goto	u3480
  1248  01F2                     u3481:
  1249  01F2  29EF               	goto	l1083
  1250  01F3                     u3480:
  1251  01F3  29F4               	goto	l3087
  1252                           	
  1253  01F4                     l1085:	
  1254                           	line	122
  1255                           	
  1256  01F4                     l3087:	
  1257                           ;timer1ask.c: 122: arr1='4';
  1258  01F4  3034               	movlw	(034h)
  1259  01F5  00F3               	movwf	(??_main+0)+0
  1260  01F6  0873               	movf	(??_main+0)+0,w
  1261  01F7  00F9               	movwf	(main@arr1)
  1262  01F8  29F9               	goto	l3089
  1263                           	line	123
  1264                           	
  1265  01F9                     l1082:	
  1266                           	line	124
  1267                           	
  1268  01F9                     l3089:	
  1269                           ;timer1ask.c: 123: }
  1270                           ;timer1ask.c: 124: if(RD1==1)
  1271  01F9  1C88               	btfss	(65/8),(65)&7
  1272  01FA  29FC               	goto	u3491
  1273  01FB  29FD               	goto	u3490
  1274  01FC                     u3491:
  1275  01FC  2A09               	goto	l3095
  1276  01FD                     u3490:
  1277  01FD  29FF               	goto	l1087
  1278                           	line	126
  1279                           	
  1280  01FE                     l3091:	
  1281                           ;timer1ask.c: 125: {
  1282                           ;timer1ask.c: 126: while(RD1==1);
  1283  01FE  29FF               	goto	l1087
  1284                           	
  1285  01FF                     l1088:	
  1286                           	
  1287  01FF                     l1087:	
  1288  01FF  1888               	btfsc	(65/8),(65)&7
  1289  0200  2A02               	goto	u3501
  1290  0201  2A03               	goto	u3500
  1291  0202                     u3501:
  1292  0202  29FF               	goto	l1087
  1293  0203                     u3500:
  1294  0203  2A04               	goto	l3093
  1295                           	
  1296  0204                     l1089:	
  1297                           	line	127
  1298                           	
  1299  0204                     l3093:	
  1300                           ;timer1ask.c: 127: arr1='5';
  1301  0204  3035               	movlw	(035h)
  1302  0205  00F3               	movwf	(??_main+0)+0
  1303  0206  0873               	movf	(??_main+0)+0,w
  1304  0207  00F9               	movwf	(main@arr1)
  1305  0208  2A09               	goto	l3095
  1306                           	line	128
  1307                           	
  1308  0209                     l1086:	
  1309                           	line	129
  1310                           	
  1311  0209                     l3095:	
  1312                           ;timer1ask.c: 128: }
  1313                           ;timer1ask.c: 129: if(RD2==1)
  1314  0209  1D08               	btfss	(66/8),(66)&7
  1315  020A  2A0C               	goto	u3511
  1316  020B  2A0D               	goto	u3510
  1317  020C                     u3511:
  1318  020C  2A19               	goto	l3101
  1319  020D                     u3510:
  1320  020D  2A0F               	goto	l1091
  1321                           	line	131
  1322                           	
  1323  020E                     l3097:	
  1324                           ;timer1ask.c: 130: {
  1325                           ;timer1ask.c: 131: while(RD2==1);
  1326  020E  2A0F               	goto	l1091
  1327                           	
  1328  020F                     l1092:	
  1329                           	
  1330  020F                     l1091:	
  1331  020F  1908               	btfsc	(66/8),(66)&7
  1332  0210  2A12               	goto	u3521
  1333  0211  2A13               	goto	u3520
  1334  0212                     u3521:
  1335  0212  2A0F               	goto	l1091
  1336  0213                     u3520:
  1337  0213  2A14               	goto	l3099
  1338                           	
  1339  0214                     l1093:	
  1340                           	line	132
  1341                           	
  1342  0214                     l3099:	
  1343                           ;timer1ask.c: 132: arr1='6';
  1344  0214  3036               	movlw	(036h)
  1345  0215  00F3               	movwf	(??_main+0)+0
  1346  0216  0873               	movf	(??_main+0)+0,w
  1347  0217  00F9               	movwf	(main@arr1)
  1348  0218  2A19               	goto	l3101
  1349                           	line	133
  1350                           	
  1351  0219                     l1090:	
  1352                           	line	134
  1353                           	
  1354  0219                     l3101:	
  1355                           ;timer1ask.c: 133: }
  1356                           ;timer1ask.c: 134: RD3=0;RD4=0;RD5=1;RD6=0;
  1357  0219  1188               	bcf	(67/8),(67)&7
  1358                           	
  1359  021A                     l3103:	
  1360  021A  1208               	bcf	(68/8),(68)&7
  1361                           	
  1362  021B                     l3105:	
  1363  021B  1688               	bsf	(69/8),(69)&7
  1364                           	
  1365  021C                     l3107:	
  1366  021C  1308               	bcf	(70/8),(70)&7
  1367                           	line	135
  1368                           	
  1369  021D                     l3109:	
  1370                           ;timer1ask.c: 135: if(RD0==1)
  1371  021D  1C08               	btfss	(64/8),(64)&7
  1372  021E  2A20               	goto	u3531
  1373  021F  2A21               	goto	u3530
  1374  0220                     u3531:
  1375  0220  2A2D               	goto	l3115
  1376  0221                     u3530:
  1377  0221  2A23               	goto	l1095
  1378                           	line	137
  1379                           	
  1380  0222                     l3111:	
  1381                           ;timer1ask.c: 136: {
  1382                           ;timer1ask.c: 137: while(RD0==1);
  1383  0222  2A23               	goto	l1095
  1384                           	
  1385  0223                     l1096:	
  1386                           	
  1387  0223                     l1095:	
  1388  0223  1808               	btfsc	(64/8),(64)&7
  1389  0224  2A26               	goto	u3541
  1390  0225  2A27               	goto	u3540
  1391  0226                     u3541:
  1392  0226  2A23               	goto	l1095
  1393  0227                     u3540:
  1394  0227  2A28               	goto	l3113
  1395                           	
  1396  0228                     l1097:	
  1397                           	line	138
  1398                           	
  1399  0228                     l3113:	
  1400                           ;timer1ask.c: 138: arr1='7';
  1401  0228  3037               	movlw	(037h)
  1402  0229  00F3               	movwf	(??_main+0)+0
  1403  022A  0873               	movf	(??_main+0)+0,w
  1404  022B  00F9               	movwf	(main@arr1)
  1405  022C  2A2D               	goto	l3115
  1406                           	line	139
  1407                           	
  1408  022D                     l1094:	
  1409                           	line	140
  1410                           	
  1411  022D                     l3115:	
  1412                           ;timer1ask.c: 139: }
  1413                           ;timer1ask.c: 140: if(RD1==1)
  1414  022D  1C88               	btfss	(65/8),(65)&7
  1415  022E  2A30               	goto	u3551
  1416  022F  2A31               	goto	u3550
  1417  0230                     u3551:
  1418  0230  2A3D               	goto	l3121
  1419  0231                     u3550:
  1420  0231  2A33               	goto	l1099
  1421                           	line	142
  1422                           	
  1423  0232                     l3117:	
  1424                           ;timer1ask.c: 141: {
  1425                           ;timer1ask.c: 142: while(RD1==1);
  1426  0232  2A33               	goto	l1099
  1427                           	
  1428  0233                     l1100:	
  1429                           	
  1430  0233                     l1099:	
  1431  0233  1888               	btfsc	(65/8),(65)&7
  1432  0234  2A36               	goto	u3561
  1433  0235  2A37               	goto	u3560
  1434  0236                     u3561:
  1435  0236  2A33               	goto	l1099
  1436  0237                     u3560:
  1437  0237  2A38               	goto	l3119
  1438                           	
  1439  0238                     l1101:	
  1440                           	line	143
  1441                           	
  1442  0238                     l3119:	
  1443                           ;timer1ask.c: 143: arr1='8';
  1444  0238  3038               	movlw	(038h)
  1445  0239  00F3               	movwf	(??_main+0)+0
  1446  023A  0873               	movf	(??_main+0)+0,w
  1447  023B  00F9               	movwf	(main@arr1)
  1448  023C  2A3D               	goto	l3121
  1449                           	line	144
  1450                           	
  1451  023D                     l1098:	
  1452                           	line	145
  1453                           	
  1454  023D                     l3121:	
  1455                           ;timer1ask.c: 144: }
  1456                           ;timer1ask.c: 145: if(RD2==1)
  1457  023D  1D08               	btfss	(66/8),(66)&7
  1458  023E  2A40               	goto	u3571
  1459  023F  2A41               	goto	u3570
  1460  0240                     u3571:
  1461  0240  2A4D               	goto	l3127
  1462  0241                     u3570:
  1463  0241  2A43               	goto	l1103
  1464                           	line	147
  1465                           	
  1466  0242                     l3123:	
  1467                           ;timer1ask.c: 146: {
  1468                           ;timer1ask.c: 147: while(RD2==1);
  1469  0242  2A43               	goto	l1103
  1470                           	
  1471  0243                     l1104:	
  1472                           	
  1473  0243                     l1103:	
  1474  0243  1908               	btfsc	(66/8),(66)&7
  1475  0244  2A46               	goto	u3581
  1476  0245  2A47               	goto	u3580
  1477  0246                     u3581:
  1478  0246  2A43               	goto	l1103
  1479  0247                     u3580:
  1480  0247  2A48               	goto	l3125
  1481                           	
  1482  0248                     l1105:	
  1483                           	line	148
  1484                           	
  1485  0248                     l3125:	
  1486                           ;timer1ask.c: 148: arr1='9';
  1487  0248  3039               	movlw	(039h)
  1488  0249  00F3               	movwf	(??_main+0)+0
  1489  024A  0873               	movf	(??_main+0)+0,w
  1490  024B  00F9               	movwf	(main@arr1)
  1491  024C  2A4D               	goto	l3127
  1492                           	line	149
  1493                           	
  1494  024D                     l1102:	
  1495                           	line	150
  1496                           	
  1497  024D                     l3127:	
  1498                           ;timer1ask.c: 149: }
  1499                           ;timer1ask.c: 150: RD3=0;RD4=0;RD5=0;RD6=1;
  1500  024D  1188               	bcf	(67/8),(67)&7
  1501                           	
  1502  024E                     l3129:	
  1503  024E  1208               	bcf	(68/8),(68)&7
  1504                           	
  1505  024F                     l3131:	
  1506  024F  1288               	bcf	(69/8),(69)&7
  1507                           	
  1508  0250                     l3133:	
  1509  0250  1708               	bsf	(70/8),(70)&7
  1510                           	line	151
  1511                           	
  1512  0251                     l3135:	
  1513                           ;timer1ask.c: 151: if(RD0==1)
  1514  0251  1C08               	btfss	(64/8),(64)&7
  1515  0252  2A54               	goto	u3591
  1516  0253  2A55               	goto	u3590
  1517  0254                     u3591:
  1518  0254  2A68               	goto	l3143
  1519  0255                     u3590:
  1520  0255  2A57               	goto	l1107
  1521                           	line	153
  1522                           	
  1523  0256                     l3137:	
  1524                           ;timer1ask.c: 152: {
  1525                           ;timer1ask.c: 153: while(RD0==1);
  1526  0256  2A57               	goto	l1107
  1527                           	
  1528  0257                     l1108:	
  1529                           	
  1530  0257                     l1107:	
  1531  0257  1808               	btfsc	(64/8),(64)&7
  1532  0258  2A5A               	goto	u3601
  1533  0259  2A5B               	goto	u3600
  1534  025A                     u3601:
  1535  025A  2A57               	goto	l1107
  1536  025B                     u3600:
  1537  025B  2A5C               	goto	l3139
  1538                           	
  1539  025C                     l1109:	
  1540                           	line	154
  1541                           	
  1542  025C                     l3139:	
  1543                           ;timer1ask.c: 154: control=3;
  1544  025C  3003               	movlw	low(03h)
  1545  025D  1683               	bsf	status, 5	;RP0=1, select bank1
  1546  025E  1303               	bcf	status, 6	;RP1=0, select bank1
  1547  025F  00CF               	movwf	(main@control)^080h
  1548  0260  3000               	movlw	high(03h)
  1549  0261  00D0               	movwf	((main@control)^080h)+1
  1550                           	line	155
  1551                           	
  1552  0262                     l3141:	
  1553                           ;timer1ask.c: 155: clear();
  1554  0262  120A  158A  279E   	fcall	_clear
              120A  118A         
  1555  0267  2A68               	goto	l3143
  1556                           	line	156
  1557                           	
  1558  0268                     l1106:	
  1559                           	line	157
  1560                           	
  1561  0268                     l3143:	
  1562                           ;timer1ask.c: 156: }
  1563                           ;timer1ask.c: 157: val1= arr1-'0';
  1564  0268  0879               	movf	(main@arr1),w
  1565  0269  3ED0               	addlw	low(0FFD0h)
  1566  026A  1683               	bsf	status, 5	;RP0=1, select bank1
  1567  026B  1303               	bcf	status, 6	;RP1=0, select bank1
  1568  026C  00BE               	movwf	(main@val1)^080h
  1569  026D  30FF               	movlw	high(0FFD0h)
  1570  026E  1803               	skipnc
  1571  026F  3000               	movlw	(high(0FFD0h)+1)&0ffh
  1572  0270  00BF               	movwf	((main@val1)^080h)+1
  1573  0271  2A72               	goto	l3145
  1574                           	line	158
  1575                           	
  1576  0272                     l1069:	
  1577                           	line	159
  1578                           	
  1579  0272                     l3145:	
  1580                           ;timer1ask.c: 158: }
  1581                           ;timer1ask.c: 159: if(control==3)
  1582  0272  3003               	movlw	03h
  1583  0273  064F               	xorwf	(main@control)^080h,w
  1584  0274  0450               	iorwf	(main@control+1)^080h,w
  1585  0275  1D03               	skipz
  1586  0276  2A78               	goto	u3611
  1587  0277  2A79               	goto	u3610
  1588  0278                     u3611:
  1589  0278  2AC2               	goto	l1110
  1590  0279                     u3610:
  1591                           	line	161
  1592                           	
  1593  0279                     l3147:	
  1594                           ;timer1ask.c: 160: {
  1595                           ;timer1ask.c: 161: clear();
  1596  0279  120A  158A  279E   	fcall	_clear
              120A  118A         
  1597                           	line	162
  1598                           	
  1599  027E                     l3149:	
  1600                           ;timer1ask.c: 162: for(i=0;i<15;i++)
  1601  027E  1683               	bsf	status, 5	;RP0=1, select bank1
  1602  027F  1303               	bcf	status, 6	;RP1=0, select bank1
  1603  0280  01D3               	clrf	(main@i)^080h
  1604  0281  01D4               	clrf	(main@i+1)^080h
  1605                           	
  1606  0282                     l3151:	
  1607  0282  0854               	movf	(main@i+1)^080h,w
  1608  0283  3A80               	xorlw	80h
  1609  0284  00FF               	movwf	btemp+1
  1610  0285  3080               	movlw	(high(0Fh))^80h
  1611  0286  027F               	subwf	btemp+1,w
  1612  0287  1D03               	skipz
  1613  0288  2A8B               	goto	u3625
  1614  0289  300F               	movlw	low(0Fh)
  1615  028A  0253               	subwf	(main@i)^080h,w
  1616  028B                     u3625:
  1617                           
  1618  028B  1C03               	skipc
  1619  028C  2A8E               	goto	u3621
  1620  028D  2A8F               	goto	u3620
  1621  028E                     u3621:
  1622  028E  2A91               	goto	l3155
  1623  028F                     u3620:
  1624  028F  2ABC               	goto	l3163
  1625                           	
  1626  0290                     l3153:	
  1627  0290  2ABC               	goto	l3163
  1628                           	line	163
  1629                           	
  1630  0291                     l1111:	
  1631                           	line	164
  1632                           	
  1633  0291                     l3155:	
  1634                           ;timer1ask.c: 163: {
  1635                           ;timer1ask.c: 164: address(0X80+i);
  1636  0291  1683               	bsf	status, 5	;RP0=1, select bank1
  1637  0292  1303               	bcf	status, 6	;RP1=0, select bank1
  1638  0293  0853               	movf	(main@i)^080h,w
  1639  0294  3E80               	addlw	080h
  1640  0295  120A  158A  27AA   	fcall	_address
              120A  118A         
  1641                           	line	165
  1642                           	
  1643  029A                     l3157:	
  1644                           ;timer1ask.c: 165: display(second[i]);
  1645  029A  1683               	bsf	status, 5	;RP0=1, select bank1
  1646  029B  1303               	bcf	status, 6	;RP1=0, select bank1
  1647  029C  0853               	movf	(main@i)^080h,w
  1648  029D  3E48               	addlw	main@second&0ffh
  1649  029E  0084               	movwf	fsr0
  1650  029F  1383               	bcf	status, 7	;select IRP bank0
  1651  02A0  0800               	movf	indf,w
  1652  02A1  120A  158A  27B7   	fcall	_display
              120A  118A         
  1653                           	line	162
  1654                           	
  1655  02A6                     l3159:	
  1656  02A6  3001               	movlw	low(01h)
  1657  02A7  1683               	bsf	status, 5	;RP0=1, select bank1
  1658  02A8  1303               	bcf	status, 6	;RP1=0, select bank1
  1659  02A9  07D3               	addwf	(main@i)^080h,f
  1660  02AA  1803               	skipnc
  1661  02AB  0AD4               	incf	(main@i+1)^080h,f
  1662  02AC  3000               	movlw	high(01h)
  1663  02AD  07D4               	addwf	(main@i+1)^080h,f
  1664                           	
  1665  02AE                     l3161:	
  1666  02AE  0854               	movf	(main@i+1)^080h,w
  1667  02AF  3A80               	xorlw	80h
  1668  02B0  00FF               	movwf	btemp+1
  1669  02B1  3080               	movlw	(high(0Fh))^80h
  1670  02B2  027F               	subwf	btemp+1,w
  1671  02B3  1D03               	skipz
  1672  02B4  2AB7               	goto	u3635
  1673  02B5  300F               	movlw	low(0Fh)
  1674  02B6  0253               	subwf	(main@i)^080h,w
  1675  02B7                     u3635:
  1676                           
  1677  02B7  1C03               	skipc
  1678  02B8  2ABA               	goto	u3631
  1679  02B9  2ABB               	goto	u3630
  1680  02BA                     u3631:
  1681  02BA  2A91               	goto	l3155
  1682  02BB                     u3630:
  1683  02BB  2ABC               	goto	l3163
  1684                           	
  1685  02BC                     l1112:	
  1686                           	line	167
  1687                           	
  1688  02BC                     l3163:	
  1689                           ;timer1ask.c: 166: }
  1690                           ;timer1ask.c: 167: control=4;
  1691  02BC  3004               	movlw	low(04h)
  1692  02BD  1683               	bsf	status, 5	;RP0=1, select bank1
  1693  02BE  1303               	bcf	status, 6	;RP1=0, select bank1
  1694  02BF  00CF               	movwf	(main@control)^080h
  1695  02C0  3000               	movlw	high(04h)
  1696  02C1  00D0               	movwf	((main@control)^080h)+1
  1697                           	line	168
  1698                           	
  1699  02C2                     l1110:	
  1700                           	line	169
  1701                           ;timer1ask.c: 168: }
  1702                           ;timer1ask.c: 169: if(control==4)
  1703  02C2  3004               	movlw	04h
  1704  02C3  064F               	xorwf	(main@control)^080h,w
  1705  02C4  0450               	iorwf	(main@control+1)^080h,w
  1706  02C5  1D03               	skipz
  1707  02C6  2AC8               	goto	u3641
  1708  02C7  2AC9               	goto	u3640
  1709  02C8                     u3641:
  1710  02C8  2BAE               	goto	l1113
  1711  02C9                     u3640:
  1712                           	line	172
  1713                           	
  1714  02C9                     l3165:	
  1715                           ;timer1ask.c: 170: {
  1716                           ;timer1ask.c: 172: address(0XC0+0);
  1717  02C9  30C0               	movlw	(0C0h)
  1718  02CA  120A  158A  27AA   	fcall	_address
              120A  118A         
  1719                           	line	173
  1720                           ;timer1ask.c: 173: display(arr2);
  1721  02CF  1683               	bsf	status, 5	;RP0=1, select bank1
  1722  02D0  1303               	bcf	status, 6	;RP1=0, select bank1
  1723  02D1  084D               	movf	(main@arr2)^080h,w
  1724  02D2  120A  158A  27B7   	fcall	_display
              120A  118A         
  1725                           	line	174
  1726                           	
  1727  02D7                     l3167:	
  1728                           ;timer1ask.c: 174: RD3=1;RD4=0;RD5=0;RD6=0;
  1729  02D7  1283               	bcf	status, 5	;RP0=0, select bank0
  1730  02D8  1303               	bcf	status, 6	;RP1=0, select bank0
  1731  02D9  1588               	bsf	(67/8),(67)&7
  1732                           	
  1733  02DA                     l3169:	
  1734  02DA  1208               	bcf	(68/8),(68)&7
  1735                           	
  1736  02DB                     l3171:	
  1737  02DB  1288               	bcf	(69/8),(69)&7
  1738                           	
  1739  02DC                     l3173:	
  1740  02DC  1308               	bcf	(70/8),(70)&7
  1741                           	line	175
  1742                           	
  1743  02DD                     l3175:	
  1744                           ;timer1ask.c: 175: if(RD0==1)
  1745  02DD  1C08               	btfss	(64/8),(64)&7
  1746  02DE  2AE0               	goto	u3651
  1747  02DF  2AE1               	goto	u3650
  1748  02E0                     u3651:
  1749  02E0  2AEF               	goto	l3181
  1750  02E1                     u3650:
  1751  02E1  2AE3               	goto	l1115
  1752                           	line	177
  1753                           	
  1754  02E2                     l3177:	
  1755                           ;timer1ask.c: 176: {
  1756                           ;timer1ask.c: 177: while(RD0==1);
  1757  02E2  2AE3               	goto	l1115
  1758                           	
  1759  02E3                     l1116:	
  1760                           	
  1761  02E3                     l1115:	
  1762  02E3  1808               	btfsc	(64/8),(64)&7
  1763  02E4  2AE6               	goto	u3661
  1764  02E5  2AE7               	goto	u3660
  1765  02E6                     u3661:
  1766  02E6  2AE3               	goto	l1115
  1767  02E7                     u3660:
  1768  02E7  2AE8               	goto	l3179
  1769                           	
  1770  02E8                     l1117:	
  1771                           	line	178
  1772                           	
  1773  02E8                     l3179:	
  1774                           ;timer1ask.c: 178: arr2='1';
  1775  02E8  3031               	movlw	(031h)
  1776  02E9  00F3               	movwf	(??_main+0)+0
  1777  02EA  0873               	movf	(??_main+0)+0,w
  1778  02EB  1683               	bsf	status, 5	;RP0=1, select bank1
  1779  02EC  1303               	bcf	status, 6	;RP1=0, select bank1
  1780  02ED  00CD               	movwf	(main@arr2)^080h
  1781  02EE  2AEF               	goto	l3181
  1782                           	line	179
  1783                           	
  1784  02EF                     l1114:	
  1785                           	line	180
  1786                           	
  1787  02EF                     l3181:	
  1788                           ;timer1ask.c: 179: }
  1789                           ;timer1ask.c: 180: if(RD1==1)
  1790  02EF  1283               	bcf	status, 5	;RP0=0, select bank0
  1791  02F0  1C88               	btfss	(65/8),(65)&7
  1792  02F1  2AF3               	goto	u3671
  1793  02F2  2AF4               	goto	u3670
  1794  02F3                     u3671:
  1795  02F3  2B02               	goto	l3187
  1796  02F4                     u3670:
  1797  02F4  2AF6               	goto	l1119
  1798                           	line	182
  1799                           	
  1800  02F5                     l3183:	
  1801                           ;timer1ask.c: 181: {
  1802                           ;timer1ask.c: 182: while(RD1==1);
  1803  02F5  2AF6               	goto	l1119
  1804                           	
  1805  02F6                     l1120:	
  1806                           	
  1807  02F6                     l1119:	
  1808  02F6  1888               	btfsc	(65/8),(65)&7
  1809  02F7  2AF9               	goto	u3681
  1810  02F8  2AFA               	goto	u3680
  1811  02F9                     u3681:
  1812  02F9  2AF6               	goto	l1119
  1813  02FA                     u3680:
  1814  02FA  2AFB               	goto	l3185
  1815                           	
  1816  02FB                     l1121:	
  1817                           	line	183
  1818                           	
  1819  02FB                     l3185:	
  1820                           ;timer1ask.c: 183: arr2='2';
  1821  02FB  3032               	movlw	(032h)
  1822  02FC  00F3               	movwf	(??_main+0)+0
  1823  02FD  0873               	movf	(??_main+0)+0,w
  1824  02FE  1683               	bsf	status, 5	;RP0=1, select bank1
  1825  02FF  1303               	bcf	status, 6	;RP1=0, select bank1
  1826  0300  00CD               	movwf	(main@arr2)^080h
  1827  0301  2B02               	goto	l3187
  1828                           	line	184
  1829                           	
  1830  0302                     l1118:	
  1831                           	line	185
  1832                           	
  1833  0302                     l3187:	
  1834                           ;timer1ask.c: 184: }
  1835                           ;timer1ask.c: 185: if(RD2==1)
  1836  0302  1283               	bcf	status, 5	;RP0=0, select bank0
  1837  0303  1D08               	btfss	(66/8),(66)&7
  1838  0304  2B06               	goto	u3691
  1839  0305  2B07               	goto	u3690
  1840  0306                     u3691:
  1841  0306  2B15               	goto	l3193
  1842  0307                     u3690:
  1843  0307  2B09               	goto	l1123
  1844                           	line	187
  1845                           	
  1846  0308                     l3189:	
  1847                           ;timer1ask.c: 186: {
  1848                           ;timer1ask.c: 187: while(RD2==1);
  1849  0308  2B09               	goto	l1123
  1850                           	
  1851  0309                     l1124:	
  1852                           	
  1853  0309                     l1123:	
  1854  0309  1908               	btfsc	(66/8),(66)&7
  1855  030A  2B0C               	goto	u3701
  1856  030B  2B0D               	goto	u3700
  1857  030C                     u3701:
  1858  030C  2B09               	goto	l1123
  1859  030D                     u3700:
  1860  030D  2B0E               	goto	l3191
  1861                           	
  1862  030E                     l1125:	
  1863                           	line	188
  1864                           	
  1865  030E                     l3191:	
  1866                           ;timer1ask.c: 188: arr2='3';
  1867  030E  3033               	movlw	(033h)
  1868  030F  00F3               	movwf	(??_main+0)+0
  1869  0310  0873               	movf	(??_main+0)+0,w
  1870  0311  1683               	bsf	status, 5	;RP0=1, select bank1
  1871  0312  1303               	bcf	status, 6	;RP1=0, select bank1
  1872  0313  00CD               	movwf	(main@arr2)^080h
  1873  0314  2B15               	goto	l3193
  1874                           	line	189
  1875                           	
  1876  0315                     l1122:	
  1877                           	line	190
  1878                           	
  1879  0315                     l3193:	
  1880                           ;timer1ask.c: 189: }
  1881                           ;timer1ask.c: 190: RD3=0;RD4=1;RD5=0;RD6=0;
  1882  0315  1283               	bcf	status, 5	;RP0=0, select bank0
  1883  0316  1188               	bcf	(67/8),(67)&7
  1884                           	
  1885  0317                     l3195:	
  1886  0317  1608               	bsf	(68/8),(68)&7
  1887                           	
  1888  0318                     l3197:	
  1889  0318  1288               	bcf	(69/8),(69)&7
  1890                           	
  1891  0319                     l3199:	
  1892  0319  1308               	bcf	(70/8),(70)&7
  1893                           	line	191
  1894                           	
  1895  031A                     l3201:	
  1896                           ;timer1ask.c: 191: if(RD0==1)
  1897  031A  1C08               	btfss	(64/8),(64)&7
  1898  031B  2B1D               	goto	u3711
  1899  031C  2B1E               	goto	u3710
  1900  031D                     u3711:
  1901  031D  2B2C               	goto	l3207
  1902  031E                     u3710:
  1903  031E  2B20               	goto	l1127
  1904                           	line	193
  1905                           	
  1906  031F                     l3203:	
  1907                           ;timer1ask.c: 192: {
  1908                           ;timer1ask.c: 193: while(RD0==1);
  1909  031F  2B20               	goto	l1127
  1910                           	
  1911  0320                     l1128:	
  1912                           	
  1913  0320                     l1127:	
  1914  0320  1808               	btfsc	(64/8),(64)&7
  1915  0321  2B23               	goto	u3721
  1916  0322  2B24               	goto	u3720
  1917  0323                     u3721:
  1918  0323  2B20               	goto	l1127
  1919  0324                     u3720:
  1920  0324  2B25               	goto	l3205
  1921                           	
  1922  0325                     l1129:	
  1923                           	line	194
  1924                           	
  1925  0325                     l3205:	
  1926                           ;timer1ask.c: 194: arr2='4';
  1927  0325  3034               	movlw	(034h)
  1928  0326  00F3               	movwf	(??_main+0)+0
  1929  0327  0873               	movf	(??_main+0)+0,w
  1930  0328  1683               	bsf	status, 5	;RP0=1, select bank1
  1931  0329  1303               	bcf	status, 6	;RP1=0, select bank1
  1932  032A  00CD               	movwf	(main@arr2)^080h
  1933  032B  2B2C               	goto	l3207
  1934                           	line	195
  1935                           	
  1936  032C                     l1126:	
  1937                           	line	196
  1938                           	
  1939  032C                     l3207:	
  1940                           ;timer1ask.c: 195: }
  1941                           ;timer1ask.c: 196: if(RD1==1)
  1942  032C  1283               	bcf	status, 5	;RP0=0, select bank0
  1943  032D  1C88               	btfss	(65/8),(65)&7
  1944  032E  2B30               	goto	u3731
  1945  032F  2B31               	goto	u3730
  1946  0330                     u3731:
  1947  0330  2B3F               	goto	l3213
  1948  0331                     u3730:
  1949  0331  2B33               	goto	l1131
  1950                           	line	198
  1951                           	
  1952  0332                     l3209:	
  1953                           ;timer1ask.c: 197: {
  1954                           ;timer1ask.c: 198: while(RD1==1);
  1955  0332  2B33               	goto	l1131
  1956                           	
  1957  0333                     l1132:	
  1958                           	
  1959  0333                     l1131:	
  1960  0333  1888               	btfsc	(65/8),(65)&7
  1961  0334  2B36               	goto	u3741
  1962  0335  2B37               	goto	u3740
  1963  0336                     u3741:
  1964  0336  2B33               	goto	l1131
  1965  0337                     u3740:
  1966  0337  2B38               	goto	l3211
  1967                           	
  1968  0338                     l1133:	
  1969                           	line	199
  1970                           	
  1971  0338                     l3211:	
  1972                           ;timer1ask.c: 199: arr2='5';
  1973  0338  3035               	movlw	(035h)
  1974  0339  00F3               	movwf	(??_main+0)+0
  1975  033A  0873               	movf	(??_main+0)+0,w
  1976  033B  1683               	bsf	status, 5	;RP0=1, select bank1
  1977  033C  1303               	bcf	status, 6	;RP1=0, select bank1
  1978  033D  00CD               	movwf	(main@arr2)^080h
  1979  033E  2B3F               	goto	l3213
  1980                           	line	200
  1981                           	
  1982  033F                     l1130:	
  1983                           	line	201
  1984                           	
  1985  033F                     l3213:	
  1986                           ;timer1ask.c: 200: }
  1987                           ;timer1ask.c: 201: if(RD2==1)
  1988  033F  1283               	bcf	status, 5	;RP0=0, select bank0
  1989  0340  1D08               	btfss	(66/8),(66)&7
  1990  0341  2B43               	goto	u3751
  1991  0342  2B44               	goto	u3750
  1992  0343                     u3751:
  1993  0343  2B52               	goto	l3219
  1994  0344                     u3750:
  1995  0344  2B46               	goto	l1135
  1996                           	line	203
  1997                           	
  1998  0345                     l3215:	
  1999                           ;timer1ask.c: 202: {
  2000                           ;timer1ask.c: 203: while(RD2==1);
  2001  0345  2B46               	goto	l1135
  2002                           	
  2003  0346                     l1136:	
  2004                           	
  2005  0346                     l1135:	
  2006  0346  1908               	btfsc	(66/8),(66)&7
  2007  0347  2B49               	goto	u3761
  2008  0348  2B4A               	goto	u3760
  2009  0349                     u3761:
  2010  0349  2B46               	goto	l1135
  2011  034A                     u3760:
  2012  034A  2B4B               	goto	l3217
  2013                           	
  2014  034B                     l1137:	
  2015                           	line	204
  2016                           	
  2017  034B                     l3217:	
  2018                           ;timer1ask.c: 204: arr2='6';
  2019  034B  3036               	movlw	(036h)
  2020  034C  00F3               	movwf	(??_main+0)+0
  2021  034D  0873               	movf	(??_main+0)+0,w
  2022  034E  1683               	bsf	status, 5	;RP0=1, select bank1
  2023  034F  1303               	bcf	status, 6	;RP1=0, select bank1
  2024  0350  00CD               	movwf	(main@arr2)^080h
  2025  0351  2B52               	goto	l3219
  2026                           	line	205
  2027                           	
  2028  0352                     l1134:	
  2029                           	line	206
  2030                           	
  2031  0352                     l3219:	
  2032                           ;timer1ask.c: 205: }
  2033                           ;timer1ask.c: 206: RD3=0;RD4=0;RD5=1;RD6=0;
  2034  0352  1283               	bcf	status, 5	;RP0=0, select bank0
  2035  0353  1188               	bcf	(67/8),(67)&7
  2036                           	
  2037  0354                     l3221:	
  2038  0354  1208               	bcf	(68/8),(68)&7
  2039                           	
  2040  0355                     l3223:	
  2041  0355  1688               	bsf	(69/8),(69)&7
  2042                           	
  2043  0356                     l3225:	
  2044  0356  1308               	bcf	(70/8),(70)&7
  2045                           	line	207
  2046                           	
  2047  0357                     l3227:	
  2048                           ;timer1ask.c: 207: if(RD0==1)
  2049  0357  1C08               	btfss	(64/8),(64)&7
  2050  0358  2B5A               	goto	u3771
  2051  0359  2B5B               	goto	u3770
  2052  035A                     u3771:
  2053  035A  2B69               	goto	l3233
  2054  035B                     u3770:
  2055  035B  2B5D               	goto	l1139
  2056                           	line	209
  2057                           	
  2058  035C                     l3229:	
  2059                           ;timer1ask.c: 208: {
  2060                           ;timer1ask.c: 209: while(RD0==1);
  2061  035C  2B5D               	goto	l1139
  2062                           	
  2063  035D                     l1140:	
  2064                           	
  2065  035D                     l1139:	
  2066  035D  1808               	btfsc	(64/8),(64)&7
  2067  035E  2B60               	goto	u3781
  2068  035F  2B61               	goto	u3780
  2069  0360                     u3781:
  2070  0360  2B5D               	goto	l1139
  2071  0361                     u3780:
  2072  0361  2B62               	goto	l3231
  2073                           	
  2074  0362                     l1141:	
  2075                           	line	210
  2076                           	
  2077  0362                     l3231:	
  2078                           ;timer1ask.c: 210: arr2='7';
  2079  0362  3037               	movlw	(037h)
  2080  0363  00F3               	movwf	(??_main+0)+0
  2081  0364  0873               	movf	(??_main+0)+0,w
  2082  0365  1683               	bsf	status, 5	;RP0=1, select bank1
  2083  0366  1303               	bcf	status, 6	;RP1=0, select bank1
  2084  0367  00CD               	movwf	(main@arr2)^080h
  2085  0368  2B69               	goto	l3233
  2086                           	line	211
  2087                           	
  2088  0369                     l1138:	
  2089                           	line	212
  2090                           	
  2091  0369                     l3233:	
  2092                           ;timer1ask.c: 211: }
  2093                           ;timer1ask.c: 212: if(RD1==1)
  2094  0369  1283               	bcf	status, 5	;RP0=0, select bank0
  2095  036A  1C88               	btfss	(65/8),(65)&7
  2096  036B  2B6D               	goto	u3791
  2097  036C  2B6E               	goto	u3790
  2098  036D                     u3791:
  2099  036D  2B7C               	goto	l3239
  2100  036E                     u3790:
  2101  036E  2B70               	goto	l1143
  2102                           	line	214
  2103                           	
  2104  036F                     l3235:	
  2105                           ;timer1ask.c: 213: {
  2106                           ;timer1ask.c: 214: while(RD1==1);
  2107  036F  2B70               	goto	l1143
  2108                           	
  2109  0370                     l1144:	
  2110                           	
  2111  0370                     l1143:	
  2112  0370  1888               	btfsc	(65/8),(65)&7
  2113  0371  2B73               	goto	u3801
  2114  0372  2B74               	goto	u3800
  2115  0373                     u3801:
  2116  0373  2B70               	goto	l1143
  2117  0374                     u3800:
  2118  0374  2B75               	goto	l3237
  2119                           	
  2120  0375                     l1145:	
  2121                           	line	215
  2122                           	
  2123  0375                     l3237:	
  2124                           ;timer1ask.c: 215: arr2='8';
  2125  0375  3038               	movlw	(038h)
  2126  0376  00F3               	movwf	(??_main+0)+0
  2127  0377  0873               	movf	(??_main+0)+0,w
  2128  0378  1683               	bsf	status, 5	;RP0=1, select bank1
  2129  0379  1303               	bcf	status, 6	;RP1=0, select bank1
  2130  037A  00CD               	movwf	(main@arr2)^080h
  2131  037B  2B7C               	goto	l3239
  2132                           	line	216
  2133                           	
  2134  037C                     l1142:	
  2135                           	line	217
  2136                           	
  2137  037C                     l3239:	
  2138                           ;timer1ask.c: 216: }
  2139                           ;timer1ask.c: 217: if(RD2==1)
  2140  037C  1283               	bcf	status, 5	;RP0=0, select bank0
  2141  037D  1D08               	btfss	(66/8),(66)&7
  2142  037E  2B80               	goto	u3811
  2143  037F  2B81               	goto	u3810
  2144  0380                     u3811:
  2145  0380  2B8F               	goto	l3245
  2146  0381                     u3810:
  2147  0381  2B83               	goto	l1147
  2148                           	line	219
  2149                           	
  2150  0382                     l3241:	
  2151                           ;timer1ask.c: 218: {
  2152                           ;timer1ask.c: 219: while(RD2==1);
  2153  0382  2B83               	goto	l1147
  2154                           	
  2155  0383                     l1148:	
  2156                           	
  2157  0383                     l1147:	
  2158  0383  1908               	btfsc	(66/8),(66)&7
  2159  0384  2B86               	goto	u3821
  2160  0385  2B87               	goto	u3820
  2161  0386                     u3821:
  2162  0386  2B83               	goto	l1147
  2163  0387                     u3820:
  2164  0387  2B88               	goto	l3243
  2165                           	
  2166  0388                     l1149:	
  2167                           	line	220
  2168                           	
  2169  0388                     l3243:	
  2170                           ;timer1ask.c: 220: arr2='9';
  2171  0388  3039               	movlw	(039h)
  2172  0389  00F3               	movwf	(??_main+0)+0
  2173  038A  0873               	movf	(??_main+0)+0,w
  2174  038B  1683               	bsf	status, 5	;RP0=1, select bank1
  2175  038C  1303               	bcf	status, 6	;RP1=0, select bank1
  2176  038D  00CD               	movwf	(main@arr2)^080h
  2177  038E  2B8F               	goto	l3245
  2178                           	line	221
  2179                           	
  2180  038F                     l1146:	
  2181                           	line	222
  2182                           	
  2183  038F                     l3245:	
  2184                           ;timer1ask.c: 221: }
  2185                           ;timer1ask.c: 222: RD3=0;RD4=0;RD5=0;RD6=1;
  2186  038F  1283               	bcf	status, 5	;RP0=0, select bank0
  2187  0390  1188               	bcf	(67/8),(67)&7
  2188                           	
  2189  0391                     l3247:	
  2190  0391  1208               	bcf	(68/8),(68)&7
  2191                           	
  2192  0392                     l3249:	
  2193  0392  1288               	bcf	(69/8),(69)&7
  2194                           	
  2195  0393                     l3251:	
  2196  0393  1708               	bsf	(70/8),(70)&7
  2197                           	line	223
  2198                           	
  2199  0394                     l3253:	
  2200                           ;timer1ask.c: 223: if(RD0==1)
  2201  0394  1C08               	btfss	(64/8),(64)&7
  2202  0395  2B97               	goto	u3831
  2203  0396  2B98               	goto	u3830
  2204  0397                     u3831:
  2205  0397  2BA5               	goto	l1150
  2206  0398                     u3830:
  2207  0398  2B9A               	goto	l1151
  2208                           	line	225
  2209                           	
  2210  0399                     l3255:	
  2211                           ;timer1ask.c: 224: {
  2212                           ;timer1ask.c: 225: while(RD0==1);
  2213  0399  2B9A               	goto	l1151
  2214                           	
  2215  039A                     l1152:	
  2216                           	
  2217  039A                     l1151:	
  2218  039A  1808               	btfsc	(64/8),(64)&7
  2219  039B  2B9D               	goto	u3841
  2220  039C  2B9E               	goto	u3840
  2221  039D                     u3841:
  2222  039D  2B9A               	goto	l1151
  2223  039E                     u3840:
  2224  039E  2B9F               	goto	l3257
  2225                           	
  2226  039F                     l1153:	
  2227                           	line	226
  2228                           	
  2229  039F                     l3257:	
  2230                           ;timer1ask.c: 226: control=5;
  2231  039F  3005               	movlw	low(05h)
  2232  03A0  1683               	bsf	status, 5	;RP0=1, select bank1
  2233  03A1  1303               	bcf	status, 6	;RP1=0, select bank1
  2234  03A2  00CF               	movwf	(main@control)^080h
  2235  03A3  3000               	movlw	high(05h)
  2236  03A4  00D0               	movwf	((main@control)^080h)+1
  2237                           	line	227
  2238                           	
  2239  03A5                     l1150:	
  2240                           	line	228
  2241                           ;timer1ask.c: 227: }
  2242                           ;timer1ask.c: 228: val2= arr2-'0';
  2243  03A5  1683               	bsf	status, 5	;RP0=1, select bank1
  2244  03A6  1303               	bcf	status, 6	;RP1=0, select bank1
  2245  03A7  084D               	movf	(main@arr2)^080h,w
  2246  03A8  3ED0               	addlw	low(0FFD0h)
  2247  03A9  00C0               	movwf	(main@val2)^080h
  2248  03AA  30FF               	movlw	high(0FFD0h)
  2249  03AB  1803               	skipnc
  2250  03AC  3000               	movlw	(high(0FFD0h)+1)&0ffh
  2251  03AD  00C1               	movwf	((main@val2)^080h)+1
  2252                           	line	229
  2253                           	
  2254  03AE                     l1113:	
  2255                           	line	230
  2256                           ;timer1ask.c: 229: }
  2257                           ;timer1ask.c: 230: if(control==5)
  2258  03AE  3005               	movlw	05h
  2259  03AF  064F               	xorwf	(main@control)^080h,w
  2260  03B0  0450               	iorwf	(main@control+1)^080h,w
  2261  03B1  1D03               	skipz
  2262  03B2  2BB4               	goto	u3851
  2263  03B3  2BB5               	goto	u3850
  2264  03B4                     u3851:
  2265  03B4  2BFE               	goto	l1154
  2266  03B5                     u3850:
  2267                           	line	232
  2268                           	
  2269  03B5                     l3259:	
  2270                           ;timer1ask.c: 231: {
  2271                           ;timer1ask.c: 232: clear();
  2272  03B5  120A  158A  279E   	fcall	_clear
              120A  118A         
  2273                           	line	233
  2274                           	
  2275  03BA                     l3261:	
  2276                           ;timer1ask.c: 233: for(i=0;i<15;i++)
  2277  03BA  1683               	bsf	status, 5	;RP0=1, select bank1
  2278  03BB  1303               	bcf	status, 6	;RP1=0, select bank1
  2279  03BC  01D3               	clrf	(main@i)^080h
  2280  03BD  01D4               	clrf	(main@i+1)^080h
  2281                           	
  2282  03BE                     l3263:	
  2283  03BE  0854               	movf	(main@i+1)^080h,w
  2284  03BF  3A80               	xorlw	80h
  2285  03C0  00FF               	movwf	btemp+1
  2286  03C1  3080               	movlw	(high(0Fh))^80h
  2287  03C2  027F               	subwf	btemp+1,w
  2288  03C3  1D03               	skipz
  2289  03C4  2BC7               	goto	u3865
  2290  03C5  300F               	movlw	low(0Fh)
  2291  03C6  0253               	subwf	(main@i)^080h,w
  2292  03C7                     u3865:
  2293                           
  2294  03C7  1C03               	skipc
  2295  03C8  2BCA               	goto	u3861
  2296  03C9  2BCB               	goto	u3860
  2297  03CA                     u3861:
  2298  03CA  2BCD               	goto	l3267
  2299  03CB                     u3860:
  2300  03CB  2BF8               	goto	l3275
  2301                           	
  2302  03CC                     l3265:	
  2303  03CC  2BF8               	goto	l3275
  2304                           	line	234
  2305                           	
  2306  03CD                     l1155:	
  2307                           	line	235
  2308                           	
  2309  03CD                     l3267:	
  2310                           ;timer1ask.c: 234: {
  2311                           ;timer1ask.c: 235: address(0X80+i);
  2312  03CD  1683               	bsf	status, 5	;RP0=1, select bank1
  2313  03CE  1303               	bcf	status, 6	;RP1=0, select bank1
  2314  03CF  0853               	movf	(main@i)^080h,w
  2315  03D0  3E80               	addlw	080h
  2316  03D1  120A  158A  27AA   	fcall	_address
              120A  118A         
  2317                           	line	236
  2318                           	
  2319  03D6                     l3269:	
  2320                           ;timer1ask.c: 236: display(third[i]);
  2321  03D6  1683               	bsf	status, 5	;RP0=1, select bank1
  2322  03D7  1303               	bcf	status, 6	;RP1=0, select bank1
  2323  03D8  0853               	movf	(main@i)^080h,w
  2324  03D9  3E5C               	addlw	main@third&0ffh
  2325  03DA  0084               	movwf	fsr0
  2326  03DB  1383               	bcf	status, 7	;select IRP bank0
  2327  03DC  0800               	movf	indf,w
  2328  03DD  120A  158A  27B7   	fcall	_display
              120A  118A         
  2329                           	line	233
  2330                           	
  2331  03E2                     l3271:	
  2332  03E2  3001               	movlw	low(01h)
  2333  03E3  1683               	bsf	status, 5	;RP0=1, select bank1
  2334  03E4  1303               	bcf	status, 6	;RP1=0, select bank1
  2335  03E5  07D3               	addwf	(main@i)^080h,f
  2336  03E6  1803               	skipnc
  2337  03E7  0AD4               	incf	(main@i+1)^080h,f
  2338  03E8  3000               	movlw	high(01h)
  2339  03E9  07D4               	addwf	(main@i+1)^080h,f
  2340                           	
  2341  03EA                     l3273:	
  2342  03EA  0854               	movf	(main@i+1)^080h,w
  2343  03EB  3A80               	xorlw	80h
  2344  03EC  00FF               	movwf	btemp+1
  2345  03ED  3080               	movlw	(high(0Fh))^80h
  2346  03EE  027F               	subwf	btemp+1,w
  2347  03EF  1D03               	skipz
  2348  03F0  2BF3               	goto	u3875
  2349  03F1  300F               	movlw	low(0Fh)
  2350  03F2  0253               	subwf	(main@i)^080h,w
  2351  03F3                     u3875:
  2352                           
  2353  03F3  1C03               	skipc
  2354  03F4  2BF6               	goto	u3871
  2355  03F5  2BF7               	goto	u3870
  2356  03F6                     u3871:
  2357  03F6  2BCD               	goto	l3267
  2358  03F7                     u3870:
  2359  03F7  2BF8               	goto	l3275
  2360                           	
  2361  03F8                     l1156:	
  2362                           	line	238
  2363                           	
  2364  03F8                     l3275:	
  2365                           ;timer1ask.c: 237: }
  2366                           ;timer1ask.c: 238: control=6;
  2367  03F8  3006               	movlw	low(06h)
  2368  03F9  1683               	bsf	status, 5	;RP0=1, select bank1
  2369  03FA  1303               	bcf	status, 6	;RP1=0, select bank1
  2370  03FB  00CF               	movwf	(main@control)^080h
  2371  03FC  3000               	movlw	high(06h)
  2372  03FD  00D0               	movwf	((main@control)^080h)+1
  2373                           	line	239
  2374                           	
  2375  03FE                     l1154:	
  2376                           	line	240
  2377                           ;timer1ask.c: 239: }
  2378                           ;timer1ask.c: 240: if(control==6)
  2379  03FE  3006               	movlw	06h
  2380  03FF  064F               	xorwf	(main@control)^080h,w
  2381  0400  0450               	iorwf	(main@control+1)^080h,w
  2382  0401  1D03               	skipz
  2383  0402  2C04               	goto	u3881
  2384  0403  2C05               	goto	u3880
  2385  0404                     u3881:
  2386  0404  2CEA               	goto	l1157
  2387  0405                     u3880:
  2388                           	line	242
  2389                           	
  2390  0405                     l3277:	
  2391                           ;timer1ask.c: 241: {
  2392                           ;timer1ask.c: 242: address(0XC0+0);
  2393  0405  30C0               	movlw	(0C0h)
  2394  0406  120A  158A  27AA   	fcall	_address
              120A  118A         
  2395                           	line	243
  2396                           ;timer1ask.c: 243: display(arr3);
  2397  040B  1683               	bsf	status, 5	;RP0=1, select bank1
  2398  040C  1303               	bcf	status, 6	;RP1=0, select bank1
  2399  040D  084E               	movf	(main@arr3)^080h,w
  2400  040E  120A  158A  27B7   	fcall	_display
              120A  118A         
  2401                           	line	244
  2402                           	
  2403  0413                     l3279:	
  2404                           ;timer1ask.c: 244: RD3=1;RD4=0;RD5=0;RD6=0;
  2405  0413  1283               	bcf	status, 5	;RP0=0, select bank0
  2406  0414  1303               	bcf	status, 6	;RP1=0, select bank0
  2407  0415  1588               	bsf	(67/8),(67)&7
  2408                           	
  2409  0416                     l3281:	
  2410  0416  1208               	bcf	(68/8),(68)&7
  2411                           	
  2412  0417                     l3283:	
  2413  0417  1288               	bcf	(69/8),(69)&7
  2414                           	
  2415  0418                     l3285:	
  2416  0418  1308               	bcf	(70/8),(70)&7
  2417                           	line	245
  2418                           	
  2419  0419                     l3287:	
  2420                           ;timer1ask.c: 245: if(RD0==1)
  2421  0419  1C08               	btfss	(64/8),(64)&7
  2422  041A  2C1C               	goto	u3891
  2423  041B  2C1D               	goto	u3890
  2424  041C                     u3891:
  2425  041C  2C2B               	goto	l3293
  2426  041D                     u3890:
  2427  041D  2C1F               	goto	l1159
  2428                           	line	247
  2429                           	
  2430  041E                     l3289:	
  2431                           ;timer1ask.c: 246: {
  2432                           ;timer1ask.c: 247: while(RD0==1);
  2433  041E  2C1F               	goto	l1159
  2434                           	
  2435  041F                     l1160:	
  2436                           	
  2437  041F                     l1159:	
  2438  041F  1808               	btfsc	(64/8),(64)&7
  2439  0420  2C22               	goto	u3901
  2440  0421  2C23               	goto	u3900
  2441  0422                     u3901:
  2442  0422  2C1F               	goto	l1159
  2443  0423                     u3900:
  2444  0423  2C24               	goto	l3291
  2445                           	
  2446  0424                     l1161:	
  2447                           	line	248
  2448                           	
  2449  0424                     l3291:	
  2450                           ;timer1ask.c: 248: arr3='1';
  2451  0424  3031               	movlw	(031h)
  2452  0425  00F3               	movwf	(??_main+0)+0
  2453  0426  0873               	movf	(??_main+0)+0,w
  2454  0427  1683               	bsf	status, 5	;RP0=1, select bank1
  2455  0428  1303               	bcf	status, 6	;RP1=0, select bank1
  2456  0429  00CE               	movwf	(main@arr3)^080h
  2457  042A  2C2B               	goto	l3293
  2458                           	line	249
  2459                           	
  2460  042B                     l1158:	
  2461                           	line	250
  2462                           	
  2463  042B                     l3293:	
  2464                           ;timer1ask.c: 249: }
  2465                           ;timer1ask.c: 250: if(RD1==1)
  2466  042B  1283               	bcf	status, 5	;RP0=0, select bank0
  2467  042C  1C88               	btfss	(65/8),(65)&7
  2468  042D  2C2F               	goto	u3911
  2469  042E  2C30               	goto	u3910
  2470  042F                     u3911:
  2471  042F  2C3E               	goto	l3299
  2472  0430                     u3910:
  2473  0430  2C32               	goto	l1163
  2474                           	line	252
  2475                           	
  2476  0431                     l3295:	
  2477                           ;timer1ask.c: 251: {
  2478                           ;timer1ask.c: 252: while(RD1==1);
  2479  0431  2C32               	goto	l1163
  2480                           	
  2481  0432                     l1164:	
  2482                           	
  2483  0432                     l1163:	
  2484  0432  1888               	btfsc	(65/8),(65)&7
  2485  0433  2C35               	goto	u3921
  2486  0434  2C36               	goto	u3920
  2487  0435                     u3921:
  2488  0435  2C32               	goto	l1163
  2489  0436                     u3920:
  2490  0436  2C37               	goto	l3297
  2491                           	
  2492  0437                     l1165:	
  2493                           	line	253
  2494                           	
  2495  0437                     l3297:	
  2496                           ;timer1ask.c: 253: arr3='2';
  2497  0437  3032               	movlw	(032h)
  2498  0438  00F3               	movwf	(??_main+0)+0
  2499  0439  0873               	movf	(??_main+0)+0,w
  2500  043A  1683               	bsf	status, 5	;RP0=1, select bank1
  2501  043B  1303               	bcf	status, 6	;RP1=0, select bank1
  2502  043C  00CE               	movwf	(main@arr3)^080h
  2503  043D  2C3E               	goto	l3299
  2504                           	line	254
  2505                           	
  2506  043E                     l1162:	
  2507                           	line	255
  2508                           	
  2509  043E                     l3299:	
  2510                           ;timer1ask.c: 254: }
  2511                           ;timer1ask.c: 255: if(RD2==1)
  2512  043E  1283               	bcf	status, 5	;RP0=0, select bank0
  2513  043F  1D08               	btfss	(66/8),(66)&7
  2514  0440  2C42               	goto	u3931
  2515  0441  2C43               	goto	u3930
  2516  0442                     u3931:
  2517  0442  2C51               	goto	l3305
  2518  0443                     u3930:
  2519  0443  2C45               	goto	l1167
  2520                           	line	257
  2521                           	
  2522  0444                     l3301:	
  2523                           ;timer1ask.c: 256: {
  2524                           ;timer1ask.c: 257: while(RD2==1);
  2525  0444  2C45               	goto	l1167
  2526                           	
  2527  0445                     l1168:	
  2528                           	
  2529  0445                     l1167:	
  2530  0445  1908               	btfsc	(66/8),(66)&7
  2531  0446  2C48               	goto	u3941
  2532  0447  2C49               	goto	u3940
  2533  0448                     u3941:
  2534  0448  2C45               	goto	l1167
  2535  0449                     u3940:
  2536  0449  2C4A               	goto	l3303
  2537                           	
  2538  044A                     l1169:	
  2539                           	line	258
  2540                           	
  2541  044A                     l3303:	
  2542                           ;timer1ask.c: 258: arr3='3';
  2543  044A  3033               	movlw	(033h)
  2544  044B  00F3               	movwf	(??_main+0)+0
  2545  044C  0873               	movf	(??_main+0)+0,w
  2546  044D  1683               	bsf	status, 5	;RP0=1, select bank1
  2547  044E  1303               	bcf	status, 6	;RP1=0, select bank1
  2548  044F  00CE               	movwf	(main@arr3)^080h
  2549  0450  2C51               	goto	l3305
  2550                           	line	259
  2551                           	
  2552  0451                     l1166:	
  2553                           	line	260
  2554                           	
  2555  0451                     l3305:	
  2556                           ;timer1ask.c: 259: }
  2557                           ;timer1ask.c: 260: RD3=0;RD4=1;RD5=0;RD6=0;
  2558  0451  1283               	bcf	status, 5	;RP0=0, select bank0
  2559  0452  1188               	bcf	(67/8),(67)&7
  2560                           	
  2561  0453                     l3307:	
  2562  0453  1608               	bsf	(68/8),(68)&7
  2563                           	
  2564  0454                     l3309:	
  2565  0454  1288               	bcf	(69/8),(69)&7
  2566                           	
  2567  0455                     l3311:	
  2568  0455  1308               	bcf	(70/8),(70)&7
  2569                           	line	261
  2570                           	
  2571  0456                     l3313:	
  2572                           ;timer1ask.c: 261: if(RD0==1)
  2573  0456  1C08               	btfss	(64/8),(64)&7
  2574  0457  2C59               	goto	u3951
  2575  0458  2C5A               	goto	u3950
  2576  0459                     u3951:
  2577  0459  2C68               	goto	l3319
  2578  045A                     u3950:
  2579  045A  2C5C               	goto	l1171
  2580                           	line	263
  2581                           	
  2582  045B                     l3315:	
  2583                           ;timer1ask.c: 262: {
  2584                           ;timer1ask.c: 263: while(RD0==1);
  2585  045B  2C5C               	goto	l1171
  2586                           	
  2587  045C                     l1172:	
  2588                           	
  2589  045C                     l1171:	
  2590  045C  1808               	btfsc	(64/8),(64)&7
  2591  045D  2C5F               	goto	u3961
  2592  045E  2C60               	goto	u3960
  2593  045F                     u3961:
  2594  045F  2C5C               	goto	l1171
  2595  0460                     u3960:
  2596  0460  2C61               	goto	l3317
  2597                           	
  2598  0461                     l1173:	
  2599                           	line	264
  2600                           	
  2601  0461                     l3317:	
  2602                           ;timer1ask.c: 264: arr3='4';
  2603  0461  3034               	movlw	(034h)
  2604  0462  00F3               	movwf	(??_main+0)+0
  2605  0463  0873               	movf	(??_main+0)+0,w
  2606  0464  1683               	bsf	status, 5	;RP0=1, select bank1
  2607  0465  1303               	bcf	status, 6	;RP1=0, select bank1
  2608  0466  00CE               	movwf	(main@arr3)^080h
  2609  0467  2C68               	goto	l3319
  2610                           	line	265
  2611                           	
  2612  0468                     l1170:	
  2613                           	line	266
  2614                           	
  2615  0468                     l3319:	
  2616                           ;timer1ask.c: 265: }
  2617                           ;timer1ask.c: 266: if(RD1==1)
  2618  0468  1283               	bcf	status, 5	;RP0=0, select bank0
  2619  0469  1C88               	btfss	(65/8),(65)&7
  2620  046A  2C6C               	goto	u3971
  2621  046B  2C6D               	goto	u3970
  2622  046C                     u3971:
  2623  046C  2C7B               	goto	l3325
  2624  046D                     u3970:
  2625  046D  2C6F               	goto	l1175
  2626                           	line	268
  2627                           	
  2628  046E                     l3321:	
  2629                           ;timer1ask.c: 267: {
  2630                           ;timer1ask.c: 268: while(RD1==1);
  2631  046E  2C6F               	goto	l1175
  2632                           	
  2633  046F                     l1176:	
  2634                           	
  2635  046F                     l1175:	
  2636  046F  1888               	btfsc	(65/8),(65)&7
  2637  0470  2C72               	goto	u3981
  2638  0471  2C73               	goto	u3980
  2639  0472                     u3981:
  2640  0472  2C6F               	goto	l1175
  2641  0473                     u3980:
  2642  0473  2C74               	goto	l3323
  2643                           	
  2644  0474                     l1177:	
  2645                           	line	269
  2646                           	
  2647  0474                     l3323:	
  2648                           ;timer1ask.c: 269: arr3='5';
  2649  0474  3035               	movlw	(035h)
  2650  0475  00F3               	movwf	(??_main+0)+0
  2651  0476  0873               	movf	(??_main+0)+0,w
  2652  0477  1683               	bsf	status, 5	;RP0=1, select bank1
  2653  0478  1303               	bcf	status, 6	;RP1=0, select bank1
  2654  0479  00CE               	movwf	(main@arr3)^080h
  2655  047A  2C7B               	goto	l3325
  2656                           	line	270
  2657                           	
  2658  047B                     l1174:	
  2659                           	line	271
  2660                           	
  2661  047B                     l3325:	
  2662                           ;timer1ask.c: 270: }
  2663                           ;timer1ask.c: 271: if(RD2==1)
  2664  047B  1283               	bcf	status, 5	;RP0=0, select bank0
  2665  047C  1D08               	btfss	(66/8),(66)&7
  2666  047D  2C7F               	goto	u3991
  2667  047E  2C80               	goto	u3990
  2668  047F                     u3991:
  2669  047F  2C8E               	goto	l3331
  2670  0480                     u3990:
  2671  0480  2C82               	goto	l1179
  2672                           	line	273
  2673                           	
  2674  0481                     l3327:	
  2675                           ;timer1ask.c: 272: {
  2676                           ;timer1ask.c: 273: while(RD2==1);
  2677  0481  2C82               	goto	l1179
  2678                           	
  2679  0482                     l1180:	
  2680                           	
  2681  0482                     l1179:	
  2682  0482  1908               	btfsc	(66/8),(66)&7
  2683  0483  2C85               	goto	u4001
  2684  0484  2C86               	goto	u4000
  2685  0485                     u4001:
  2686  0485  2C82               	goto	l1179
  2687  0486                     u4000:
  2688  0486  2C87               	goto	l3329
  2689                           	
  2690  0487                     l1181:	
  2691                           	line	274
  2692                           	
  2693  0487                     l3329:	
  2694                           ;timer1ask.c: 274: arr3='6';
  2695  0487  3036               	movlw	(036h)
  2696  0488  00F3               	movwf	(??_main+0)+0
  2697  0489  0873               	movf	(??_main+0)+0,w
  2698  048A  1683               	bsf	status, 5	;RP0=1, select bank1
  2699  048B  1303               	bcf	status, 6	;RP1=0, select bank1
  2700  048C  00CE               	movwf	(main@arr3)^080h
  2701  048D  2C8E               	goto	l3331
  2702                           	line	275
  2703                           	
  2704  048E                     l1178:	
  2705                           	line	276
  2706                           	
  2707  048E                     l3331:	
  2708                           ;timer1ask.c: 275: }
  2709                           ;timer1ask.c: 276: RD3=0;RD4=0;RD5=1;RD6=0;
  2710  048E  1283               	bcf	status, 5	;RP0=0, select bank0
  2711  048F  1188               	bcf	(67/8),(67)&7
  2712                           	
  2713  0490                     l3333:	
  2714  0490  1208               	bcf	(68/8),(68)&7
  2715                           	
  2716  0491                     l3335:	
  2717  0491  1688               	bsf	(69/8),(69)&7
  2718                           	
  2719  0492                     l3337:	
  2720  0492  1308               	bcf	(70/8),(70)&7
  2721                           	line	277
  2722                           	
  2723  0493                     l3339:	
  2724                           ;timer1ask.c: 277: if(RD0==1)
  2725  0493  1C08               	btfss	(64/8),(64)&7
  2726  0494  2C96               	goto	u4011
  2727  0495  2C97               	goto	u4010
  2728  0496                     u4011:
  2729  0496  2CA5               	goto	l3345
  2730  0497                     u4010:
  2731  0497  2C99               	goto	l1183
  2732                           	line	279
  2733                           	
  2734  0498                     l3341:	
  2735                           ;timer1ask.c: 278: {
  2736                           ;timer1ask.c: 279: while(RD0==1);
  2737  0498  2C99               	goto	l1183
  2738                           	
  2739  0499                     l1184:	
  2740                           	
  2741  0499                     l1183:	
  2742  0499  1808               	btfsc	(64/8),(64)&7
  2743  049A  2C9C               	goto	u4021
  2744  049B  2C9D               	goto	u4020
  2745  049C                     u4021:
  2746  049C  2C99               	goto	l1183
  2747  049D                     u4020:
  2748  049D  2C9E               	goto	l3343
  2749                           	
  2750  049E                     l1185:	
  2751                           	line	280
  2752                           	
  2753  049E                     l3343:	
  2754                           ;timer1ask.c: 280: arr3='7';
  2755  049E  3037               	movlw	(037h)
  2756  049F  00F3               	movwf	(??_main+0)+0
  2757  04A0  0873               	movf	(??_main+0)+0,w
  2758  04A1  1683               	bsf	status, 5	;RP0=1, select bank1
  2759  04A2  1303               	bcf	status, 6	;RP1=0, select bank1
  2760  04A3  00CE               	movwf	(main@arr3)^080h
  2761  04A4  2CA5               	goto	l3345
  2762                           	line	281
  2763                           	
  2764  04A5                     l1182:	
  2765                           	line	282
  2766                           	
  2767  04A5                     l3345:	
  2768                           ;timer1ask.c: 281: }
  2769                           ;timer1ask.c: 282: if(RD1==1)
  2770  04A5  1283               	bcf	status, 5	;RP0=0, select bank0
  2771  04A6  1C88               	btfss	(65/8),(65)&7
  2772  04A7  2CA9               	goto	u4031
  2773  04A8  2CAA               	goto	u4030
  2774  04A9                     u4031:
  2775  04A9  2CB8               	goto	l3351
  2776  04AA                     u4030:
  2777  04AA  2CAC               	goto	l1187
  2778                           	line	284
  2779                           	
  2780  04AB                     l3347:	
  2781                           ;timer1ask.c: 283: {
  2782                           ;timer1ask.c: 284: while(RD1==1);
  2783  04AB  2CAC               	goto	l1187
  2784                           	
  2785  04AC                     l1188:	
  2786                           	
  2787  04AC                     l1187:	
  2788  04AC  1888               	btfsc	(65/8),(65)&7
  2789  04AD  2CAF               	goto	u4041
  2790  04AE  2CB0               	goto	u4040
  2791  04AF                     u4041:
  2792  04AF  2CAC               	goto	l1187
  2793  04B0                     u4040:
  2794  04B0  2CB1               	goto	l3349
  2795                           	
  2796  04B1                     l1189:	
  2797                           	line	285
  2798                           	
  2799  04B1                     l3349:	
  2800                           ;timer1ask.c: 285: arr3='8';
  2801  04B1  3038               	movlw	(038h)
  2802  04B2  00F3               	movwf	(??_main+0)+0
  2803  04B3  0873               	movf	(??_main+0)+0,w
  2804  04B4  1683               	bsf	status, 5	;RP0=1, select bank1
  2805  04B5  1303               	bcf	status, 6	;RP1=0, select bank1
  2806  04B6  00CE               	movwf	(main@arr3)^080h
  2807  04B7  2CB8               	goto	l3351
  2808                           	line	286
  2809                           	
  2810  04B8                     l1186:	
  2811                           	line	287
  2812                           	
  2813  04B8                     l3351:	
  2814                           ;timer1ask.c: 286: }
  2815                           ;timer1ask.c: 287: if(RD2==1)
  2816  04B8  1283               	bcf	status, 5	;RP0=0, select bank0
  2817  04B9  1D08               	btfss	(66/8),(66)&7
  2818  04BA  2CBC               	goto	u4051
  2819  04BB  2CBD               	goto	u4050
  2820  04BC                     u4051:
  2821  04BC  2CCB               	goto	l3357
  2822  04BD                     u4050:
  2823  04BD  2CBF               	goto	l1191
  2824                           	line	289
  2825                           	
  2826  04BE                     l3353:	
  2827                           ;timer1ask.c: 288: {
  2828                           ;timer1ask.c: 289: while(RD2==1);
  2829  04BE  2CBF               	goto	l1191
  2830                           	
  2831  04BF                     l1192:	
  2832                           	
  2833  04BF                     l1191:	
  2834  04BF  1908               	btfsc	(66/8),(66)&7
  2835  04C0  2CC2               	goto	u4061
  2836  04C1  2CC3               	goto	u4060
  2837  04C2                     u4061:
  2838  04C2  2CBF               	goto	l1191
  2839  04C3                     u4060:
  2840  04C3  2CC4               	goto	l3355
  2841                           	
  2842  04C4                     l1193:	
  2843                           	line	290
  2844                           	
  2845  04C4                     l3355:	
  2846                           ;timer1ask.c: 290: arr3='9';
  2847  04C4  3039               	movlw	(039h)
  2848  04C5  00F3               	movwf	(??_main+0)+0
  2849  04C6  0873               	movf	(??_main+0)+0,w
  2850  04C7  1683               	bsf	status, 5	;RP0=1, select bank1
  2851  04C8  1303               	bcf	status, 6	;RP1=0, select bank1
  2852  04C9  00CE               	movwf	(main@arr3)^080h
  2853  04CA  2CCB               	goto	l3357
  2854                           	line	291
  2855                           	
  2856  04CB                     l1190:	
  2857                           	line	292
  2858                           	
  2859  04CB                     l3357:	
  2860                           ;timer1ask.c: 291: }
  2861                           ;timer1ask.c: 292: RD3=0;RD4=0;RD5=0;RD6=1;
  2862  04CB  1283               	bcf	status, 5	;RP0=0, select bank0
  2863  04CC  1188               	bcf	(67/8),(67)&7
  2864                           	
  2865  04CD                     l3359:	
  2866  04CD  1208               	bcf	(68/8),(68)&7
  2867                           	
  2868  04CE                     l3361:	
  2869  04CE  1288               	bcf	(69/8),(69)&7
  2870                           	
  2871  04CF                     l3363:	
  2872  04CF  1708               	bsf	(70/8),(70)&7
  2873                           	line	293
  2874                           	
  2875  04D0                     l3365:	
  2876                           ;timer1ask.c: 293: if(RD0==1)
  2877  04D0  1C08               	btfss	(64/8),(64)&7
  2878  04D1  2CD3               	goto	u4071
  2879  04D2  2CD4               	goto	u4070
  2880  04D3                     u4071:
  2881  04D3  2CE1               	goto	l1194
  2882  04D4                     u4070:
  2883  04D4  2CD6               	goto	l1195
  2884                           	line	295
  2885                           	
  2886  04D5                     l3367:	
  2887                           ;timer1ask.c: 294: {
  2888                           ;timer1ask.c: 295: while(RD0==1);
  2889  04D5  2CD6               	goto	l1195
  2890                           	
  2891  04D6                     l1196:	
  2892                           	
  2893  04D6                     l1195:	
  2894  04D6  1808               	btfsc	(64/8),(64)&7
  2895  04D7  2CD9               	goto	u4081
  2896  04D8  2CDA               	goto	u4080
  2897  04D9                     u4081:
  2898  04D9  2CD6               	goto	l1195
  2899  04DA                     u4080:
  2900  04DA  2CDB               	goto	l3369
  2901                           	
  2902  04DB                     l1197:	
  2903                           	line	296
  2904                           	
  2905  04DB                     l3369:	
  2906                           ;timer1ask.c: 296: control=7;
  2907  04DB  3007               	movlw	low(07h)
  2908  04DC  1683               	bsf	status, 5	;RP0=1, select bank1
  2909  04DD  1303               	bcf	status, 6	;RP1=0, select bank1
  2910  04DE  00CF               	movwf	(main@control)^080h
  2911  04DF  3000               	movlw	high(07h)
  2912  04E0  00D0               	movwf	((main@control)^080h)+1
  2913                           	line	297
  2914                           	
  2915  04E1                     l1194:	
  2916                           	line	298
  2917                           ;timer1ask.c: 297: }
  2918                           ;timer1ask.c: 298: val3= arr3-'0';
  2919  04E1  1683               	bsf	status, 5	;RP0=1, select bank1
  2920  04E2  1303               	bcf	status, 6	;RP1=0, select bank1
  2921  04E3  084E               	movf	(main@arr3)^080h,w
  2922  04E4  3ED0               	addlw	low(0FFD0h)
  2923  04E5  00C2               	movwf	(main@val3)^080h
  2924  04E6  30FF               	movlw	high(0FFD0h)
  2925  04E7  1803               	skipnc
  2926  04E8  3000               	movlw	(high(0FFD0h)+1)&0ffh
  2927  04E9  00C3               	movwf	((main@val3)^080h)+1
  2928                           	line	299
  2929                           	
  2930  04EA                     l1157:	
  2931                           	line	300
  2932                           ;timer1ask.c: 299: }
  2933                           ;timer1ask.c: 300: if(control==7)
  2934  04EA  3007               	movlw	07h
  2935  04EB  064F               	xorwf	(main@control)^080h,w
  2936  04EC  0450               	iorwf	(main@control+1)^080h,w
  2937  04ED  1D03               	skipz
  2938  04EE  2CF0               	goto	u4091
  2939  04EF  2CF1               	goto	u4090
  2940  04F0                     u4091:
  2941  04F0  2D3A               	goto	l1198
  2942  04F1                     u4090:
  2943                           	line	302
  2944                           	
  2945  04F1                     l3371:	
  2946                           ;timer1ask.c: 301: {
  2947                           ;timer1ask.c: 302: clear();
  2948  04F1  120A  158A  279E   	fcall	_clear
              120A  118A         
  2949                           	line	303
  2950                           	
  2951  04F6                     l3373:	
  2952                           ;timer1ask.c: 303: for(i=0;i<15;i++)
  2953  04F6  1683               	bsf	status, 5	;RP0=1, select bank1
  2954  04F7  1303               	bcf	status, 6	;RP1=0, select bank1
  2955  04F8  01D3               	clrf	(main@i)^080h
  2956  04F9  01D4               	clrf	(main@i+1)^080h
  2957                           	
  2958  04FA                     l3375:	
  2959  04FA  0854               	movf	(main@i+1)^080h,w
  2960  04FB  3A80               	xorlw	80h
  2961  04FC  00FF               	movwf	btemp+1
  2962  04FD  3080               	movlw	(high(0Fh))^80h
  2963  04FE  027F               	subwf	btemp+1,w
  2964  04FF  1D03               	skipz
  2965  0500  2D03               	goto	u4105
  2966  0501  300F               	movlw	low(0Fh)
  2967  0502  0253               	subwf	(main@i)^080h,w
  2968  0503                     u4105:
  2969                           
  2970  0503  1C03               	skipc
  2971  0504  2D06               	goto	u4101
  2972  0505  2D07               	goto	u4100
  2973  0506                     u4101:
  2974  0506  2D09               	goto	l3379
  2975  0507                     u4100:
  2976  0507  2D34               	goto	l3387
  2977                           	
  2978  0508                     l3377:	
  2979  0508  2D34               	goto	l3387
  2980                           	line	304
  2981                           	
  2982  0509                     l1199:	
  2983                           	line	305
  2984                           	
  2985  0509                     l3379:	
  2986                           ;timer1ask.c: 304: {
  2987                           ;timer1ask.c: 305: address(0X80+i);
  2988  0509  1683               	bsf	status, 5	;RP0=1, select bank1
  2989  050A  1303               	bcf	status, 6	;RP1=0, select bank1
  2990  050B  0853               	movf	(main@i)^080h,w
  2991  050C  3E80               	addlw	080h
  2992  050D  120A  158A  27AA   	fcall	_address
              120A  118A         
  2993                           	line	306
  2994                           	
  2995  0512                     l3381:	
  2996                           ;timer1ask.c: 306: display(pattern[i]);
  2997  0512  1683               	bsf	status, 5	;RP0=1, select bank1
  2998  0513  1303               	bcf	status, 6	;RP1=0, select bank1
  2999  0514  0853               	movf	(main@i)^080h,w
  3000  0515  3EA0               	addlw	main@pattern&0ffh
  3001  0516  0084               	movwf	fsr0
  3002  0517  1383               	bcf	status, 7	;select IRP bank1
  3003  0518  0800               	movf	indf,w
  3004  0519  120A  158A  27B7   	fcall	_display
              120A  118A         
  3005                           	line	303
  3006                           	
  3007  051E                     l3383:	
  3008  051E  3001               	movlw	low(01h)
  3009  051F  1683               	bsf	status, 5	;RP0=1, select bank1
  3010  0520  1303               	bcf	status, 6	;RP1=0, select bank1
  3011  0521  07D3               	addwf	(main@i)^080h,f
  3012  0522  1803               	skipnc
  3013  0523  0AD4               	incf	(main@i+1)^080h,f
  3014  0524  3000               	movlw	high(01h)
  3015  0525  07D4               	addwf	(main@i+1)^080h,f
  3016                           	
  3017  0526                     l3385:	
  3018  0526  0854               	movf	(main@i+1)^080h,w
  3019  0527  3A80               	xorlw	80h
  3020  0528  00FF               	movwf	btemp+1
  3021  0529  3080               	movlw	(high(0Fh))^80h
  3022  052A  027F               	subwf	btemp+1,w
  3023  052B  1D03               	skipz
  3024  052C  2D2F               	goto	u4115
  3025  052D  300F               	movlw	low(0Fh)
  3026  052E  0253               	subwf	(main@i)^080h,w
  3027  052F                     u4115:
  3028                           
  3029  052F  1C03               	skipc
  3030  0530  2D32               	goto	u4111
  3031  0531  2D33               	goto	u4110
  3032  0532                     u4111:
  3033  0532  2D09               	goto	l3379
  3034  0533                     u4110:
  3035  0533  2D34               	goto	l3387
  3036                           	
  3037  0534                     l1200:	
  3038                           	line	308
  3039                           	
  3040  0534                     l3387:	
  3041                           ;timer1ask.c: 307: }
  3042                           ;timer1ask.c: 308: control=8;
  3043  0534  3008               	movlw	low(08h)
  3044  0535  1683               	bsf	status, 5	;RP0=1, select bank1
  3045  0536  1303               	bcf	status, 6	;RP1=0, select bank1
  3046  0537  00CF               	movwf	(main@control)^080h
  3047  0538  3000               	movlw	high(08h)
  3048  0539  00D0               	movwf	((main@control)^080h)+1
  3049                           	line	309
  3050                           	
  3051  053A                     l1198:	
  3052                           	line	310
  3053                           ;timer1ask.c: 309: }
  3054                           ;timer1ask.c: 310: if(control==8)
  3055  053A  3008               	movlw	08h
  3056  053B  064F               	xorwf	(main@control)^080h,w
  3057  053C  0450               	iorwf	(main@control+1)^080h,w
  3058  053D  1D03               	skipz
  3059  053E  2D40               	goto	u4121
  3060  053F  2D41               	goto	u4120
  3061  0540                     u4121:
  3062  0540  2E2F               	goto	l1201
  3063  0541                     u4120:
  3064                           	line	312
  3065                           	
  3066  0541                     l3389:	
  3067                           ;timer1ask.c: 311: {
  3068                           ;timer1ask.c: 312: RD3=1;RD4=0;RD5=0;RD6=0;
  3069  0541  1283               	bcf	status, 5	;RP0=0, select bank0
  3070  0542  1303               	bcf	status, 6	;RP1=0, select bank0
  3071  0543  1588               	bsf	(67/8),(67)&7
  3072  0544  1208               	bcf	(68/8),(68)&7
  3073  0545  1288               	bcf	(69/8),(69)&7
  3074  0546  1308               	bcf	(70/8),(70)&7
  3075                           	line	313
  3076                           ;timer1ask.c: 313: if(RD0==1)
  3077  0547  1C08               	btfss	(64/8),(64)&7
  3078  0548  2D4A               	goto	u4131
  3079  0549  2D4B               	goto	u4130
  3080  054A                     u4131:
  3081  054A  2D8C               	goto	l3401
  3082  054B                     u4130:
  3083  054B  2D4D               	goto	l1203
  3084                           	line	315
  3085                           	
  3086  054C                     l3391:	
  3087                           ;timer1ask.c: 314: {
  3088                           ;timer1ask.c: 315: while(RD0==1);
  3089  054C  2D4D               	goto	l1203
  3090                           	
  3091  054D                     l1204:	
  3092                           	
  3093  054D                     l1203:	
  3094  054D  1808               	btfsc	(64/8),(64)&7
  3095  054E  2D50               	goto	u4141
  3096  054F  2D51               	goto	u4140
  3097  0550                     u4141:
  3098  0550  2D4D               	goto	l1203
  3099  0551                     u4140:
  3100  0551  2D52               	goto	l3393
  3101                           	
  3102  0552                     l1205:	
  3103                           	line	316
  3104                           	
  3105  0552                     l3393:	
  3106                           ;timer1ask.c: 316: patt[k]='1';
  3107  0552  3031               	movlw	(031h)
  3108  0553  00F3               	movwf	(??_main+0)+0
  3109  0554  1683               	bsf	status, 5	;RP0=1, select bank1
  3110  0555  1303               	bcf	status, 6	;RP1=0, select bank1
  3111  0556  0851               	movf	(main@k)^080h,w
  3112  0557  3ECA               	addlw	main@patt&0ffh
  3113  0558  0084               	movwf	fsr0
  3114  0559  0873               	movf	(??_main+0)+0,w
  3115  055A  1383               	bcf	status, 7	;select IRP bank1
  3116  055B  0080               	movwf	indf
  3117                           	line	317
  3118                           ;timer1ask.c: 317: patval[k]=patt[k]-'0';
  3119  055C  0851               	movf	(main@k)^080h,w
  3120  055D  3ECA               	addlw	main@patt&0ffh
  3121  055E  0084               	movwf	fsr0
  3122  055F  0800               	movf	indf,w
  3123  0560  3ED0               	addlw	low(0FFD0h)
  3124  0561  00F3               	movwf	(??_main+0)+0
  3125  0562  30FF               	movlw	high(0FFD0h)
  3126  0563  1803               	skipnc
  3127  0564  3000               	movlw	(high(0FFD0h)+1)&0ffh
  3128  0565  00F4               	movwf	((??_main+0)+0)+1
  3129  0566  0851               	movf	(main@k)^080h,w
  3130  0567  00F5               	movwf	(??_main+2)+0
  3131  0568  0775               	addwf	(??_main+2)+0,w
  3132  0569  3EC4               	addlw	main@patval&0ffh
  3133  056A  0084               	movwf	fsr0
  3134  056B  0873               	movf	0+(??_main+0)+0,w
  3135  056C  0080               	movwf	indf
  3136  056D  0A84               	incf	fsr0,f
  3137  056E  0874               	movf	1+(??_main+0)+0,w
  3138  056F  0080               	movwf	indf
  3139                           	line	318
  3140                           	
  3141  0570                     l3395:	
  3142                           ;timer1ask.c: 318: address(0XC0+k);
  3143  0570  0851               	movf	(main@k)^080h,w
  3144  0571  3EC0               	addlw	0C0h
  3145  0572  120A  158A  27AA   	fcall	_address
              120A  118A         
  3146                           	line	319
  3147                           	
  3148  0577                     l3397:	
  3149                           ;timer1ask.c: 319: display(patt[k]);
  3150  0577  1683               	bsf	status, 5	;RP0=1, select bank1
  3151  0578  1303               	bcf	status, 6	;RP1=0, select bank1
  3152  0579  0851               	movf	(main@k)^080h,w
  3153  057A  3ECA               	addlw	main@patt&0ffh
  3154  057B  0084               	movwf	fsr0
  3155  057C  1383               	bcf	status, 7	;select IRP bank1
  3156  057D  0800               	movf	indf,w
  3157  057E  120A  158A  27B7   	fcall	_display
              120A  118A         
  3158                           	line	320
  3159                           	
  3160  0583                     l3399:	
  3161                           ;timer1ask.c: 320: k++;
  3162  0583  3001               	movlw	low(01h)
  3163  0584  1683               	bsf	status, 5	;RP0=1, select bank1
  3164  0585  1303               	bcf	status, 6	;RP1=0, select bank1
  3165  0586  07D1               	addwf	(main@k)^080h,f
  3166  0587  1803               	skipnc
  3167  0588  0AD2               	incf	(main@k+1)^080h,f
  3168  0589  3000               	movlw	high(01h)
  3169  058A  07D2               	addwf	(main@k+1)^080h,f
  3170  058B  2D8C               	goto	l3401
  3171                           	line	321
  3172                           	
  3173  058C                     l1202:	
  3174                           	line	322
  3175                           	
  3176  058C                     l3401:	
  3177                           ;timer1ask.c: 321: }
  3178                           ;timer1ask.c: 322: if(RD1==1)
  3179  058C  1283               	bcf	status, 5	;RP0=0, select bank0
  3180  058D  1C88               	btfss	(65/8),(65)&7
  3181  058E  2D90               	goto	u4151
  3182  058F  2D91               	goto	u4150
  3183  0590                     u4151:
  3184  0590  2DD2               	goto	l3413
  3185  0591                     u4150:
  3186  0591  2D93               	goto	l1207
  3187                           	line	324
  3188                           	
  3189  0592                     l3403:	
  3190                           ;timer1ask.c: 323: {
  3191                           ;timer1ask.c: 324: while(RD1==1);
  3192  0592  2D93               	goto	l1207
  3193                           	
  3194  0593                     l1208:	
  3195                           	
  3196  0593                     l1207:	
  3197  0593  1888               	btfsc	(65/8),(65)&7
  3198  0594  2D96               	goto	u4161
  3199  0595  2D97               	goto	u4160
  3200  0596                     u4161:
  3201  0596  2D93               	goto	l1207
  3202  0597                     u4160:
  3203  0597  2D98               	goto	l3405
  3204                           	
  3205  0598                     l1209:	
  3206                           	line	325
  3207                           	
  3208  0598                     l3405:	
  3209                           ;timer1ask.c: 325: patt[k]='2';
  3210  0598  3032               	movlw	(032h)
  3211  0599  00F3               	movwf	(??_main+0)+0
  3212  059A  1683               	bsf	status, 5	;RP0=1, select bank1
  3213  059B  1303               	bcf	status, 6	;RP1=0, select bank1
  3214  059C  0851               	movf	(main@k)^080h,w
  3215  059D  3ECA               	addlw	main@patt&0ffh
  3216  059E  0084               	movwf	fsr0
  3217  059F  0873               	movf	(??_main+0)+0,w
  3218  05A0  1383               	bcf	status, 7	;select IRP bank1
  3219  05A1  0080               	movwf	indf
  3220                           	line	326
  3221                           ;timer1ask.c: 326: patval[k]=patt[k]-'0';
  3222  05A2  0851               	movf	(main@k)^080h,w
  3223  05A3  3ECA               	addlw	main@patt&0ffh
  3224  05A4  0084               	movwf	fsr0
  3225  05A5  0800               	movf	indf,w
  3226  05A6  3ED0               	addlw	low(0FFD0h)
  3227  05A7  00F3               	movwf	(??_main+0)+0
  3228  05A8  30FF               	movlw	high(0FFD0h)
  3229  05A9  1803               	skipnc
  3230  05AA  3000               	movlw	(high(0FFD0h)+1)&0ffh
  3231  05AB  00F4               	movwf	((??_main+0)+0)+1
  3232  05AC  0851               	movf	(main@k)^080h,w
  3233  05AD  00F5               	movwf	(??_main+2)+0
  3234  05AE  0775               	addwf	(??_main+2)+0,w
  3235  05AF  3EC4               	addlw	main@patval&0ffh
  3236  05B0  0084               	movwf	fsr0
  3237  05B1  0873               	movf	0+(??_main+0)+0,w
  3238  05B2  0080               	movwf	indf
  3239  05B3  0A84               	incf	fsr0,f
  3240  05B4  0874               	movf	1+(??_main+0)+0,w
  3241  05B5  0080               	movwf	indf
  3242                           	line	327
  3243                           	
  3244  05B6                     l3407:	
  3245                           ;timer1ask.c: 327: address(0XC0+k);
  3246  05B6  0851               	movf	(main@k)^080h,w
  3247  05B7  3EC0               	addlw	0C0h
  3248  05B8  120A  158A  27AA   	fcall	_address
              120A  118A         
  3249                           	line	328
  3250                           	
  3251  05BD                     l3409:	
  3252                           ;timer1ask.c: 328: display(patt[k]);
  3253  05BD  1683               	bsf	status, 5	;RP0=1, select bank1
  3254  05BE  1303               	bcf	status, 6	;RP1=0, select bank1
  3255  05BF  0851               	movf	(main@k)^080h,w
  3256  05C0  3ECA               	addlw	main@patt&0ffh
  3257  05C1  0084               	movwf	fsr0
  3258  05C2  1383               	bcf	status, 7	;select IRP bank1
  3259  05C3  0800               	movf	indf,w
  3260  05C4  120A  158A  27B7   	fcall	_display
              120A  118A         
  3261                           	line	329
  3262                           	
  3263  05C9                     l3411:	
  3264                           ;timer1ask.c: 329: k++;
  3265  05C9  3001               	movlw	low(01h)
  3266  05CA  1683               	bsf	status, 5	;RP0=1, select bank1
  3267  05CB  1303               	bcf	status, 6	;RP1=0, select bank1
  3268  05CC  07D1               	addwf	(main@k)^080h,f
  3269  05CD  1803               	skipnc
  3270  05CE  0AD2               	incf	(main@k+1)^080h,f
  3271  05CF  3000               	movlw	high(01h)
  3272  05D0  07D2               	addwf	(main@k+1)^080h,f
  3273  05D1  2DD2               	goto	l3413
  3274                           	line	330
  3275                           	
  3276  05D2                     l1206:	
  3277                           	line	331
  3278                           	
  3279  05D2                     l3413:	
  3280                           ;timer1ask.c: 330: }
  3281                           ;timer1ask.c: 331: if(RD2==1)
  3282  05D2  1283               	bcf	status, 5	;RP0=0, select bank0
  3283  05D3  1D08               	btfss	(66/8),(66)&7
  3284  05D4  2DD6               	goto	u4171
  3285  05D5  2DD7               	goto	u4170
  3286  05D6                     u4171:
  3287  05D6  2E18               	goto	l3425
  3288  05D7                     u4170:
  3289  05D7  2DD9               	goto	l1211
  3290                           	line	333
  3291                           	
  3292  05D8                     l3415:	
  3293                           ;timer1ask.c: 332: {
  3294                           ;timer1ask.c: 333: while(RD2==1);
  3295  05D8  2DD9               	goto	l1211
  3296                           	
  3297  05D9                     l1212:	
  3298                           	
  3299  05D9                     l1211:	
  3300  05D9  1908               	btfsc	(66/8),(66)&7
  3301  05DA  2DDC               	goto	u4181
  3302  05DB  2DDD               	goto	u4180
  3303  05DC                     u4181:
  3304  05DC  2DD9               	goto	l1211
  3305  05DD                     u4180:
  3306  05DD  2DDE               	goto	l3417
  3307                           	
  3308  05DE                     l1213:	
  3309                           	line	334
  3310                           	
  3311  05DE                     l3417:	
  3312                           ;timer1ask.c: 334: patt[k]='3';
  3313  05DE  3033               	movlw	(033h)
  3314  05DF  00F3               	movwf	(??_main+0)+0
  3315  05E0  1683               	bsf	status, 5	;RP0=1, select bank1
  3316  05E1  1303               	bcf	status, 6	;RP1=0, select bank1
  3317  05E2  0851               	movf	(main@k)^080h,w
  3318  05E3  3ECA               	addlw	main@patt&0ffh
  3319  05E4  0084               	movwf	fsr0
  3320  05E5  0873               	movf	(??_main+0)+0,w
  3321  05E6  1383               	bcf	status, 7	;select IRP bank1
  3322  05E7  0080               	movwf	indf
  3323                           	line	335
  3324                           ;timer1ask.c: 335: patval[k]=patt[k]-'0';
  3325  05E8  0851               	movf	(main@k)^080h,w
  3326  05E9  3ECA               	addlw	main@patt&0ffh
  3327  05EA  0084               	movwf	fsr0
  3328  05EB  0800               	movf	indf,w
  3329  05EC  3ED0               	addlw	low(0FFD0h)
  3330  05ED  00F3               	movwf	(??_main+0)+0
  3331  05EE  30FF               	movlw	high(0FFD0h)
  3332  05EF  1803               	skipnc
  3333  05F0  3000               	movlw	(high(0FFD0h)+1)&0ffh
  3334  05F1  00F4               	movwf	((??_main+0)+0)+1
  3335  05F2  0851               	movf	(main@k)^080h,w
  3336  05F3  00F5               	movwf	(??_main+2)+0
  3337  05F4  0775               	addwf	(??_main+2)+0,w
  3338  05F5  3EC4               	addlw	main@patval&0ffh
  3339  05F6  0084               	movwf	fsr0
  3340  05F7  0873               	movf	0+(??_main+0)+0,w
  3341  05F8  0080               	movwf	indf
  3342  05F9  0A84               	incf	fsr0,f
  3343  05FA  0874               	movf	1+(??_main+0)+0,w
  3344  05FB  0080               	movwf	indf
  3345                           	line	336
  3346                           	
  3347  05FC                     l3419:	
  3348                           ;timer1ask.c: 336: address(0XC0+k);
  3349  05FC  0851               	movf	(main@k)^080h,w
  3350  05FD  3EC0               	addlw	0C0h
  3351  05FE  120A  158A  27AA   	fcall	_address
              120A  118A         
  3352                           	line	337
  3353                           	
  3354  0603                     l3421:	
  3355                           ;timer1ask.c: 337: display(patt[k]);
  3356  0603  1683               	bsf	status, 5	;RP0=1, select bank1
  3357  0604  1303               	bcf	status, 6	;RP1=0, select bank1
  3358  0605  0851               	movf	(main@k)^080h,w
  3359  0606  3ECA               	addlw	main@patt&0ffh
  3360  0607  0084               	movwf	fsr0
  3361  0608  1383               	bcf	status, 7	;select IRP bank1
  3362  0609  0800               	movf	indf,w
  3363  060A  120A  158A  27B7   	fcall	_display
              120A  118A         
  3364                           	line	338
  3365                           	
  3366  060F                     l3423:	
  3367                           ;timer1ask.c: 338: k++;
  3368  060F  3001               	movlw	low(01h)
  3369  0610  1683               	bsf	status, 5	;RP0=1, select bank1
  3370  0611  1303               	bcf	status, 6	;RP1=0, select bank1
  3371  0612  07D1               	addwf	(main@k)^080h,f
  3372  0613  1803               	skipnc
  3373  0614  0AD2               	incf	(main@k+1)^080h,f
  3374  0615  3000               	movlw	high(01h)
  3375  0616  07D2               	addwf	(main@k+1)^080h,f
  3376  0617  2E18               	goto	l3425
  3377                           	line	339
  3378                           	
  3379  0618                     l1210:	
  3380                           	line	340
  3381                           	
  3382  0618                     l3425:	
  3383                           ;timer1ask.c: 339: }
  3384                           ;timer1ask.c: 340: RD3=0;RD4=0;RD5=0;RD6=1;
  3385  0618  1283               	bcf	status, 5	;RP0=0, select bank0
  3386  0619  1188               	bcf	(67/8),(67)&7
  3387                           	
  3388  061A                     l3427:	
  3389  061A  1208               	bcf	(68/8),(68)&7
  3390                           	
  3391  061B                     l3429:	
  3392  061B  1288               	bcf	(69/8),(69)&7
  3393                           	
  3394  061C                     l3431:	
  3395  061C  1708               	bsf	(70/8),(70)&7
  3396                           	line	341
  3397                           	
  3398  061D                     l3433:	
  3399                           ;timer1ask.c: 341: if(RD0==1)
  3400  061D  1C08               	btfss	(64/8),(64)&7
  3401  061E  2E20               	goto	u4191
  3402  061F  2E21               	goto	u4190
  3403  0620                     u4191:
  3404  0620  2E2F               	goto	l1201
  3405  0621                     u4190:
  3406  0621  2E23               	goto	l1215
  3407                           	line	343
  3408                           	
  3409  0622                     l3435:	
  3410                           ;timer1ask.c: 342: {
  3411                           ;timer1ask.c: 343: while(RD0==1);
  3412  0622  2E23               	goto	l1215
  3413                           	
  3414  0623                     l1216:	
  3415                           	
  3416  0623                     l1215:	
  3417  0623  1808               	btfsc	(64/8),(64)&7
  3418  0624  2E26               	goto	u4201
  3419  0625  2E27               	goto	u4200
  3420  0626                     u4201:
  3421  0626  2E23               	goto	l1215
  3422  0627                     u4200:
  3423  0627  2E28               	goto	l3437
  3424                           	
  3425  0628                     l1217:	
  3426                           	line	344
  3427                           	
  3428  0628                     l3437:	
  3429                           ;timer1ask.c: 344: control=9;
  3430  0628  3009               	movlw	low(09h)
  3431  0629  1683               	bsf	status, 5	;RP0=1, select bank1
  3432  062A  1303               	bcf	status, 6	;RP1=0, select bank1
  3433  062B  00CF               	movwf	(main@control)^080h
  3434  062C  3000               	movlw	high(09h)
  3435  062D  00D0               	movwf	((main@control)^080h)+1
  3436  062E  2E2F               	goto	l1201
  3437                           	line	345
  3438                           	
  3439  062F                     l1214:	
  3440                           	line	346
  3441                           	
  3442  062F                     l1201:	
  3443                           	line	347
  3444                           ;timer1ask.c: 345: }
  3445                           ;timer1ask.c: 346: }
  3446                           ;timer1ask.c: 347: if(control==9)
  3447  062F  3009               	movlw	09h
  3448  0630  1683               	bsf	status, 5	;RP0=1, select bank1
  3449  0631  1303               	bcf	status, 6	;RP1=0, select bank1
  3450  0632  064F               	xorwf	(main@control)^080h,w
  3451  0633  0450               	iorwf	(main@control+1)^080h,w
  3452  0634  1D03               	skipz
  3453  0635  2E37               	goto	u4211
  3454  0636  2E38               	goto	u4210
  3455  0637                     u4211:
  3456  0637  2E81               	goto	l1218
  3457  0638                     u4210:
  3458                           	line	349
  3459                           	
  3460  0638                     l3439:	
  3461                           ;timer1ask.c: 348: {
  3462                           ;timer1ask.c: 349: clear();
  3463  0638  120A  158A  279E   	fcall	_clear
              120A  118A         
  3464                           	line	350
  3465                           	
  3466  063D                     l3441:	
  3467                           ;timer1ask.c: 350: for(i=0;i<10;i++)
  3468  063D  1683               	bsf	status, 5	;RP0=1, select bank1
  3469  063E  1303               	bcf	status, 6	;RP1=0, select bank1
  3470  063F  01D3               	clrf	(main@i)^080h
  3471  0640  01D4               	clrf	(main@i+1)^080h
  3472                           	
  3473  0641                     l3443:	
  3474  0641  0854               	movf	(main@i+1)^080h,w
  3475  0642  3A80               	xorlw	80h
  3476  0643  00FF               	movwf	btemp+1
  3477  0644  3080               	movlw	(high(0Ah))^80h
  3478  0645  027F               	subwf	btemp+1,w
  3479  0646  1D03               	skipz
  3480  0647  2E4A               	goto	u4225
  3481  0648  300A               	movlw	low(0Ah)
  3482  0649  0253               	subwf	(main@i)^080h,w
  3483  064A                     u4225:
  3484                           
  3485  064A  1C03               	skipc
  3486  064B  2E4D               	goto	u4221
  3487  064C  2E4E               	goto	u4220
  3488  064D                     u4221:
  3489  064D  2E50               	goto	l3447
  3490  064E                     u4220:
  3491  064E  2E7B               	goto	l3455
  3492                           	
  3493  064F                     l3445:	
  3494  064F  2E7B               	goto	l3455
  3495                           	line	351
  3496                           	
  3497  0650                     l1219:	
  3498                           	line	352
  3499                           	
  3500  0650                     l3447:	
  3501                           ;timer1ask.c: 351: {
  3502                           ;timer1ask.c: 352: address(0XC0+i);
  3503  0650  1683               	bsf	status, 5	;RP0=1, select bank1
  3504  0651  1303               	bcf	status, 6	;RP1=0, select bank1
  3505  0652  0853               	movf	(main@i)^080h,w
  3506  0653  3EC0               	addlw	0C0h
  3507  0654  120A  158A  27AA   	fcall	_address
              120A  118A         
  3508                           	line	353
  3509                           	
  3510  0659                     l3449:	
  3511                           ;timer1ask.c: 353: display(process[i]);
  3512  0659  1683               	bsf	status, 5	;RP0=1, select bank1
  3513  065A  1303               	bcf	status, 6	;RP1=0, select bank1
  3514  065B  0853               	movf	(main@i)^080h,w
  3515  065C  3EB4               	addlw	main@process&0ffh
  3516  065D  0084               	movwf	fsr0
  3517  065E  1383               	bcf	status, 7	;select IRP bank1
  3518  065F  0800               	movf	indf,w
  3519  0660  120A  158A  27B7   	fcall	_display
              120A  118A         
  3520                           	line	350
  3521                           	
  3522  0665                     l3451:	
  3523  0665  3001               	movlw	low(01h)
  3524  0666  1683               	bsf	status, 5	;RP0=1, select bank1
  3525  0667  1303               	bcf	status, 6	;RP1=0, select bank1
  3526  0668  07D3               	addwf	(main@i)^080h,f
  3527  0669  1803               	skipnc
  3528  066A  0AD4               	incf	(main@i+1)^080h,f
  3529  066B  3000               	movlw	high(01h)
  3530  066C  07D4               	addwf	(main@i+1)^080h,f
  3531                           	
  3532  066D                     l3453:	
  3533  066D  0854               	movf	(main@i+1)^080h,w
  3534  066E  3A80               	xorlw	80h
  3535  066F  00FF               	movwf	btemp+1
  3536  0670  3080               	movlw	(high(0Ah))^80h
  3537  0671  027F               	subwf	btemp+1,w
  3538  0672  1D03               	skipz
  3539  0673  2E76               	goto	u4235
  3540  0674  300A               	movlw	low(0Ah)
  3541  0675  0253               	subwf	(main@i)^080h,w
  3542  0676                     u4235:
  3543                           
  3544  0676  1C03               	skipc
  3545  0677  2E79               	goto	u4231
  3546  0678  2E7A               	goto	u4230
  3547  0679                     u4231:
  3548  0679  2E50               	goto	l3447
  3549  067A                     u4230:
  3550  067A  2E7B               	goto	l3455
  3551                           	
  3552  067B                     l1220:	
  3553                           	line	355
  3554                           	
  3555  067B                     l3455:	
  3556                           ;timer1ask.c: 354: }
  3557                           ;timer1ask.c: 355: control=10;
  3558  067B  300A               	movlw	low(0Ah)
  3559  067C  1683               	bsf	status, 5	;RP0=1, select bank1
  3560  067D  1303               	bcf	status, 6	;RP1=0, select bank1
  3561  067E  00CF               	movwf	(main@control)^080h
  3562  067F  3000               	movlw	high(0Ah)
  3563  0680  00D0               	movwf	((main@control)^080h)+1
  3564                           	line	356
  3565                           	
  3566  0681                     l1218:	
  3567                           	line	357
  3568                           ;timer1ask.c: 356: }
  3569                           ;timer1ask.c: 357: if(control==10)
  3570  0681  300A               	movlw	0Ah
  3571  0682  064F               	xorwf	(main@control)^080h,w
  3572  0683  0450               	iorwf	(main@control+1)^080h,w
  3573  0684  1D03               	skipz
  3574  0685  2E87               	goto	u4241
  3575  0686  2E88               	goto	u4240
  3576  0687                     u4241:
  3577  0687  2FE1               	goto	l1221
  3578  0688                     u4240:
  3579                           	line	359
  3580                           	
  3581  0688                     l3457:	
  3582                           ;timer1ask.c: 358: {
  3583                           ;timer1ask.c: 359: for(i=0;i<3;)
  3584  0688  01D3               	clrf	(main@i)^080h
  3585  0689  01D4               	clrf	(main@i+1)^080h
  3586                           	
  3587  068A                     l3459:	
  3588  068A  0854               	movf	(main@i+1)^080h,w
  3589  068B  3A80               	xorlw	80h
  3590  068C  00FF               	movwf	btemp+1
  3591  068D  3080               	movlw	(high(03h))^80h
  3592  068E  027F               	subwf	btemp+1,w
  3593  068F  1D03               	skipz
  3594  0690  2E93               	goto	u4255
  3595  0691  3003               	movlw	low(03h)
  3596  0692  0253               	subwf	(main@i)^080h,w
  3597  0693                     u4255:
  3598                           
  3599  0693  1C03               	skipc
  3600  0694  2E96               	goto	u4251
  3601  0695  2E97               	goto	u4250
  3602  0696                     u4251:
  3603  0696  2E99               	goto	l3463
  3604  0697                     u4250:
  3605  0697  2FDB               	goto	l3519
  3606                           	
  3607  0698                     l3461:	
  3608  0698  2FDB               	goto	l3519
  3609                           	line	360
  3610                           	
  3611  0699                     l1222:	
  3612                           	line	362
  3613                           	
  3614  0699                     l3463:	
  3615                           ;timer1ask.c: 360: {
  3616                           ;timer1ask.c: 362: if(patval[i]==1)
  3617  0699  1683               	bsf	status, 5	;RP0=1, select bank1
  3618  069A  1303               	bcf	status, 6	;RP1=0, select bank1
  3619  069B  0853               	movf	(main@i)^080h,w
  3620  069C  00F3               	movwf	(??_main+0)+0
  3621  069D  0773               	addwf	(??_main+0)+0,w
  3622  069E  3EC4               	addlw	main@patval&0ffh
  3623  069F  0084               	movwf	fsr0
  3624  06A0  1383               	bcf	status, 7	;select IRP bank1
  3625  06A1  0800               	movf	indf,w
  3626  06A2  00F4               	movwf	(??_main+1)+0+0
  3627  06A3  0A84               	incf	fsr0,f
  3628  06A4  0800               	movf	indf,w
  3629  06A5  00F5               	movwf	(??_main+1)+0+1
  3630  06A6  3001               	movlw	01h
  3631  06A7  0674               	xorwf	0+(??_main+1)+0,w
  3632  06A8  0475               	iorwf	1+(??_main+1)+0,w
  3633  06A9  1D03               	skipz
  3634  06AA  2EAC               	goto	u4261
  3635  06AB  2EAD               	goto	u4260
  3636  06AC                     u4261:
  3637  06AC  2EFF               	goto	l3481
  3638  06AD                     u4260:
  3639                           	line	364
  3640                           	
  3641  06AD                     l3465:	
  3642                           ;timer1ask.c: 363: {
  3643                           ;timer1ask.c: 364: timer1();
  3644  06AD  120A  158A  27D5   	fcall	_timer1
              120A  118A         
  3645                           	line	365
  3646                           	
  3647  06B2                     l3467:	
  3648                           ;timer1ask.c: 365: if(count>=0 && count<=val1*2)
  3649  06B2  1683               	bsf	status, 5	;RP0=1, select bank1
  3650  06B3  1303               	bcf	status, 6	;RP1=0, select bank1
  3651  06B4  1BE0               	btfsc	(_count+1)^080h,7
  3652  06B5  2EB7               	goto	u4271
  3653  06B6  2EB8               	goto	u4270
  3654  06B7                     u4271:
  3655  06B7  2ED5               	goto	l3473
  3656  06B8                     u4270:
  3657                           	
  3658  06B8                     l3469:	
  3659  06B8  083F               	movf	(main@val1+1)^080h,w
  3660  06B9  00F4               	movwf	(??_main+0)+0+1
  3661  06BA  083E               	movf	(main@val1)^080h,w
  3662  06BB  00F3               	movwf	(??_main+0)+0
  3663  06BC  3001               	movlw	01h
  3664  06BD  00FF               	movwf	btemp+1
  3665  06BE                     u4285:
  3666  06BE  1003               	clrc
  3667  06BF  0DF3               	rlf	(??_main+0)+0,f
  3668  06C0  0DF4               	rlf	(??_main+0)+1,f
  3669  06C1  0BFF               	decfsz	btemp+1,f
  3670  06C2  2EBE               	goto	u4285
  3671  06C3  0874               	movf	1+(??_main+0)+0,w
  3672  06C4  3A80               	xorlw	80h
  3673  06C5  00F5               	movwf	(??_main+2)+0
  3674  06C6  0860               	movf	(_count+1)^080h,w
  3675  06C7  3A80               	xorlw	80h
  3676  06C8  0275               	subwf	(??_main+2)+0,w
  3677  06C9  1D03               	skipz
  3678  06CA  2ECD               	goto	u4295
  3679  06CB  085F               	movf	(_count)^080h,w
  3680  06CC  0273               	subwf	0+(??_main+0)+0,w
  3681  06CD                     u4295:
  3682                           
  3683  06CD  1C03               	skipc
  3684  06CE  2ED0               	goto	u4291
  3685  06CF  2ED1               	goto	u4290
  3686  06D0                     u4291:
  3687  06D0  2ED5               	goto	l3473
  3688  06D1                     u4290:
  3689                           	line	367
  3690                           	
  3691  06D1                     l3471:	
  3692                           ;timer1ask.c: 366: {
  3693                           ;timer1ask.c: 367: RC0=1;
  3694  06D1  1283               	bcf	status, 5	;RP0=0, select bank0
  3695  06D2  1303               	bcf	status, 6	;RP1=0, select bank0
  3696  06D3  1407               	bsf	(56/8),(56)&7
  3697  06D4  2ED5               	goto	l3473
  3698                           	line	368
  3699                           	
  3700  06D5                     l1225:	
  3701                           	line	369
  3702                           	
  3703  06D5                     l3473:	
  3704                           ;timer1ask.c: 368: }
  3705                           ;timer1ask.c: 369: if(count>val1*2)
  3706  06D5  1683               	bsf	status, 5	;RP0=1, select bank1
  3707  06D6  1303               	bcf	status, 6	;RP1=0, select bank1
  3708  06D7  083F               	movf	(main@val1+1)^080h,w
  3709  06D8  00F4               	movwf	(??_main+0)+0+1
  3710  06D9  083E               	movf	(main@val1)^080h,w
  3711  06DA  00F3               	movwf	(??_main+0)+0
  3712  06DB  3001               	movlw	01h
  3713  06DC  00FF               	movwf	btemp+1
  3714  06DD                     u4305:
  3715  06DD  1003               	clrc
  3716  06DE  0DF3               	rlf	(??_main+0)+0,f
  3717  06DF  0DF4               	rlf	(??_main+0)+1,f
  3718  06E0  0BFF               	decfsz	btemp+1,f
  3719  06E1  2EDD               	goto	u4305
  3720  06E2  0874               	movf	1+(??_main+0)+0,w
  3721  06E3  3A80               	xorlw	80h
  3722  06E4  00F5               	movwf	(??_main+2)+0
  3723  06E5  0860               	movf	(_count+1)^080h,w
  3724  06E6  3A80               	xorlw	80h
  3725  06E7  0275               	subwf	(??_main+2)+0,w
  3726  06E8  1D03               	skipz
  3727  06E9  2EEC               	goto	u4315
  3728  06EA  085F               	movf	(_count)^080h,w
  3729  06EB  0273               	subwf	0+(??_main+0)+0,w
  3730  06EC                     u4315:
  3731                           
  3732  06EC  1803               	skipnc
  3733  06ED  2EEF               	goto	u4311
  3734  06EE  2EF0               	goto	u4310
  3735  06EF                     u4311:
  3736  06EF  2EFF               	goto	l3481
  3737  06F0                     u4310:
  3738                           	line	371
  3739                           	
  3740  06F0                     l3475:	
  3741                           ;timer1ask.c: 370: {
  3742                           ;timer1ask.c: 371: RC0=0;
  3743  06F0  1283               	bcf	status, 5	;RP0=0, select bank0
  3744  06F1  1303               	bcf	status, 6	;RP1=0, select bank0
  3745  06F2  1007               	bcf	(56/8),(56)&7
  3746                           	line	372
  3747                           	
  3748  06F3                     l3477:	
  3749                           ;timer1ask.c: 372: count=0;
  3750  06F3  1683               	bsf	status, 5	;RP0=1, select bank1
  3751  06F4  1303               	bcf	status, 6	;RP1=0, select bank1
  3752  06F5  01DF               	clrf	(_count)^080h
  3753  06F6  01E0               	clrf	(_count+1)^080h
  3754                           	line	373
  3755                           	
  3756  06F7                     l3479:	
  3757                           ;timer1ask.c: 373: i++;
  3758  06F7  3001               	movlw	low(01h)
  3759  06F8  07D3               	addwf	(main@i)^080h,f
  3760  06F9  1803               	skipnc
  3761  06FA  0AD4               	incf	(main@i+1)^080h,f
  3762  06FB  3000               	movlw	high(01h)
  3763  06FC  07D4               	addwf	(main@i+1)^080h,f
  3764  06FD  2EFF               	goto	l3481
  3765                           	line	374
  3766                           	
  3767  06FE                     l1226:	
  3768  06FE  2EFF               	goto	l3481
  3769                           	line	376
  3770                           	
  3771  06FF                     l1224:	
  3772                           	line	377
  3773                           	
  3774  06FF                     l3481:	
  3775                           ;timer1ask.c: 374: }
  3776                           ;timer1ask.c: 376: }
  3777                           ;timer1ask.c: 377: if(patval[i]==2)
  3778  06FF  1683               	bsf	status, 5	;RP0=1, select bank1
  3779  0700  1303               	bcf	status, 6	;RP1=0, select bank1
  3780  0701  0853               	movf	(main@i)^080h,w
  3781  0702  00F3               	movwf	(??_main+0)+0
  3782  0703  0773               	addwf	(??_main+0)+0,w
  3783  0704  3EC4               	addlw	main@patval&0ffh
  3784  0705  0084               	movwf	fsr0
  3785  0706  1383               	bcf	status, 7	;select IRP bank1
  3786  0707  0800               	movf	indf,w
  3787  0708  00F4               	movwf	(??_main+1)+0+0
  3788  0709  0A84               	incf	fsr0,f
  3789  070A  0800               	movf	indf,w
  3790  070B  00F5               	movwf	(??_main+1)+0+1
  3791  070C  3002               	movlw	02h
  3792  070D  0674               	xorwf	0+(??_main+1)+0,w
  3793  070E  0475               	iorwf	1+(??_main+1)+0,w
  3794  070F  1D03               	skipz
  3795  0710  2F12               	goto	u4321
  3796  0711  2F13               	goto	u4320
  3797  0712                     u4321:
  3798  0712  2F65               	goto	l3499
  3799  0713                     u4320:
  3800                           	line	379
  3801                           	
  3802  0713                     l3483:	
  3803                           ;timer1ask.c: 378: {
  3804                           ;timer1ask.c: 379: timer1();
  3805  0713  120A  158A  27D5   	fcall	_timer1
              120A  118A         
  3806                           	line	380
  3807                           	
  3808  0718                     l3485:	
  3809                           ;timer1ask.c: 380: if(count>=0 && count<=val2*2)
  3810  0718  1683               	bsf	status, 5	;RP0=1, select bank1
  3811  0719  1303               	bcf	status, 6	;RP1=0, select bank1
  3812  071A  1BE0               	btfsc	(_count+1)^080h,7
  3813  071B  2F1D               	goto	u4331
  3814  071C  2F1E               	goto	u4330
  3815  071D                     u4331:
  3816  071D  2F3B               	goto	l3491
  3817  071E                     u4330:
  3818                           	
  3819  071E                     l3487:	
  3820  071E  0841               	movf	(main@val2+1)^080h,w
  3821  071F  00F4               	movwf	(??_main+0)+0+1
  3822  0720  0840               	movf	(main@val2)^080h,w
  3823  0721  00F3               	movwf	(??_main+0)+0
  3824  0722  3001               	movlw	01h
  3825  0723  00FF               	movwf	btemp+1
  3826  0724                     u4345:
  3827  0724  1003               	clrc
  3828  0725  0DF3               	rlf	(??_main+0)+0,f
  3829  0726  0DF4               	rlf	(??_main+0)+1,f
  3830  0727  0BFF               	decfsz	btemp+1,f
  3831  0728  2F24               	goto	u4345
  3832  0729  0874               	movf	1+(??_main+0)+0,w
  3833  072A  3A80               	xorlw	80h
  3834  072B  00F5               	movwf	(??_main+2)+0
  3835  072C  0860               	movf	(_count+1)^080h,w
  3836  072D  3A80               	xorlw	80h
  3837  072E  0275               	subwf	(??_main+2)+0,w
  3838  072F  1D03               	skipz
  3839  0730  2F33               	goto	u4355
  3840  0731  085F               	movf	(_count)^080h,w
  3841  0732  0273               	subwf	0+(??_main+0)+0,w
  3842  0733                     u4355:
  3843                           
  3844  0733  1C03               	skipc
  3845  0734  2F36               	goto	u4351
  3846  0735  2F37               	goto	u4350
  3847  0736                     u4351:
  3848  0736  2F3B               	goto	l3491
  3849  0737                     u4350:
  3850                           	line	382
  3851                           	
  3852  0737                     l3489:	
  3853                           ;timer1ask.c: 381: {
  3854                           ;timer1ask.c: 382: RC1=1;
  3855  0737  1283               	bcf	status, 5	;RP0=0, select bank0
  3856  0738  1303               	bcf	status, 6	;RP1=0, select bank0
  3857  0739  1487               	bsf	(57/8),(57)&7
  3858  073A  2F3B               	goto	l3491
  3859                           	line	383
  3860                           	
  3861  073B                     l1228:	
  3862                           	line	384
  3863                           	
  3864  073B                     l3491:	
  3865                           ;timer1ask.c: 383: }
  3866                           ;timer1ask.c: 384: if(count>val2*2)
  3867  073B  1683               	bsf	status, 5	;RP0=1, select bank1
  3868  073C  1303               	bcf	status, 6	;RP1=0, select bank1
  3869  073D  0841               	movf	(main@val2+1)^080h,w
  3870  073E  00F4               	movwf	(??_main+0)+0+1
  3871  073F  0840               	movf	(main@val2)^080h,w
  3872  0740  00F3               	movwf	(??_main+0)+0
  3873  0741  3001               	movlw	01h
  3874  0742  00FF               	movwf	btemp+1
  3875  0743                     u4365:
  3876  0743  1003               	clrc
  3877  0744  0DF3               	rlf	(??_main+0)+0,f
  3878  0745  0DF4               	rlf	(??_main+0)+1,f
  3879  0746  0BFF               	decfsz	btemp+1,f
  3880  0747  2F43               	goto	u4365
  3881  0748  0874               	movf	1+(??_main+0)+0,w
  3882  0749  3A80               	xorlw	80h
  3883  074A  00F5               	movwf	(??_main+2)+0
  3884  074B  0860               	movf	(_count+1)^080h,w
  3885  074C  3A80               	xorlw	80h
  3886  074D  0275               	subwf	(??_main+2)+0,w
  3887  074E  1D03               	skipz
  3888  074F  2F52               	goto	u4375
  3889  0750  085F               	movf	(_count)^080h,w
  3890  0751  0273               	subwf	0+(??_main+0)+0,w
  3891  0752                     u4375:
  3892                           
  3893  0752  1803               	skipnc
  3894  0753  2F55               	goto	u4371
  3895  0754  2F56               	goto	u4370
  3896  0755                     u4371:
  3897  0755  2F65               	goto	l3499
  3898  0756                     u4370:
  3899                           	line	386
  3900                           	
  3901  0756                     l3493:	
  3902                           ;timer1ask.c: 385: {
  3903                           ;timer1ask.c: 386: RC1=0;
  3904  0756  1283               	bcf	status, 5	;RP0=0, select bank0
  3905  0757  1303               	bcf	status, 6	;RP1=0, select bank0
  3906  0758  1087               	bcf	(57/8),(57)&7
  3907                           	line	387
  3908                           	
  3909  0759                     l3495:	
  3910                           ;timer1ask.c: 387: count=0;
  3911  0759  1683               	bsf	status, 5	;RP0=1, select bank1
  3912  075A  1303               	bcf	status, 6	;RP1=0, select bank1
  3913  075B  01DF               	clrf	(_count)^080h
  3914  075C  01E0               	clrf	(_count+1)^080h
  3915                           	line	388
  3916                           	
  3917  075D                     l3497:	
  3918                           ;timer1ask.c: 388: i++;
  3919  075D  3001               	movlw	low(01h)
  3920  075E  07D3               	addwf	(main@i)^080h,f
  3921  075F  1803               	skipnc
  3922  0760  0AD4               	incf	(main@i+1)^080h,f
  3923  0761  3000               	movlw	high(01h)
  3924  0762  07D4               	addwf	(main@i+1)^080h,f
  3925  0763  2F65               	goto	l3499
  3926                           	line	389
  3927                           	
  3928  0764                     l1229:	
  3929  0764  2F65               	goto	l3499
  3930                           	line	391
  3931                           	
  3932  0765                     l1227:	
  3933                           	line	392
  3934                           	
  3935  0765                     l3499:	
  3936                           ;timer1ask.c: 389: }
  3937                           ;timer1ask.c: 391: }
  3938                           ;timer1ask.c: 392: if(patval[i]==3)
  3939  0765  1683               	bsf	status, 5	;RP0=1, select bank1
  3940  0766  1303               	bcf	status, 6	;RP1=0, select bank1
  3941  0767  0853               	movf	(main@i)^080h,w
  3942  0768  00F3               	movwf	(??_main+0)+0
  3943  0769  0773               	addwf	(??_main+0)+0,w
  3944  076A  3EC4               	addlw	main@patval&0ffh
  3945  076B  0084               	movwf	fsr0
  3946  076C  1383               	bcf	status, 7	;select IRP bank1
  3947  076D  0800               	movf	indf,w
  3948  076E  00F4               	movwf	(??_main+1)+0+0
  3949  076F  0A84               	incf	fsr0,f
  3950  0770  0800               	movf	indf,w
  3951  0771  00F5               	movwf	(??_main+1)+0+1
  3952  0772  3003               	movlw	03h
  3953  0773  0674               	xorwf	0+(??_main+1)+0,w
  3954  0774  0475               	iorwf	1+(??_main+1)+0,w
  3955  0775  1D03               	skipz
  3956  0776  2F78               	goto	u4381
  3957  0777  2F79               	goto	u4380
  3958  0778                     u4381:
  3959  0778  2FCB               	goto	l3517
  3960  0779                     u4380:
  3961                           	line	394
  3962                           	
  3963  0779                     l3501:	
  3964                           ;timer1ask.c: 393: {
  3965                           ;timer1ask.c: 394: timer1();
  3966  0779  120A  158A  27D5   	fcall	_timer1
              120A  118A         
  3967                           	line	395
  3968                           	
  3969  077E                     l3503:	
  3970                           ;timer1ask.c: 395: if(count>=0 && count<=val3*2)
  3971  077E  1683               	bsf	status, 5	;RP0=1, select bank1
  3972  077F  1303               	bcf	status, 6	;RP1=0, select bank1
  3973  0780  1BE0               	btfsc	(_count+1)^080h,7
  3974  0781  2F83               	goto	u4391
  3975  0782  2F84               	goto	u4390
  3976  0783                     u4391:
  3977  0783  2FA1               	goto	l3509
  3978  0784                     u4390:
  3979                           	
  3980  0784                     l3505:	
  3981  0784  0843               	movf	(main@val3+1)^080h,w
  3982  0785  00F4               	movwf	(??_main+0)+0+1
  3983  0786  0842               	movf	(main@val3)^080h,w
  3984  0787  00F3               	movwf	(??_main+0)+0
  3985  0788  3001               	movlw	01h
  3986  0789  00FF               	movwf	btemp+1
  3987  078A                     u4405:
  3988  078A  1003               	clrc
  3989  078B  0DF3               	rlf	(??_main+0)+0,f
  3990  078C  0DF4               	rlf	(??_main+0)+1,f
  3991  078D  0BFF               	decfsz	btemp+1,f
  3992  078E  2F8A               	goto	u4405
  3993  078F  0874               	movf	1+(??_main+0)+0,w
  3994  0790  3A80               	xorlw	80h
  3995  0791  00F5               	movwf	(??_main+2)+0
  3996  0792  0860               	movf	(_count+1)^080h,w
  3997  0793  3A80               	xorlw	80h
  3998  0794  0275               	subwf	(??_main+2)+0,w
  3999  0795  1D03               	skipz
  4000  0796  2F99               	goto	u4415
  4001  0797  085F               	movf	(_count)^080h,w
  4002  0798  0273               	subwf	0+(??_main+0)+0,w
  4003  0799                     u4415:
  4004                           
  4005  0799  1C03               	skipc
  4006  079A  2F9C               	goto	u4411
  4007  079B  2F9D               	goto	u4410
  4008  079C                     u4411:
  4009  079C  2FA1               	goto	l3509
  4010  079D                     u4410:
  4011                           	line	397
  4012                           	
  4013  079D                     l3507:	
  4014                           ;timer1ask.c: 396: {
  4015                           ;timer1ask.c: 397: RC2=1;
  4016  079D  1283               	bcf	status, 5	;RP0=0, select bank0
  4017  079E  1303               	bcf	status, 6	;RP1=0, select bank0
  4018  079F  1507               	bsf	(58/8),(58)&7
  4019  07A0  2FA1               	goto	l3509
  4020                           	line	398
  4021                           	
  4022  07A1                     l1231:	
  4023                           	line	399
  4024                           	
  4025  07A1                     l3509:	
  4026                           ;timer1ask.c: 398: }
  4027                           ;timer1ask.c: 399: if(count>val3*2)
  4028  07A1  1683               	bsf	status, 5	;RP0=1, select bank1
  4029  07A2  1303               	bcf	status, 6	;RP1=0, select bank1
  4030  07A3  0843               	movf	(main@val3+1)^080h,w
  4031  07A4  00F4               	movwf	(??_main+0)+0+1
  4032  07A5  0842               	movf	(main@val3)^080h,w
  4033  07A6  00F3               	movwf	(??_main+0)+0
  4034  07A7  3001               	movlw	01h
  4035  07A8  00FF               	movwf	btemp+1
  4036  07A9                     u4425:
  4037  07A9  1003               	clrc
  4038  07AA  0DF3               	rlf	(??_main+0)+0,f
  4039  07AB  0DF4               	rlf	(??_main+0)+1,f
  4040  07AC  0BFF               	decfsz	btemp+1,f
  4041  07AD  2FA9               	goto	u4425
  4042  07AE  0874               	movf	1+(??_main+0)+0,w
  4043  07AF  3A80               	xorlw	80h
  4044  07B0  00F5               	movwf	(??_main+2)+0
  4045  07B1  0860               	movf	(_count+1)^080h,w
  4046  07B2  3A80               	xorlw	80h
  4047  07B3  0275               	subwf	(??_main+2)+0,w
  4048  07B4  1D03               	skipz
  4049  07B5  2FB8               	goto	u4435
  4050  07B6  085F               	movf	(_count)^080h,w
  4051  07B7  0273               	subwf	0+(??_main+0)+0,w
  4052  07B8                     u4435:
  4053                           
  4054  07B8  1803               	skipnc
  4055  07B9  2FBB               	goto	u4431
  4056  07BA  2FBC               	goto	u4430
  4057  07BB                     u4431:
  4058  07BB  2FCB               	goto	l3517
  4059  07BC                     u4430:
  4060                           	line	401
  4061                           	
  4062  07BC                     l3511:	
  4063                           ;timer1ask.c: 400: {
  4064                           ;timer1ask.c: 401: RC2=0;
  4065  07BC  1283               	bcf	status, 5	;RP0=0, select bank0
  4066  07BD  1303               	bcf	status, 6	;RP1=0, select bank0
  4067  07BE  1107               	bcf	(58/8),(58)&7
  4068                           	line	402
  4069                           	
  4070  07BF                     l3513:	
  4071                           ;timer1ask.c: 402: count=0;
  4072  07BF  1683               	bsf	status, 5	;RP0=1, select bank1
  4073  07C0  1303               	bcf	status, 6	;RP1=0, select bank1
  4074  07C1  01DF               	clrf	(_count)^080h
  4075  07C2  01E0               	clrf	(_count+1)^080h
  4076                           	line	403
  4077                           	
  4078  07C3                     l3515:	
  4079                           ;timer1ask.c: 403: i++;
  4080  07C3  3001               	movlw	low(01h)
  4081  07C4  07D3               	addwf	(main@i)^080h,f
  4082  07C5  1803               	skipnc
  4083  07C6  0AD4               	incf	(main@i+1)^080h,f
  4084  07C7  3000               	movlw	high(01h)
  4085  07C8  07D4               	addwf	(main@i+1)^080h,f
  4086  07C9  2FCB               	goto	l3517
  4087                           	line	404
  4088                           	
  4089  07CA                     l1232:	
  4090  07CA  2FCB               	goto	l3517
  4091                           	line	406
  4092                           	
  4093  07CB                     l1230:	
  4094                           	line	359
  4095                           	
  4096  07CB                     l3517:	
  4097  07CB  1683               	bsf	status, 5	;RP0=1, select bank1
  4098  07CC  1303               	bcf	status, 6	;RP1=0, select bank1
  4099  07CD  0854               	movf	(main@i+1)^080h,w
  4100  07CE  3A80               	xorlw	80h
  4101  07CF  00FF               	movwf	btemp+1
  4102  07D0  3080               	movlw	(high(03h))^80h
  4103  07D1  027F               	subwf	btemp+1,w
  4104  07D2  1D03               	skipz
  4105  07D3  2FD6               	goto	u4445
  4106  07D4  3003               	movlw	low(03h)
  4107  07D5  0253               	subwf	(main@i)^080h,w
  4108  07D6                     u4445:
  4109                           
  4110  07D6  1C03               	skipc
  4111  07D7  2FD9               	goto	u4441
  4112  07D8  2FDA               	goto	u4440
  4113  07D9                     u4441:
  4114  07D9  2E99               	goto	l3463
  4115  07DA                     u4440:
  4116  07DA  2FDB               	goto	l3519
  4117                           	
  4118  07DB                     l1223:	
  4119                           	line	408
  4120                           	
  4121  07DB                     l3519:	
  4122                           ;timer1ask.c: 404: }
  4123                           ;timer1ask.c: 406: }
  4124                           ;timer1ask.c: 407: }
  4125                           ;timer1ask.c: 408: control=11;
  4126  07DB  300B               	movlw	low(0Bh)
  4127  07DC  1683               	bsf	status, 5	;RP0=1, select bank1
  4128  07DD  1303               	bcf	status, 6	;RP1=0, select bank1
  4129  07DE  00CF               	movwf	(main@control)^080h
  4130  07DF  3000               	movlw	high(0Bh)
  4131  07E0  00D0               	movwf	((main@control)^080h)+1
  4132                           	line	409
  4133                           	
  4134  07E1                     l1221:	
  4135                           	line	410
  4136                           ;timer1ask.c: 409: }
  4137                           ;timer1ask.c: 410: if(control==11)
  4138  07E1  300B               	movlw	0Bh
  4139  07E2  064F               	xorwf	(main@control)^080h,w
  4140  07E3  0450               	iorwf	(main@control+1)^080h,w
  4141  07E4  1D03               	skipz
  4142  07E5  2FE7               	goto	u4451
  4143  07E6  2FE8               	goto	u4450
  4144  07E7                     u4451:
  4145  07E7  2951               	goto	l3029
  4146  07E8                     u4450:
  4147                           	line	412
  4148                           	
  4149  07E8                     l3521:	
  4150                           ;timer1ask.c: 411: {
  4151                           ;timer1ask.c: 412: control=1;
  4152  07E8  3001               	movlw	low(01h)
  4153  07E9  00CF               	movwf	(main@control)^080h
  4154  07EA  3000               	movlw	high(01h)
  4155  07EB  00D0               	movwf	((main@control)^080h)+1
  4156                           	line	413
  4157                           	
  4158  07EC                     l3523:	
  4159                           ;timer1ask.c: 413: clear();
  4160  07EC  120A  158A  279E   	fcall	_clear
              120A  118A         
  4161                           	line	414
  4162                           	
  4163  07F1                     l3525:	
  4164                           ;timer1ask.c: 414: count=0;
  4165  07F1  1683               	bsf	status, 5	;RP0=1, select bank1
  4166  07F2  1303               	bcf	status, 6	;RP1=0, select bank1
  4167  07F3  01DF               	clrf	(_count)^080h
  4168  07F4  01E0               	clrf	(_count+1)^080h
  4169                           	line	415
  4170                           	
  4171  07F5                     l3527:	
  4172                           ;timer1ask.c: 415: arr1='\0';
  4173  07F5  01F9               	clrf	(main@arr1)
  4174                           	line	416
  4175                           	
  4176  07F6                     l3529:	
  4177                           ;timer1ask.c: 416: arr2='\0';
  4178  07F6  01CD               	clrf	(main@arr2)^080h
  4179                           	line	417
  4180                           	
  4181  07F7                     l3531:	
  4182                           ;timer1ask.c: 417: arr3='\0';
  4183  07F7  01CE               	clrf	(main@arr3)^080h
  4184                           	line	418
  4185                           	
  4186  07F8                     l3533:	
  4187                           ;timer1ask.c: 418: k=0;
  4188  07F8  01D1               	clrf	(main@k)^080h
  4189  07F9  01D2               	clrf	(main@k+1)^080h
  4190  07FA  2951               	goto	l3029
  4191                           	line	419
  4192                           	
  4193  07FB                     l1233:	
  4194  07FB  2951               	goto	l3029
  4195                           	line	420
  4196                           	
  4197  07FC                     l1234:	
  4198                           	line	87
  4199  07FC  2951               	goto	l3029
  4200                           	
  4201  07FD                     l1235:	
  4202                           	line	421
  4203                           	
  4204  07FD                     l1236:	
  4205                           	global	start
  4206  07FD  120A  118A  2800   	ljmp	start
  4207                           	opt stack 0
  4208                           GLOBAL	__end_of_main
  4209  0800                     	__end_of_main:
  4210 ;; =============== function _main ends ============
  4211                           
  4212                           	signat	_main,88
  4213                           	global	_clear
  4214                           psect	text241,local,class=CODE,delta=2
  4215                           global __ptext241
  4216  0F9E                     __ptext241:
  4217                           
  4218 ;; *************** function _clear *****************
  4219 ;; Defined at:
  4220 ;;		line 54 in file "E:\KTU\Softwares\MP lab\Timer1ask\timer1ask.c"
  4221 ;; Parameters:    Size  Location     Type
  4222 ;;		None
  4223 ;; Auto vars:     Size  Location     Type
  4224 ;;		None
  4225 ;; Return value:  Size  Location     Type
  4226 ;;		None               void
  4227 ;; Registers used:
  4228 ;;		wreg, status,2, status,0, pclath, cstack
  4229 ;; Tracked objects:
  4230 ;;		On entry : 0/0
  4231 ;;		On exit  : 0/0
  4232 ;;		Unchanged: 0/0
  4233 ;; Data sizes:     COMMON   BANK0   BANK1   BANK3   BANK2
  4234 ;;      Params:         0       0       0       0       0
  4235 ;;      Locals:         0       0       0       0       0
  4236 ;;      Temps:          0       0       0       0       0
  4237 ;;      Totals:         0       0       0       0       0
  4238 ;;Total ram usage:        0 bytes
  4239 ;; Hardware stack levels used:    1
  4240 ;; Hardware stack levels required when called:    2
  4241 ;; This function calls:
  4242 ;;		_pulse
  4243 ;; This function is called by:
  4244 ;;		_main
  4245 ;; This function uses a non-reentrant model
  4246 ;;
  4247                           psect	text241
  4248                           	file	"E:\KTU\Softwares\MP lab\Timer1ask\timer1ask.c"
  4249                           	line	54
  4250                           	global	__size_of_clear
  4251  000C                     	__size_of_clear	equ	__end_of_clear-_clear
  4252                           	
  4253  0F9E                     _clear:	
  4254                           	opt	stack 5
  4255                           ; Regs used in _clear: [wreg+status,2+status,0+pclath+cstack]
  4256                           	line	55
  4257                           	
  4258  0F9E                     l2993:	
  4259                           ;timer1ask.c: 55: RA0=0;
  4260  0F9E  1283               	bcf	status, 5	;RP0=0, select bank0
  4261  0F9F  1303               	bcf	status, 6	;RP1=0, select bank0
  4262  0FA0  1005               	bcf	(40/8),(40)&7
  4263                           	line	56
  4264                           ;timer1ask.c: 56: RA1=0;
  4265  0FA1  1085               	bcf	(41/8),(41)&7
  4266                           	line	57
  4267                           	
  4268  0FA2                     l2995:	
  4269                           ;timer1ask.c: 57: PORTB=0X01;
  4270  0FA2  3001               	movlw	(01h)
  4271  0FA3  0086               	movwf	(6)	;volatile
  4272                           	line	58
  4273                           	
  4274  0FA4                     l2997:	
  4275                           ;timer1ask.c: 58: pulse();
  4276  0FA4  120A  158A  27E7   	fcall	_pulse
              120A  158A         
  4277                           	line	59
  4278                           	
  4279  0FA9                     l1052:	
  4280  0FA9  0008               	return
  4281                           	opt stack 0
  4282                           GLOBAL	__end_of_clear
  4283  0FAA                     	__end_of_clear:
  4284 ;; =============== function _clear ends ============
  4285                           
  4286                           	signat	_clear,88
  4287                           	global	_display
  4288                           psect	text242,local,class=CODE,delta=2
  4289                           global __ptext242
  4290  0FB7                     __ptext242:
  4291                           
  4292 ;; *************** function _display *****************
  4293 ;; Defined at:
  4294 ;;		line 47 in file "E:\KTU\Softwares\MP lab\Timer1ask\timer1ask.c"
  4295 ;; Parameters:    Size  Location     Type
  4296 ;;  data            1    wreg     unsigned char 
  4297 ;; Auto vars:     Size  Location     Type
  4298 ;;  data            1    2[COMMON] unsigned char 
  4299 ;; Return value:  Size  Location     Type
  4300 ;;		None               void
  4301 ;; Registers used:
  4302 ;;		wreg, status,2, status,0, pclath, cstack
  4303 ;; Tracked objects:
  4304 ;;		On entry : 0/0
  4305 ;;		On exit  : 0/0
  4306 ;;		Unchanged: 0/0
  4307 ;; Data sizes:     COMMON   BANK0   BANK1   BANK3   BANK2
  4308 ;;      Params:         0       0       0       0       0
  4309 ;;      Locals:         1       0       0       0       0
  4310 ;;      Temps:          0       0       0       0       0
  4311 ;;      Totals:         1       0       0       0       0
  4312 ;;Total ram usage:        1 bytes
  4313 ;; Hardware stack levels used:    1
  4314 ;; Hardware stack levels required when called:    2
  4315 ;; This function calls:
  4316 ;;		_pulse
  4317 ;; This function is called by:
  4318 ;;		_main
  4319 ;; This function uses a non-reentrant model
  4320 ;;
  4321                           psect	text242
  4322                           	file	"E:\KTU\Softwares\MP lab\Timer1ask\timer1ask.c"
  4323                           	line	47
  4324                           	global	__size_of_display
  4325  000D                     	__size_of_display	equ	__end_of_display-_display
  4326                           	
  4327  0FB7                     _display:	
  4328                           	opt	stack 5
  4329                           ; Regs used in _display: [wreg+status,2+status,0+pclath+cstack]
  4330                           ;display@data stored from wreg
  4331  0FB7  00F2               	movwf	(display@data)
  4332                           	line	48
  4333                           	
  4334  0FB8                     l2987:	
  4335                           ;timer1ask.c: 48: RA0=1;
  4336  0FB8  1283               	bcf	status, 5	;RP0=0, select bank0
  4337  0FB9  1303               	bcf	status, 6	;RP1=0, select bank0
  4338  0FBA  1405               	bsf	(40/8),(40)&7
  4339                           	line	49
  4340                           ;timer1ask.c: 49: RA1=0;
  4341  0FBB  1085               	bcf	(41/8),(41)&7
  4342                           	line	50
  4343                           	
  4344  0FBC                     l2989:	
  4345                           ;timer1ask.c: 50: PORTB=data;
  4346  0FBC  0872               	movf	(display@data),w
  4347  0FBD  0086               	movwf	(6)	;volatile
  4348                           	line	51
  4349                           	
  4350  0FBE                     l2991:	
  4351                           ;timer1ask.c: 51: pulse();
  4352  0FBE  120A  158A  27E7   	fcall	_pulse
              120A  158A         
  4353                           	line	52
  4354                           	
  4355  0FC3                     l1049:	
  4356  0FC3  0008               	return
  4357                           	opt stack 0
  4358                           GLOBAL	__end_of_display
  4359  0FC4                     	__end_of_display:
  4360 ;; =============== function _display ends ============
  4361                           
  4362                           	signat	_display,4216
  4363                           	global	_address
  4364                           psect	text243,local,class=CODE,delta=2
  4365                           global __ptext243
  4366  0FAA                     __ptext243:
  4367                           
  4368 ;; *************** function _address *****************
  4369 ;; Defined at:
  4370 ;;		line 40 in file "E:\KTU\Softwares\MP lab\Timer1ask\timer1ask.c"
  4371 ;; Parameters:    Size  Location     Type
  4372 ;;  data            1    wreg     unsigned char 
  4373 ;; Auto vars:     Size  Location     Type
  4374 ;;  data            1    2[COMMON] unsigned char 
  4375 ;; Return value:  Size  Location     Type
  4376 ;;		None               void
  4377 ;; Registers used:
  4378 ;;		wreg, status,2, status,0, pclath, cstack
  4379 ;; Tracked objects:
  4380 ;;		On entry : 0/0
  4381 ;;		On exit  : 0/0
  4382 ;;		Unchanged: 0/0
  4383 ;; Data sizes:     COMMON   BANK0   BANK1   BANK3   BANK2
  4384 ;;      Params:         0       0       0       0       0
  4385 ;;      Locals:         1       0       0       0       0
  4386 ;;      Temps:          0       0       0       0       0
  4387 ;;      Totals:         1       0       0       0       0
  4388 ;;Total ram usage:        1 bytes
  4389 ;; Hardware stack levels used:    1
  4390 ;; Hardware stack levels required when called:    2
  4391 ;; This function calls:
  4392 ;;		_pulse
  4393 ;; This function is called by:
  4394 ;;		_main
  4395 ;; This function uses a non-reentrant model
  4396 ;;
  4397                           psect	text243
  4398                           	file	"E:\KTU\Softwares\MP lab\Timer1ask\timer1ask.c"
  4399                           	line	40
  4400                           	global	__size_of_address
  4401  000D                     	__size_of_address	equ	__end_of_address-_address
  4402                           	
  4403  0FAA                     _address:	
  4404                           	opt	stack 5
  4405                           ; Regs used in _address: [wreg+status,2+status,0+pclath+cstack]
  4406                           ;address@data stored from wreg
  4407  0FAA  00F2               	movwf	(address@data)
  4408                           	line	41
  4409                           	
  4410  0FAB                     l2981:	
  4411                           ;timer1ask.c: 41: RA0=0;
  4412  0FAB  1283               	bcf	status, 5	;RP0=0, select bank0
  4413  0FAC  1303               	bcf	status, 6	;RP1=0, select bank0
  4414  0FAD  1005               	bcf	(40/8),(40)&7
  4415                           	line	42
  4416                           ;timer1ask.c: 42: RA1=0;
  4417  0FAE  1085               	bcf	(41/8),(41)&7
  4418                           	line	43
  4419                           	
  4420  0FAF                     l2983:	
  4421                           ;timer1ask.c: 43: PORTB=data;
  4422  0FAF  0872               	movf	(address@data),w
  4423  0FB0  0086               	movwf	(6)	;volatile
  4424                           	line	44
  4425                           	
  4426  0FB1                     l2985:	
  4427                           ;timer1ask.c: 44: pulse();
  4428  0FB1  120A  158A  27E7   	fcall	_pulse
              120A  158A         
  4429                           	line	45
  4430                           	
  4431  0FB6                     l1046:	
  4432  0FB6  0008               	return
  4433                           	opt stack 0
  4434                           GLOBAL	__end_of_address
  4435  0FB7                     	__end_of_address:
  4436 ;; =============== function _address ends ============
  4437                           
  4438                           	signat	_address,4216
  4439                           	global	_type
  4440                           psect	text244,local,class=CODE,delta=2
  4441                           global __ptext244
  4442  0F92                     __ptext244:
  4443                           
  4444 ;; *************** function _type *****************
  4445 ;; Defined at:
  4446 ;;		line 33 in file "E:\KTU\Softwares\MP lab\Timer1ask\timer1ask.c"
  4447 ;; Parameters:    Size  Location     Type
  4448 ;;		None
  4449 ;; Auto vars:     Size  Location     Type
  4450 ;;		None
  4451 ;; Return value:  Size  Location     Type
  4452 ;;		None               void
  4453 ;; Registers used:
  4454 ;;		wreg, status,2, status,0, pclath, cstack
  4455 ;; Tracked objects:
  4456 ;;		On entry : 0/0
  4457 ;;		On exit  : 0/0
  4458 ;;		Unchanged: 0/0
  4459 ;; Data sizes:     COMMON   BANK0   BANK1   BANK3   BANK2
  4460 ;;      Params:         0       0       0       0       0
  4461 ;;      Locals:         0       0       0       0       0
  4462 ;;      Temps:          0       0       0       0       0
  4463 ;;      Totals:         0       0       0       0       0
  4464 ;;Total ram usage:        0 bytes
  4465 ;; Hardware stack levels used:    1
  4466 ;; Hardware stack levels required when called:    2
  4467 ;; This function calls:
  4468 ;;		_pulse
  4469 ;; This function is called by:
  4470 ;;		_main
  4471 ;; This function uses a non-reentrant model
  4472 ;;
  4473                           psect	text244
  4474                           	file	"E:\KTU\Softwares\MP lab\Timer1ask\timer1ask.c"
  4475                           	line	33
  4476                           	global	__size_of_type
  4477  000C                     	__size_of_type	equ	__end_of_type-_type
  4478                           	
  4479  0F92                     _type:	
  4480                           	opt	stack 5
  4481                           ; Regs used in _type: [wreg+status,2+status,0+pclath+cstack]
  4482                           	line	34
  4483                           	
  4484  0F92                     l2975:	
  4485                           ;timer1ask.c: 34: RA0=0;
  4486  0F92  1283               	bcf	status, 5	;RP0=0, select bank0
  4487  0F93  1303               	bcf	status, 6	;RP1=0, select bank0
  4488  0F94  1005               	bcf	(40/8),(40)&7
  4489                           	line	35
  4490                           ;timer1ask.c: 35: RA1=0;
  4491  0F95  1085               	bcf	(41/8),(41)&7
  4492                           	line	36
  4493                           	
  4494  0F96                     l2977:	
  4495                           ;timer1ask.c: 36: PORTB=0X38;
  4496  0F96  3038               	movlw	(038h)
  4497  0F97  0086               	movwf	(6)	;volatile
  4498                           	line	37
  4499                           	
  4500  0F98                     l2979:	
  4501                           ;timer1ask.c: 37: pulse();
  4502  0F98  120A  158A  27E7   	fcall	_pulse
              120A  158A         
  4503                           	line	38
  4504                           	
  4505  0F9D                     l1043:	
  4506  0F9D  0008               	return
  4507                           	opt stack 0
  4508                           GLOBAL	__end_of_type
  4509  0F9E                     	__end_of_type:
  4510 ;; =============== function _type ends ============
  4511                           
  4512                           	signat	_type,88
  4513                           	global	_on
  4514                           psect	text245,local,class=CODE,delta=2
  4515                           global __ptext245
  4516  0F86                     __ptext245:
  4517                           
  4518 ;; *************** function _on *****************
  4519 ;; Defined at:
  4520 ;;		line 26 in file "E:\KTU\Softwares\MP lab\Timer1ask\timer1ask.c"
  4521 ;; Parameters:    Size  Location     Type
  4522 ;;		None
  4523 ;; Auto vars:     Size  Location     Type
  4524 ;;		None
  4525 ;; Return value:  Size  Location     Type
  4526 ;;		None               void
  4527 ;; Registers used:
  4528 ;;		wreg, status,2, status,0, pclath, cstack
  4529 ;; Tracked objects:
  4530 ;;		On entry : 0/0
  4531 ;;		On exit  : 0/0
  4532 ;;		Unchanged: 0/0
  4533 ;; Data sizes:     COMMON   BANK0   BANK1   BANK3   BANK2
  4534 ;;      Params:         0       0       0       0       0
  4535 ;;      Locals:         0       0       0       0       0
  4536 ;;      Temps:          0       0       0       0       0
  4537 ;;      Totals:         0       0       0       0       0
  4538 ;;Total ram usage:        0 bytes
  4539 ;; Hardware stack levels used:    1
  4540 ;; Hardware stack levels required when called:    2
  4541 ;; This function calls:
  4542 ;;		_pulse
  4543 ;; This function is called by:
  4544 ;;		_main
  4545 ;; This function uses a non-reentrant model
  4546 ;;
  4547                           psect	text245
  4548                           	file	"E:\KTU\Softwares\MP lab\Timer1ask\timer1ask.c"
  4549                           	line	26
  4550                           	global	__size_of_on
  4551  000C                     	__size_of_on	equ	__end_of_on-_on
  4552                           	
  4553  0F86                     _on:	
  4554                           	opt	stack 5
  4555                           ; Regs used in _on: [wreg+status,2+status,0+pclath+cstack]
  4556                           	line	27
  4557                           	
  4558  0F86                     l2969:	
  4559                           ;timer1ask.c: 27: RA0=0;
  4560  0F86  1283               	bcf	status, 5	;RP0=0, select bank0
  4561  0F87  1303               	bcf	status, 6	;RP1=0, select bank0
  4562  0F88  1005               	bcf	(40/8),(40)&7
  4563                           	line	28
  4564                           ;timer1ask.c: 28: RA1=0;
  4565  0F89  1085               	bcf	(41/8),(41)&7
  4566                           	line	29
  4567                           	
  4568  0F8A                     l2971:	
  4569                           ;timer1ask.c: 29: PORTB=0X0E;
  4570  0F8A  300E               	movlw	(0Eh)
  4571  0F8B  0086               	movwf	(6)	;volatile
  4572                           	line	30
  4573                           	
  4574  0F8C                     l2973:	
  4575                           ;timer1ask.c: 30: pulse();
  4576  0F8C  120A  158A  27E7   	fcall	_pulse
              120A  158A         
  4577                           	line	31
  4578                           	
  4579  0F91                     l1040:	
  4580  0F91  0008               	return
  4581                           	opt stack 0
  4582                           GLOBAL	__end_of_on
  4583  0F92                     	__end_of_on:
  4584 ;; =============== function _on ends ============
  4585                           
  4586                           	signat	_on,88
  4587                           	global	_pulse
  4588                           psect	text246,local,class=CODE,delta=2
  4589                           global __ptext246
  4590  0FE7                     __ptext246:
  4591                           
  4592 ;; *************** function _pulse *****************
  4593 ;; Defined at:
  4594 ;;		line 19 in file "E:\KTU\Softwares\MP lab\Timer1ask\timer1ask.c"
  4595 ;; Parameters:    Size  Location     Type
  4596 ;;		None
  4597 ;; Auto vars:     Size  Location     Type
  4598 ;;		None
  4599 ;; Return value:  Size  Location     Type
  4600 ;;		None               void
  4601 ;; Registers used:
  4602 ;;		wreg, status,2, status,0, pclath, cstack
  4603 ;; Tracked objects:
  4604 ;;		On entry : 0/0
  4605 ;;		On exit  : 0/0
  4606 ;;		Unchanged: 0/0
  4607 ;; Data sizes:     COMMON   BANK0   BANK1   BANK3   BANK2
  4608 ;;      Params:         0       0       0       0       0
  4609 ;;      Locals:         0       0       0       0       0
  4610 ;;      Temps:          0       0       0       0       0
  4611 ;;      Totals:         0       0       0       0       0
  4612 ;;Total ram usage:        0 bytes
  4613 ;; Hardware stack levels used:    1
  4614 ;; Hardware stack levels required when called:    1
  4615 ;; This function calls:
  4616 ;;		_delay
  4617 ;; This function is called by:
  4618 ;;		_on
  4619 ;;		_type
  4620 ;;		_address
  4621 ;;		_display
  4622 ;;		_clear
  4623 ;; This function uses a non-reentrant model
  4624 ;;
  4625                           psect	text246
  4626                           	file	"E:\KTU\Softwares\MP lab\Timer1ask\timer1ask.c"
  4627                           	line	19
  4628                           	global	__size_of_pulse
  4629  0019                     	__size_of_pulse	equ	__end_of_pulse-_pulse
  4630                           	
  4631  0FE7                     _pulse:	
  4632                           	opt	stack 5
  4633                           ; Regs used in _pulse: [wreg+status,2+status,0+pclath+cstack]
  4634                           	line	20
  4635                           	
  4636  0FE7                     l2963:	
  4637                           ;timer1ask.c: 20: RA2=1;
  4638  0FE7  1283               	bcf	status, 5	;RP0=0, select bank0
  4639  0FE8  1303               	bcf	status, 6	;RP1=0, select bank0
  4640  0FE9  1505               	bsf	(42/8),(42)&7
  4641                           	line	21
  4642                           	
  4643  0FEA                     l2965:	
  4644                           ;timer1ask.c: 21: delay(100);
  4645  0FEA  3064               	movlw	low(064h)
  4646  0FEB  00F0               	movwf	(?_delay)
  4647  0FEC  3000               	movlw	high(064h)
  4648  0FED  00F1               	movwf	((?_delay))+1
  4649  0FEE  120A  118A  2005   	fcall	_delay
              120A  158A         
  4650                           	line	22
  4651                           	
  4652  0FF3                     l2967:	
  4653                           ;timer1ask.c: 22: RA2=0;
  4654  0FF3  1283               	bcf	status, 5	;RP0=0, select bank0
  4655  0FF4  1303               	bcf	status, 6	;RP1=0, select bank0
  4656  0FF5  1105               	bcf	(42/8),(42)&7
  4657                           	line	23
  4658                           ;timer1ask.c: 23: delay(100);
  4659  0FF6  3064               	movlw	low(064h)
  4660  0FF7  00F0               	movwf	(?_delay)
  4661  0FF8  3000               	movlw	high(064h)
  4662  0FF9  00F1               	movwf	((?_delay))+1
  4663  0FFA  120A  118A  2005   	fcall	_delay
              120A  158A         
  4664                           	line	24
  4665                           	
  4666  0FFF                     l1037:	
  4667  0FFF  0008               	return
  4668                           	opt stack 0
  4669                           GLOBAL	__end_of_pulse
  4670  1000                     	__end_of_pulse:
  4671 ;; =============== function _pulse ends ============
  4672                           
  4673                           	signat	_pulse,88
  4674                           	global	_delay
  4675                           psect	text247,local,class=CODE,delta=2
  4676                           global __ptext247
  4677  0005                     __ptext247:
  4678                           
  4679 ;; *************** function _delay *****************
  4680 ;; Defined at:
  4681 ;;		line 15 in file "E:\KTU\Softwares\MP lab\Timer1ask\timer1ask.c"
  4682 ;; Parameters:    Size  Location     Type
  4683 ;;  del             2    0[COMMON] int 
  4684 ;; Auto vars:     Size  Location     Type
  4685 ;;		None
  4686 ;; Return value:  Size  Location     Type
  4687 ;;		None               void
  4688 ;; Registers used:
  4689 ;;		wreg
  4690 ;; Tracked objects:
  4691 ;;		On entry : 0/0
  4692 ;;		On exit  : 0/0
  4693 ;;		Unchanged: 0/0
  4694 ;; Data sizes:     COMMON   BANK0   BANK1   BANK3   BANK2
  4695 ;;      Params:         2       0       0       0       0
  4696 ;;      Locals:         0       0       0       0       0
  4697 ;;      Temps:          0       0       0       0       0
  4698 ;;      Totals:         2       0       0       0       0
  4699 ;;Total ram usage:        2 bytes
  4700 ;; Hardware stack levels used:    1
  4701 ;; This function calls:
  4702 ;;		Nothing
  4703 ;; This function is called by:
  4704 ;;		_pulse
  4705 ;; This function uses a non-reentrant model
  4706 ;;
  4707                           psect	text247
  4708                           	file	"E:\KTU\Softwares\MP lab\Timer1ask\timer1ask.c"
  4709                           	line	15
  4710                           	global	__size_of_delay
  4711  0014                     	__size_of_delay	equ	__end_of_delay-_delay
  4712                           	
  4713  0005                     _delay:	
  4714                           	opt	stack 5
  4715                           ; Regs used in _delay: [wreg]
  4716                           	line	16
  4717                           	
  4718  0005                     l2959:	
  4719                           ;timer1ask.c: 16: while(del--);
  4720  0005  2807               	goto	l2961
  4721                           	
  4722  0006                     l1032:	
  4723  0006  2807               	goto	l2961
  4724                           	
  4725  0007                     l1031:	
  4726                           	
  4727  0007                     l2961:	
  4728  0007  30FF               	movlw	low(-1)
  4729  0008  07F0               	addwf	(delay@del),f
  4730  0009  1803               	skipnc
  4731  000A  0AF1               	incf	(delay@del+1),f
  4732  000B  30FF               	movlw	high(-1)
  4733  000C  07F1               	addwf	(delay@del+1),f
  4734  000D  30FF               	movlw	high(-1)
  4735  000E  0671               	xorwf	((delay@del+1)),w
  4736  000F  1D03               	skipz
  4737  0010  2813               	goto	u3315
  4738  0011  30FF               	movlw	low(-1)
  4739  0012  0670               	xorwf	((delay@del)),w
  4740  0013                     u3315:
  4741                           
  4742  0013  1D03               	skipz
  4743  0014  2816               	goto	u3311
  4744  0015  2817               	goto	u3310
  4745  0016                     u3311:
  4746  0016  2807               	goto	l2961
  4747  0017                     u3310:
  4748  0017  2818               	goto	l1034
  4749                           	
  4750  0018                     l1033:	
  4751                           	line	17
  4752                           	
  4753  0018                     l1034:	
  4754  0018  0008               	return
  4755                           	opt stack 0
  4756                           GLOBAL	__end_of_delay
  4757  0019                     	__end_of_delay:
  4758 ;; =============== function _delay ends ============
  4759                           
  4760                           	signat	_delay,4216
  4761                           	global	_timer1
  4762                           psect	text248,local,class=CODE,delta=2
  4763                           global __ptext248
  4764  0FD5                     __ptext248:
  4765                           
  4766 ;; *************** function _timer1 *****************
  4767 ;; Defined at:
  4768 ;;		line 7 in file "E:\KTU\Softwares\MP lab\Timer1ask\timer1ask.c"
  4769 ;; Parameters:    Size  Location     Type
  4770 ;;		None
  4771 ;; Auto vars:     Size  Location     Type
  4772 ;;		None
  4773 ;; Return value:  Size  Location     Type
  4774 ;;		None               void
  4775 ;; Registers used:
  4776 ;;		wreg
  4777 ;; Tracked objects:
  4778 ;;		On entry : 0/0
  4779 ;;		On exit  : 0/0
  4780 ;;		Unchanged: 0/0
  4781 ;; Data sizes:     COMMON   BANK0   BANK1   BANK3   BANK2
  4782 ;;      Params:         0       0       0       0       0
  4783 ;;      Locals:         0       0       0       0       0
  4784 ;;      Temps:          0       0       0       0       0
  4785 ;;      Totals:         0       0       0       0       0
  4786 ;;Total ram usage:        0 bytes
  4787 ;; Hardware stack levels used:    1
  4788 ;; This function calls:
  4789 ;;		Nothing
  4790 ;; This function is called by:
  4791 ;;		_main
  4792 ;; This function uses a non-reentrant model
  4793 ;;
  4794                           psect	text248
  4795                           	file	"E:\KTU\Softwares\MP lab\Timer1ask\timer1ask.c"
  4796                           	line	7
  4797                           	global	__size_of_timer1
  4798  0012                     	__size_of_timer1	equ	__end_of_timer1-_timer1
  4799                           	
  4800  0FD5                     _timer1:	
  4801                           	opt	stack 7
  4802                           ; Regs used in _timer1: [wreg]
  4803                           	line	8
  4804                           	
  4805  0FD5                     l2953:	
  4806                           ;timer1ask.c: 8: if(TMR1IF==1)
  4807  0FD5  1283               	bcf	status, 5	;RP0=0, select bank0
  4808  0FD6  1303               	bcf	status, 6	;RP1=0, select bank0
  4809  0FD7  1C0C               	btfss	(96/8),(96)&7
  4810  0FD8  2FDA               	goto	u3301
  4811  0FD9  2FDB               	goto	u3300
  4812  0FDA                     u3301:
  4813  0FDA  2FE4               	goto	l2957
  4814  0FDB                     u3300:
  4815                           	line	10
  4816                           	
  4817  0FDB                     l2955:	
  4818                           ;timer1ask.c: 9: {
  4819                           ;timer1ask.c: 10: count++;
  4820  0FDB  3001               	movlw	low(01h)
  4821  0FDC  1683               	bsf	status, 5	;RP0=1, select bank1
  4822  0FDD  1303               	bcf	status, 6	;RP1=0, select bank1
  4823  0FDE  07DF               	addwf	(_count)^080h,f
  4824  0FDF  1803               	skipnc
  4825  0FE0  0AE0               	incf	(_count+1)^080h,f
  4826  0FE1  3000               	movlw	high(01h)
  4827  0FE2  07E0               	addwf	(_count+1)^080h,f
  4828  0FE3  2FE4               	goto	l2957
  4829                           	line	11
  4830                           	
  4831  0FE4                     l1027:	
  4832                           	line	12
  4833                           	
  4834  0FE4                     l2957:	
  4835                           ;timer1ask.c: 11: }
  4836                           ;timer1ask.c: 12: TMR1IF=0;
  4837  0FE4  1283               	bcf	status, 5	;RP0=0, select bank0
  4838  0FE5  100C               	bcf	(96/8),(96)&7
  4839                           	line	13
  4840                           	
  4841  0FE6                     l1028:	
  4842  0FE6  0008               	return
  4843                           	opt stack 0
  4844                           GLOBAL	__end_of_timer1
  4845  0FE7                     	__end_of_timer1:
  4846 ;; =============== function _timer1 ends ============
  4847                           
  4848                           	signat	_timer1,88
  4849                           psect	text249,local,class=CODE,delta=2
  4850                           global __ptext249
  4851  0000                     __ptext249:
  4852                           	global	btemp
  4853  007E                     	btemp set 07Eh
  4854                           
  4855                           	DABS	1,126,2	;btemp
  4856                           	global	wtemp0
  4857  007E                     	wtemp0 set btemp


HI-TECH Software PICC Macro Assembler V9.81 build 7503 
Symbol Table                                                                                   Mon Jun 07 11:22:57 2021

                   pc 0002                    _on 0F86                    fsr 0004                   ?_on 0070  
                 _RA0 0028                   _RA1 0029                   _RA2 002A                   _RC0 0038  
                 _RC1 0039                   _RD0 0040                   _RC2 003A                   _RD1 0041  
                 _RD2 0042                   _RD3 0043                   _RD4 0044                   _RD5 0045  
                 _RD6 0046                   fsr0 0004                   indf 0000                  ??_on 0072  
                l1100 0233                  l1101 0238                  l1110 02C2                  l1102 024D  
                l1031 0007                  l1111 0291                  l1103 0243                  l1032 0006  
                l1040 0F91                  l1200 0534                  l1120 02F6                  l1112 02BC  
                l1104 0243                  l1033 0018                  l1201 062F                  l1121 02FB  
                l1113 03AE                  l1105 0248                  l1034 0018                  l1210 0618  
                l1202 058C                  l1130 033F                  l1122 0315                  l1114 02EF  
                l1106 0268                  l1027 0FE4                  l1043 0F9D                  l1211 05D9  
                l1203 054D                  l1131 0333                  l1123 0309                  l1115 02E3  
                l1107 0257                  l1028 0FE6                  l1052 0FA9                  l1220 067B  
                l1212 05D9                  l1204 054D                  l1140 035D                  l1132 0333  
                l1124 0309                  l1116 02E3                  l1108 0257                  l1037 0FFF  
                l1221 07E1                  l1213 05DE                  l1205 0552                  l1141 0362  
                l1133 0338                  l1125 030E                  l1117 02E8                  l1109 025C  
                l1046 0FB6                  l1230 07CB                  l1222 0699                  l1214 062F  
                l1206 05D2                  l1150 03A5                  l1142 037C                  l1134 0352  
                l1126 032C                  l1118 0302                  l1070 01C5                  l1223 07DB  
                l1231 07A1                  l1215 0623                  l1207 0593                  l1151 039A  
                l1143 0370                  l1135 0346                  l1127 0320                  l1119 02F6  
                l1071 01BB                  l1232 07CA                  l1224 06FF                  l1216 0623  
                l1208 0593                  l1160 041F                  l1152 039A                  l1144 0370  
                l1136 0346                  l1128 0320                  l1080 01DB                  l1072 01BB  
                l1049 0FC3                  l1233 07FB                  l1225 06D5                  l1217 0628  
                l1209 0598                  l1161 0424                  l1153 039F                  l1145 0375  
                l1137 034B                  l1129 0325                  l1081 01E0                  l1073 01C0  
                l1065 0151                  l3001 00C3                  l1234 07FC                  l1226 06FE  
                l1218 0681                  l1170 0468                  l1162 043E                  l1154 03FE  
                l1146 038F                  l1138 0369                  l1090 0219                  l1082 01F9  
                l1074 01D5                  l1066 019C                  l1235 07FD                  l1227 0765  
                l1219 0650                  l1171 045C                  l1163 0432                  l1155 03CD  
                l1147 0383                  l1139 035D                  l1091 020F                  l1083 01EF  
                l1075 01CB                  l1067 016B                  l3011 00E5                  l3003 00C7  
                l1236 07FD                  l1228 073B                  l1180 0482                  l1172 045C  
                l1164 0432                  l1156 03F8                  l1148 0383                  l1092 020F  
                l1084 01EF                  l1076 01CB                  l1068 0196                  l1229 0764  
                l1181 0487                  l1173 0461                  l1165 0437                  l1157 04EA  
                l1149 0388                  l1069 0272                  l1093 0214                  l3101 0219  
                l1085 01F4                  l1077 01D0                  l3021 0142                  l3013 00FB  
                l3005 00CA                  l1190 04CB                  l1182 04A5                  l1174 047B  
                l1166 0451                  l1158 042B                  l1094 022D                  l1086 0209  
                l1078 01E5                  l1191 04BF                  l1183 0499                  l1175 046F  
                l1167 0445                  l1159 041F                  l3111 0222                  l1095 0223  
                l3103 021A                  l1087 01FF                  l1079 01DB                  l3031 015A  
                l3023 0144                  l3015 0111                  l3007 00CB                  l1192 04BF  
                l1184 0499                  l1176 046F                  l1168 0445                  l1096 0223  
                l1088 01FF                  l1193 04C4                  l1185 049E                  l1177 0474  
                l1169 044A                  l3201 031A                  l3121 023D                  l1097 0228  
                l3113 0228                  l3105 021B                  l1089 0204                  l3041 0180  
                l3033 015C                  l3025 0146                  l3017 0127                  l3009 00CF  
                l1194 04E1                  l1186 04B8                  l1178 048E                  l1098 023D  
                l1195 04D6                  l1187 04AC                  l1179 0482                  l3211 0338  
                l3203 031F                  l3131 024F                  l3123 0242                  l1099 0233  
                l3115 022D                  l3107 021C                  l3051 01B2                  l3043 0188  
                l3035 016A                  l3027 014B                  l3019 013C                  l1196 04D6  
                l1188 04AC                  l1197 04DB                  l1189 04B1                  l3301 0444  
                l3221 0354                  l3213 033F                  l3205 0325                  l3141 0262  
                l3133 0250                  l3125 0248                  l3117 0232                  l3109 021D  
                l3061 01C0                  l3053 01B3                  l3045 0196                  l3037 016B  
                l3029 0151                  l1198 053A                  l1199 0509                  l3311 0455  
                l3303 044A                  l3231 0362                  l3223 0355                  l3215 0345  
                l3207 032C                  l3151 0282                  l3143 0268                  l3135 0251  
                l3127 024D                  l3119 0238                  l3071 01DA                  l3063 01C5  
                l3055 01B4                  l3047 01A3                  l3039 0174                  l3401 058C  
                l3321 046E                  l3313 0456                  l3305 0451                  l3241 0382  
                l3233 0369                  l3225 0356                  l3217 034B                  l3209 0332  
                l3161 02AE                  l3153 0290                  l3137 0256                  l3129 024E  
                l3081 01E8                  l3073 01E0                  l3065 01CA                  l3057 01B5  
                l3049 01AF                  l3145 0272                  l3411 05C9                  l3403 0592  
                l3331 048E                  l3323 0474                  l3315 045B                  l3307 0453  
                l3251 0393                  l3243 0388                  l3235 036F                  l3227 0357  
                l3219 0352                  l3171 02DB                  l3163 02BC                  l3155 0291  
                l3147 0279                  l3139 025C                  l3091 01FE                  l3083 01E9  
                l3075 01E5                  l3067 01D0                  l3059 01BA                  l3501 0779  
                l3421 0603                  l3405 0598                  l3413 05D2                  l3341 0498  
                l3333 0490                  l3325 047B                  l3317 0461                  l3309 0454  
                l3261 03BA                  l3253 0394                  l3245 038F                  l3237 0375  
                l3229 035C                  l3181 02EF                  l3173 02DC                  l3165 02C9  
                l3157 029A                  l3149 027E                  l3093 0204                  l3085 01EE  
                l3077 01E6                  l3069 01D5                  l3511 07BC                  l3503 077E  
                l3431 061C                  l3423 060F                  l3415 05D8                  l3407 05B6  
                l3351 04B8                  l3343 049E                  l3335 0491                  l3327 0481  
                l3319 0468                  l3271 03E2                  l3263 03BE                  l3255 0399  
                l3247 0391                  l3239 037C                  l3191 030E                  l3183 02F5  
                l3175 02DD                  l3167 02D7                  l3159 02A6                  l3095 0209  
                l3087 01F4                  l3079 01E7                  l3521 07E8                  l3513 07BF  
                l3505 0784                  l3441 063D                  l3433 061D                  l3417 05DE  
                l3425 0618                  l3409 05BD                  l3361 04CE                  l3353 04BE  
                l3345 04A5                  l3337 0492                  l3329 0487                  l3281 0416  
                l3273 03EA                  l3265 03CC                  l3257 039F                  l3249 0392  
                l3193 0315                  l3185 02FB                  l3177 02E2                  l3169 02DA  
                l3097 020E                  l3089 01F9                  l3531 07F7                  l3523 07EC  
                l3515 07C3                  l3507 079D                  l3451 0665                  l3443 0641  
                l3435 0622                  l3427 061A                  l3419 05FC                  l3371 04F1  
                l3363 04CF                  l3355 04C4                  l3347 04AB                  l3339 0493  
                l3291 0424                  l3283 0417                  l3275 03F8                  l3267 03CD  
                l3259 03B5                  l3195 0317                  l3187 0302                  l3179 02E8  
                l3099 0214                  l3533 07F8                  l3525 07F1                  l3509 07A1  
                l3517 07CB                  l3461 0698                  l3453 066D                  l3445 064F  
                l3437 0628                  l3429 061B                  l3381 0512                  l3373 04F6  
                l3365 04D0                  l3357 04CB                  l3349 04B1                  l3293 042B  
                l3285 0418                  l3277 0405                  l3269 03D6                  l3197 0318  
                l3189 0308                  l3527 07F5                  l3471 06D1                  l3519 07DB  
                l3463 0699                  l3455 067B                  l3447 0650                  l3439 0638  
                l3391 054C                  l3383 051E                  l3375 04FA                  l3367 04D5  
                l3359 04CD                  l3295 0431                  l3287 0419                  l3279 0413  
                l3199 0319                  l3529 07F6                  l3473 06D5                  l3465 06AD  
                l3481 06FF                  l3457 0688                  l3449 0659                  l3393 0552  
                l3385 0526                  l3377 0508                  l3369 04DB                  l3297 0437  
                l3289 041E                  l3491 073B                  l3483 0713                  l3475 06F0  
                l3467 06B2                  l3459 068A                  l3395 0570                  l3387 0534  
                l3379 0509                  l3299 043E                  l3493 0756                  l3485 0718  
                l3477 06F3                  l3469 06B8                  l3397 0577                  l3389 0541  
                l3495 0759                  l3487 071E                  l3479 06F7                  l3399 0583  
                l2953 0FD5                  l2961 0007                  l3497 075D                  l3489 0737  
                l2955 0FDB                  l2963 0FE7                  l2971 0F8A                  l3499 0765  
                l2957 0FE4                  l2965 0FEA                  l2973 0F8C                  l2981 0FAB  
                l2959 0005                  l2967 0FF3                  l2975 0F92                  l2983 0FAF  
                l2991 0FBE                  l2969 0F86                  l2977 0F96                  l2985 0FB1  
                l2993 0F9E                  l2979 0F98                  l2987 0FB8                  l2995 0FA2  
                l2989 0FBC                  l2997 0FA4                  l2999 00AE           main@control 00CF  
                u4000 0486                  u4001 0485                  u4010 0497                  u4011 0496  
                u3300 0FDB                  u4100 0507                  u4020 049D                  u3301 0FDA  
                u4101 0506                  u4021 049C                  u3310 0017                  u4110 0533  
                u4030 04AA                  u3311 0016                  u4111 0532                  u4031 04A9  
                u4200 0627                  u4120 0541                  u4040 04B0                  u3400 01A3  
                u3320 00D7                  u4201 0626                  u4121 0540                  u4105 0503  
                u4041 04AF                  u3401 01A2                  u4210 0638                  u4130 054B  
                u4050 04BD                  u3410 01B9                  u3330 00ED                  u3315 0013  
                u4211 0637                  u4131 054A                  u4115 052F                  u4051 04BC  
                u3411 01B8                  u4220 064E                  u4140 0551                  u4060 04C3  
                u3500 0203                  u3420 01BF                  u3340 0103                  u4221 064D  
                u4141 0550                  u4061 04C2                  u3501 0202                  u3421 01BE  
                u4310 06F0                  u4230 067A                  u4150 0591                  u4070 04D4  
                u3510 020D                  u3430 01C9                  u3350 0119                  u4311 06EF  
                u4231 0679                  u4151 0590                  u4071 04D3                  u3511 020C  
                u3431 01C8                  u4320 0713                  u4240 0688                  u4160 0597  
                u4080 04DA                  u3600 025B                  u3520 0213                  u3440 01CF  
                u3360 012F                  u4321 0712                  u4305 06DD                  u4241 0687  
                u4225 064A                  u4161 0596                  u4081 04D9                  u3601 025A  
                u3521 0212                  u3441 01CE                  u4410 079D                  u4330 071E  
                u4250 0697                  u4170 05D7                  u4090 04F1                  u3610 0279  
                u3530 0221                  u3450 01D9                  u3370 015A                  u4411 079C  
                u4331 071D                  u4315 06EC                  u4251 0696                  u4235 0676  
                u4171 05D6                  u4091 04F0                  u3611 0278                  u3531 0220  
                u3451 01D8                  u3371 0159                  u4260 06AD                  u4180 05DD  
                u3700 030D                  u3620 028F                  u3540 0227                  u3460 01DF  
                u3380 0169                  u4405 078A                  u4261 06AC                  u4181 05DC  
                u3701 030C                  u3621 028E                  u3541 0226                  u3461 01DE  
                u3381 0168                  u4430 07BC                  u4350 0737                  u4270 06B8  
                u4190 0621                  u3710 031E                  u3630 02BB                  u3550 0231  
                u3470 01ED                  u3390 0195                  u4431 07BB                  u4415 0799  
                u4351 0736                  u4271 06B7                  u4255 0693                  u4191 0620  
                u3711 031D                  u3631 02BA                  u3551 0230                  u3471 01EC  
                u3391 0194                  u4440 07DA                  u3800 0374                  u3720 0324  
                u3640 02C9                  u3560 0237                  u3480 01F3                  u4441 07D9  
                u4425 07A9                  u4345 0724                  u3801 0373                  u3721 0323  
                u3641 02C8                  u3625 028B                  u3561 0236                  u3481 01F2  
                u3385 0165                  u4450 07E8                  u4370 0756                  u4290 06D1  
                u3810 0381                  u3730 0331                  u3650 02E1                  u3570 0241  
                u3490 01FD                  u4451 07E7                  u4435 07B8                  u4371 0755  
                u4355 0733                  u4291 06D0                  u3811 0380                  u3731 0330  
                u3651 02E0                  u3635 02B7                  u3571 0240                  u3491 01FC  
                u3395 0191                  u4380 0779                  u3900 0423                  u3820 0387  
                u3740 0337                  u3660 02E7                  u3580 0247                  u4445 07D6  
                u4381 0778                  u4365 0743                  u4285 06BE                  u3901 0422  
                u3821 0386                  u3741 0336                  u3661 02E6                  u3581 0246  
                u4390 0784                  u3910 0430                  u3830 0398                  u3750 0344  
                u3670 02F4                  u3590 0255                  u4391 0783                  u4375 0752  
                u4295 06CD                  u3911 042F                  u3831 0397                  u3751 0343  
                u3671 02F3                  u3591 0254                  u3920 0436                  u3840 039E  
                u3760 034A                  u3680 02FA                  u3921 0435                  u3841 039D  
                u3761 0349                  u3681 02F9                  u3930 0443                  u3850 03B5  
                u3770 035B                  u3690 0307                  u3931 0442                  u3851 03B4  
                u3771 035A                  u3691 0306                  u3940 0449                  u3860 03CB  
                u3780 0361                  u3941 0448                  u3861 03CA                  u3781 0360  
                u3950 045A                  u3870 03F7                  u3790 036E                  u3951 0459  
                u3871 03F6                  u3791 036D                  u3960 0460                  u3880 0405  
                u3961 045F                  u3881 0404                  u3865 03C7                  u3970 046D  
                u3890 041D                  u3971 046C                  u3891 041C                  u3875 03F3  
                u3980 0473                  u3981 0472                  u3990 0480                  u3991 047F  
         display@data 0072           main@pattern 00A0                  _main 00AE                  btemp 007E  
                _type 0F92           main@process 00B4                  start 0000                 ?_main 0070  
               _ANSEL 0188                 ?_type 0070                 _T1CON 0010       __end_of_address 0FB7  
               _PORTA 0005                 _PORTB 0006                 _PORTC 0007                 _PORTD 0008  
               _TRISA 0085                 _TRISB 0086                 _TRISC 0087                 _TRISD 0088  
     __end_of_display 0FC4                 _delay 0005                 _clear 0F9E                 _count 00DF  
               _pulse 0FE7                 main@i 00D3                 main@j 0077                 main@k 00D1  
               pclath 000A                 status 0003                 wtemp0 007E          __end_of_main 0800  
        __end_of_type 0F9E                ??_main 0073                ??_type 0072                ?_delay 0070  
              ?_clear 0070                ?_pulse 0070                _ANSELH 0189                _TMR1IF 0060  
           ??_address 0072                _timer1 0FD5             ??_display 0072        __pcstackCOMMON 0070  
        __pidataBANK1 0F7C          __pidataBANK2 0019          __pidataBANK3 0072         __end_of_delay 0019  
       __end_of_clear 0FAA         __end_of_pulse 1000            __end_of_on 0F92               ??_delay 0072  
             ??_clear 0072               ??_pulse 0072            __pbssBANK1 00DF            __pmaintext 00AE  
             ?_timer1 0070               _address 0FAA       __size_of_timer1 0012               _display 0FB7  
end_of_initialization 006E               init_ram 0FC8            main@patval 00C4            main@second 0048  
      __end_of_timer1 0FE7   start_initialization 0041           __pdataBANK1 00D5           __pdataBANK2 0110  
         __pdataBANK3 0190              ??_timer1 0070         __pcstackBANK0 0020         __pcstackBANK1 00A0  
           __ptext241 0F9E             __ptext242 0FB7             __ptext243 0FAA             __ptext244 0F92  
           __ptext245 0F86             __ptext246 0FE7             __ptext247 0005             __ptext248 0FD5  
           __ptext249 0000              ?_address 0070              ?_display 0070        __size_of_delay 0014  
      __size_of_clear 000C        __size_of_pulse 0019           __size_of_on 000C             main@F1620 00D5  
           main@F1612 0110             main@F1614 0190             main@F1616 01A4             main@F1618 01B8  
         address@data 0072             main@first 0020             main@third 005C             init_fetch 0FC4  
    __size_of_address 000D      __size_of_display 000D         __size_of_main 0752         __size_of_type 000C  
            delay@del 0070              main@arr1 0079              main@arr2 00CD              main@arr3 00CE  
            main@val1 00BE              main@val2 00C0              main@val3 00C2              main@patt 00CA  
