opt subtitle "HI-TECH Software Omniscient Code Generator (Lite mode) build 7503"

opt pagewidth 120

	opt lm

	processor	16F887
clrc	macro
	bcf	3,0
	endm
clrz	macro
	bcf	3,2
	endm
setc	macro
	bsf	3,0
	endm
setz	macro
	bsf	3,2
	endm
skipc	macro
	btfss	3,0
	endm
skipz	macro
	btfss	3,2
	endm
skipnc	macro
	btfsc	3,0
	endm
skipnz	macro
	btfsc	3,2
	endm
indf	equ	0
indf0	equ	0
pc	equ	2
pcl	equ	2
status	equ	3
fsr	equ	4
fsr0	equ	4
c	equ	1
z	equ	0
pclath	equ	10
	FNROOT	_main
	global	_PORTA
psect	maintext,global,class=CODE,delta=2
global __pmaintext
__pmaintext:
_PORTA	set	5
	global	_PORTB
_PORTB	set	6
	global	_RA0
_RA0	set	40
	global	_RA1
_RA1	set	41
	global	_RB0
_RB0	set	48
	global	_RB1
_RB1	set	49
	global	_RB2
_RB2	set	50
	global	_TRISA
_TRISA	set	133
	global	_TRISB
_TRISB	set	134
	global	_ANSEL
_ANSEL	set	392
	global	_ANSELH
_ANSELH	set	393
	file	"interlock.as"
	line	#
psect cinit,class=CODE,delta=2
global start_initialization
start_initialization:

psect cinit,class=CODE,delta=2
global end_of_initialization

;End of C runtime variable initialization code

end_of_initialization:
clrf status
ljmp _main	;jump to C main() function
psect	cstackCOMMON,class=COMMON,space=1
global __pcstackCOMMON
__pcstackCOMMON:
	global	?_main
?_main:	; 0 bytes @ 0x0
	global	??_main
??_main:	; 0 bytes @ 0x0
;;Data sizes: Strings 0, constant 0, data 0, bss 0, persistent 0 stack 0
;;Auto spaces:   Size  Autos    Used
;; COMMON          14      0       0
;; BANK0           80      0       0
;; BANK1           80      0       0
;; BANK3           96      0       0
;; BANK2           96      0       0

;;
;; Pointer list with targets:



;;
;; Critical Paths under _main in COMMON
;;
;;   None.
;;
;; Critical Paths under _main in BANK0
;;
;;   None.
;;
;; Critical Paths under _main in BANK1
;;
;;   None.
;;
;; Critical Paths under _main in BANK3
;;
;;   None.
;;
;; Critical Paths under _main in BANK2
;;
;;   None.

;;
;;Main: autosize = 0, tempsize = 0, incstack = 0, save=0
;;

;;
;;Call Graph Tables:
;;
;; ---------------------------------------------------------------------------------
;; (Depth) Function   	        Calls       Base Space   Used Autos Params    Refs
;; ---------------------------------------------------------------------------------
;; (0) _main                                                 0     0      0       0
;; ---------------------------------------------------------------------------------
;; Estimated maximum stack depth 0
;; ---------------------------------------------------------------------------------

;; Call Graph Graphs:

;; _main (ROOT)
;;

;; Address spaces:

;;Name               Size   Autos  Total    Cost      Usage
;;BITCOMMON            E      0       0       0        0.0%
;;EEDATA             100      0       0       0        0.0%
;;NULL                 0      0       0       0        0.0%
;;CODE                 0      0       0       0        0.0%
;;COMMON               E      0       0       1        0.0%
;;BITSFR0              0      0       0       1        0.0%
;;SFR0                 0      0       0       1        0.0%
;;BITSFR1              0      0       0       2        0.0%
;;SFR1                 0      0       0       2        0.0%
;;STACK                0      0       0       2        0.0%
;;ABS                  0      0       0       3        0.0%
;;BITBANK0            50      0       0       4        0.0%
;;BITSFR3              0      0       0       4        0.0%
;;SFR3                 0      0       0       4        0.0%
;;BANK0               50      0       0       5        0.0%
;;BITSFR2              0      0       0       5        0.0%
;;SFR2                 0      0       0       5        0.0%
;;BITBANK1            50      0       0       6        0.0%
;;BANK1               50      0       0       7        0.0%
;;BITBANK3            60      0       0       8        0.0%
;;BANK3               60      0       0       9        0.0%
;;BITBANK2            60      0       0      10        0.0%
;;BANK2               60      0       0      11        0.0%
;;DATA                 0      0       0      12        0.0%

	global	_main
psect	maintext

;; *************** function _main *****************
;; Defined at:
;;		line 3 in file "E:\KTU\Softwares\mplab\Interlock\interlock.c"
;; Parameters:    Size  Location     Type
;;		None
;; Auto vars:     Size  Location     Type
;;		None
;; Return value:  Size  Location     Type
;;		None               void
;; Registers used:
;;		wreg, status,2
;; Tracked objects:
;;		On entry : 17F/0
;;		On exit  : 0/0
;;		Unchanged: 0/0
;; Data sizes:     COMMON   BANK0   BANK1   BANK3   BANK2
;;      Params:         0       0       0       0       0
;;      Locals:         0       0       0       0       0
;;      Temps:          0       0       0       0       0
;;      Totals:         0       0       0       0       0
;;Total ram usage:        0 bytes
;; This function calls:
;;		Nothing
;; This function is called by:
;;		Startup code after reset
;; This function uses a non-reentrant model
;;
psect	maintext
	file	"E:\KTU\Softwares\mplab\Interlock\interlock.c"
	line	3
	global	__size_of_main
	__size_of_main	equ	__end_of_main-_main
	
_main:	
	opt	stack 8
; Regs used in _main: [wreg+status,2]
	line	4
	
l1400:	
;interlock.c: 4: PORTA=0X00;
	bcf	status, 5	;RP0=0, select bank0
	bcf	status, 6	;RP1=0, select bank0
	clrf	(5)	;volatile
	line	5
;interlock.c: 5: PORTB=0X00;
	clrf	(6)	;volatile
	line	6
;interlock.c: 6: TRISA=0X00;
	bsf	status, 5	;RP0=1, select bank1
	bcf	status, 6	;RP1=0, select bank1
	clrf	(133)^080h	;volatile
	line	7
;interlock.c: 7: TRISB=0X00;
	clrf	(134)^080h	;volatile
	line	8
;interlock.c: 8: ANSEL=0X00;
	bsf	status, 5	;RP0=1, select bank3
	bsf	status, 6	;RP1=1, select bank3
	clrf	(392)^0180h	;volatile
	line	9
;interlock.c: 9: ANSELH=0X00;
	clrf	(393)^0180h	;volatile
	goto	l1402
	line	10
;interlock.c: 10: while(1)
	
l1025:	
	line	12
	
l1402:	
;interlock.c: 11: {
;interlock.c: 12: TRISB=0X01;
	movlw	(01h)
	bsf	status, 5	;RP0=1, select bank1
	bcf	status, 6	;RP1=0, select bank1
	movwf	(134)^080h	;volatile
	line	13
	
l1404:	
;interlock.c: 13: if(RB0==1&&RB1==0)
	bcf	status, 5	;RP0=0, select bank0
	bcf	status, 6	;RP1=0, select bank0
	btfss	(48/8),(48)&7
	goto	u11
	goto	u10
u11:
	goto	l1410
u10:
	
l1406:	
	btfsc	(49/8),(49)&7
	goto	u21
	goto	u20
u21:
	goto	l1410
u20:
	line	15
	
l1408:	
;interlock.c: 14: {
;interlock.c: 15: RA0=1;
	bsf	(40/8),(40)&7
	line	16
;interlock.c: 16: RA1=0;
	bcf	(41/8),(41)&7
	line	17
;interlock.c: 17: RB1=0;
	bcf	(49/8),(49)&7
	goto	l1410
	line	18
	
l1026:	
	line	19
	
l1410:	
;interlock.c: 18: }
;interlock.c: 19: TRISB=0X02;
	movlw	(02h)
	bsf	status, 5	;RP0=1, select bank1
	bcf	status, 6	;RP1=0, select bank1
	movwf	(134)^080h	;volatile
	line	20
	
l1412:	
;interlock.c: 20: if(RB1==1&&RB0==0)
	bcf	status, 5	;RP0=0, select bank0
	bcf	status, 6	;RP1=0, select bank0
	btfss	(49/8),(49)&7
	goto	u31
	goto	u30
u31:
	goto	l1418
u30:
	
l1414:	
	btfsc	(48/8),(48)&7
	goto	u41
	goto	u40
u41:
	goto	l1418
u40:
	line	22
	
l1416:	
;interlock.c: 21: {
;interlock.c: 22: RA1=1;
	bsf	(41/8),(41)&7
	line	23
;interlock.c: 23: RA0=0;
	bcf	(40/8),(40)&7
	line	24
;interlock.c: 24: RB0=0;
	bcf	(48/8),(48)&7
	goto	l1418
	line	25
	
l1027:	
	line	26
	
l1418:	
;interlock.c: 25: }
;interlock.c: 26: TRISB=0X04;
	movlw	(04h)
	bsf	status, 5	;RP0=1, select bank1
	bcf	status, 6	;RP1=0, select bank1
	movwf	(134)^080h	;volatile
	line	27
	
l1420:	
;interlock.c: 27: if(RB2==1)
	bcf	status, 5	;RP0=0, select bank0
	bcf	status, 6	;RP1=0, select bank0
	btfss	(50/8),(50)&7
	goto	u51
	goto	u50
u51:
	goto	l1402
u50:
	line	29
	
l1422:	
;interlock.c: 28: {
;interlock.c: 29: RA0=0;
	bcf	(40/8),(40)&7
	line	30
;interlock.c: 30: RA1=0;
	bcf	(41/8),(41)&7
	line	31
;interlock.c: 31: RB0=0;
	bcf	(48/8),(48)&7
	line	32
;interlock.c: 32: RB1=0;
	bcf	(49/8),(49)&7
	goto	l1402
	line	33
	
l1028:	
	goto	l1402
	line	34
	
l1029:	
	line	10
	goto	l1402
	
l1030:	
	line	35
	
l1031:	
	global	start
	ljmp	start
	opt stack 0
GLOBAL	__end_of_main
	__end_of_main:
;; =============== function _main ends ============

	signat	_main,88
psect	maintext
	global	btemp
	btemp set 07Eh

	DABS	1,126,2	;btemp
	global	wtemp0
	wtemp0 set btemp
	end
