

HI-TECH Software PIC LITE Macro Assembler V9.81 build 7503 
                                                                                               Thu Jul 01 12:23:40 2021

HI-TECH Software Omniscient Code Generator (Lite mode) build 7503
     1  0000                     opt subtitle "HI-TECH Software Omniscient Code Generator (Lite mode) build 7503"
     2                           
     3                           opt pagewidth 120
     4                           
     5                           	opt lm
     6                           
     7                           	processor	16F887
     8                           clrc	macro
     9                           	bcf	3,0
    10  0000                     	endm
    11                           clrz	macro
    12                           	bcf	3,2
    13  0000                     	endm
    14                           setc	macro
    15                           	bsf	3,0
    16  0000                     	endm
    17                           setz	macro
    18                           	bsf	3,2
    19  0000                     	endm
    20                           skipc	macro
    21                           	btfss	3,0
    22  0000                     	endm
    23                           skipz	macro
    24                           	btfss	3,2
    25  0000                     	endm
    26                           skipnc	macro
    27                           	btfsc	3,0
    28  0000                     	endm
    29                           skipnz	macro
    30                           	btfsc	3,2
    31  0000                     	endm
    32  0000                     indf	equ	0
    33  0000                     indf0	equ	0
    34  0002                     pc	equ	2
    35  0002                     pcl	equ	2
    36  0003                     status	equ	3
    37  0004                     fsr	equ	4
    38  0004                     fsr0	equ	4
    39  0001                     c	equ	1
    40  0000                     z	equ	0
    41  000A                     pclath	equ	10
    42                           	FNCALL	_main,_master
    43                           	FNCALL	_main,_delay
    44                           	FNCALL	_master,_delay
    45                           	FNROOT	_main
    46                           	global	main@F1605
    47                           psect	idataBANK0,class=CODE,space=0,delta=2
    48                           global __pidataBANK0
    49  0724                     __pidataBANK0:
    50                           	file	"E:\KTU\Softwares\MP lab\SPI\Multislave\master.c"
    51                           	line	26
    52                           
    53                           ;initializer for main@F1605
    54  0724  3473               	retlw	073h
    55  0725  3461               	retlw	061h
    56  0726  3462               	retlw	062h
    57  0727  3469               	retlw	069h
    58  0728  346E               	retlw	06Eh
    59  0729  3400               	retlw	0
    60  072A  3400               	retlw	0
    61  072B  3400               	retlw	0
    62  072C  3400               	retlw	0
    63  072D  3400               	retlw	0
    64                           	global	_PORTA
    65  0005                     _PORTA	set	5
    66                           	global	_PORTC
    67  0007                     _PORTC	set	7
    68                           	global	_SSPBUF
    69  0013                     _SSPBUF	set	19
    70                           	global	_SSPCON
    71  0014                     _SSPCON	set	20
    72                           	global	_RA0
    73  0028                     _RA0	set	40
    74                           	global	_RA1
    75  0029                     _RA1	set	41
    76                           	global	_SSPIF
    77  0063                     _SSPIF	set	99
    78                           	global	_SSPSTAT
    79  0094                     _SSPSTAT	set	148
    80                           	global	_TRISA
    81  0085                     _TRISA	set	133
    82                           	global	_TRISC
    83  0087                     _TRISC	set	135
    84                           	global	_ANSEL
    85  0188                     _ANSEL	set	392
    86                           	global	_ANSELH
    87  0189                     _ANSELH	set	393
    88                           	file	"master.as"
    89                           	line	#
    90                           psect cinit,class=CODE,delta=2
    91                           global start_initialization
    92  073F                     start_initialization:
    93                           
    94                           psect	dataBANK0,class=BANK0,space=1
    95                           global __pdataBANK0
    96  0020                     __pdataBANK0:
    97                           	file	"E:\KTU\Softwares\MP lab\SPI\Multislave\master.c"
    98  0020                     main@F1605:
    99  0020                            ds      10
   100                           
   101                           global btemp
   102                           psect inittext,class=CODE,delta=2
   103                           global init_fetch,btemp
   104                           ;	Called with low address in FSR and high address in W
   105  072E                     init_fetch:
   106  072E  087E               	movf btemp,w
   107  072F  008A               	movwf pclath
   108  0730  087F               	movf btemp+1,w
   109  0731  0082               	movwf pc
   110                           global init_ram
   111                           ;Called with:
   112                           ;	high address of idata address in btemp 
   113                           ;	low address of idata address in btemp+1 
   114                           ;	low address of data in FSR
   115                           ;	high address + 1 of data in btemp-1
   116  0732                     init_ram:
   117  0732  272E  120A  118A   	fcall init_fetch
   118  0735  0080               	movwf indf,f
   119  0736  0A84               	incf fsr,f
   120  0737  0804               	movf fsr,w
   121  0738  067D               	xorwf btemp-1,w
   122  0739  1903               	btfsc status,2
   123  073A  3400               	retlw 0
   124  073B  0AFF               	incf btemp+1,f
   125  073C  1903               	btfsc status,2
   126  073D  0AFE               	incf btemp,f
   127  073E  2F32               	goto init_ram
   128                           ; Initialize objects allocated to BANK0
   129                           psect cinit,class=CODE,delta=2
   130                           global init_ram, __pidataBANK0
   131  073F  1383               	bcf	status, 7	;select IRP bank0
   132  0740  302A               	movlw low(__pdataBANK0+10)
   133  0741  00FD               	movwf btemp-1,f
   134  0742  3007               	movlw high(__pidataBANK0)
   135  0743  00FE               	movwf btemp,f
   136  0744  3024               	movlw low(__pidataBANK0)
   137  0745  00FF               	movwf btemp+1,f
   138  0746  3020               	movlw low(__pdataBANK0)
   139  0747  0084               	movwf fsr,f
   140  0748  120A  118A  2732   	fcall init_ram
              120A  118A         
   141                           psect cinit,class=CODE,delta=2
   142                           global end_of_initialization
   143                           
   144                           ;End of C runtime variable initialization code
   145                           
   146  074D                     end_of_initialization:
   147  074D  0183               clrf status
   148  074E  120A  118A  2FA8   ljmp _main	;jump to C main() function
   149                           psect	cstackCOMMON,class=COMMON,space=1
   150                           global __pcstackCOMMON
   151  0070                     __pcstackCOMMON:
   152                           	global	?_delay
   153  0070                     ?_delay:	; 0 bytes @ 0x0
   154                           	global	?_master
   155  0070                     ?_master:	; 0 bytes @ 0x0
   156                           	global	?_main
   157  0070                     ?_main:	; 0 bytes @ 0x0
   158                           	global	delay@temp
   159  0070                     delay@temp:	; 2 bytes @ 0x0
   160  0070                     	ds	2
   161                           	global	??_delay
   162  0072                     ??_delay:	; 0 bytes @ 0x2
   163                           	global	??_master
   164  0072                     ??_master:	; 0 bytes @ 0x2
   165  0072                     	ds	1
   166                           	global	master@data
   167  0073                     master@data:	; 1 bytes @ 0x3
   168  0073                     	ds	1
   169                           	global	master@i
   170  0074                     master@i:	; 2 bytes @ 0x4
   171  0074                     	ds	2
   172                           	global	??_main
   173  0076                     ??_main:	; 0 bytes @ 0x6
   174  0076                     	ds	4
   175                           psect	cstackBANK0,class=BANK0,space=1
   176                           global __pcstackBANK0
   177  002A                     __pcstackBANK0:
   178                           	global	main@data
   179  002A                     main@data:	; 10 bytes @ 0x0
   180  002A                     	ds	10
   181 ;;Data sizes: Strings 0, constant 0, data 10, bss 0, persistent 0 stack 0
   182 ;;Auto spaces:   Size  Autos    Used
   183 ;; COMMON          14     10      10
   184 ;; BANK0           80     10      20
   185 ;; BANK1           80      0       0
   186 ;; BANK3           96      0       0
   187 ;; BANK2           96      0       0
   188                           
   189 ;;
   190 ;; Pointer list with targets:
   191                           
   192 ;; master@data	PTR unsigned char  size(1) Largest target is 10
   193 ;;		 -> main@data(BANK0[10]), 
   194 ;;
   195                           
   196                           
   197 ;;
   198 ;; Critical Paths under _main in COMMON
   199 ;;
   200 ;;   _main->_master
   201 ;;   _master->_delay
   202 ;;
   203 ;; Critical Paths under _main in BANK0
   204 ;;
   205 ;;   None.
   206 ;;
   207 ;; Critical Paths under _main in BANK1
   208 ;;
   209 ;;   None.
   210 ;;
   211 ;; Critical Paths under _main in BANK3
   212 ;;
   213 ;;   None.
   214 ;;
   215 ;; Critical Paths under _main in BANK2
   216 ;;
   217 ;;   None.
   218                           
   219 ;;
   220 ;;Main: autosize = 0, tempsize = 4, incstack = 0, save=0
   221 ;;
   222                           
   223 ;;
   224 ;;Call Graph Tables:
   225 ;;
   226 ;; ---------------------------------------------------------------------------------
   227 ;; (Depth) Function   	        Calls       Base Space   Used Autos Params    Refs
   228 ;; ---------------------------------------------------------------------------------
   229 ;; (0) _main                                                14    14      0     159
   230 ;;                                              6 COMMON     4     4      0
   231 ;;                                              0 BANK0     10    10      0
   232 ;;                             _master
   233 ;;                              _delay
   234 ;; ---------------------------------------------------------------------------------
   235 ;; (1) _master                                               4     4      0      91
   236 ;;                                              2 COMMON     4     4      0
   237 ;;                              _delay
   238 ;; ---------------------------------------------------------------------------------
   239 ;; (1) _delay                                                2     0      2      22
   240 ;;                                              0 COMMON     2     0      2
   241 ;; ---------------------------------------------------------------------------------
   242 ;; Estimated maximum stack depth 1
   243 ;; ---------------------------------------------------------------------------------
   244                           
   245 ;; Call Graph Graphs:
   246                           
   247 ;; _main (ROOT)
   248 ;;   _master
   249 ;;     _delay
   250 ;;   _delay
   251 ;;
   252                           
   253 ;; Address spaces:
   254                           
   255 ;;Name               Size   Autos  Total    Cost      Usage
   256 ;;BANK3               60      0       0       9        0.0%
   257 ;;BITBANK3            60      0       0       8        0.0%
   258 ;;SFR3                 0      0       0       4        0.0%
   259 ;;BITSFR3              0      0       0       4        0.0%
   260 ;;BANK2               60      0       0      11        0.0%
   261 ;;BITBANK2            60      0       0      10        0.0%
   262 ;;SFR2                 0      0       0       5        0.0%
   263 ;;BITSFR2              0      0       0       5        0.0%
   264 ;;SFR1                 0      0       0       2        0.0%
   265 ;;BITSFR1              0      0       0       2        0.0%
   266 ;;BANK1               50      0       0       7        0.0%
   267 ;;BITBANK1            50      0       0       6        0.0%
   268 ;;CODE                 0      0       0       0        0.0%
   269 ;;DATA                 0      0      20      12        0.0%
   270 ;;ABS                  0      0      1E       3        0.0%
   271 ;;NULL                 0      0       0       0        0.0%
   272 ;;STACK                0      0       2       2        0.0%
   273 ;;BANK0               50      A      14       5       25.0%
   274 ;;BITBANK0            50      0       0       4        0.0%
   275 ;;SFR0                 0      0       0       1        0.0%
   276 ;;BITSFR0              0      0       0       1        0.0%
   277 ;;COMMON               E      A       A       1       71.4%
   278 ;;BITCOMMON            E      0       0       0        0.0%
   279 ;;EEDATA             100      0       0       0        0.0%
   280                           
   281                           	global	_main
   282                           psect	maintext,global,class=CODE,delta=2
   283                           global __pmaintext
   284  07A8                     __pmaintext:
   285                           
   286 ;; *************** function _main *****************
   287 ;; Defined at:
   288 ;;		line 17 in file "E:\KTU\Softwares\MP lab\SPI\Multislave\master.c"
   289 ;; Parameters:    Size  Location     Type
   290 ;;		None
   291 ;; Auto vars:     Size  Location     Type
   292 ;;  data           10    0[BANK0 ] unsigned char [10]
   293 ;; Return value:  Size  Location     Type
   294 ;;		None               void
   295 ;; Registers used:
   296 ;;		wreg, fsr0l, fsr0h, status,2, status,0, btemp+1, pclath, cstack
   297 ;; Tracked objects:
   298 ;;		On entry : 17F/0
   299 ;;		On exit  : 0/0
   300 ;;		Unchanged: 0/0
   301 ;; Data sizes:     COMMON   BANK0   BANK1   BANK3   BANK2
   302 ;;      Params:         0       0       0       0       0
   303 ;;      Locals:         0      10       0       0       0
   304 ;;      Temps:          4       0       0       0       0
   305 ;;      Totals:         4      10       0       0       0
   306 ;;Total ram usage:       14 bytes
   307 ;; Hardware stack levels required when called:    2
   308 ;; This function calls:
   309 ;;		_master
   310 ;;		_delay
   311 ;; This function is called by:
   312 ;;		Startup code after reset
   313 ;; This function uses a non-reentrant model
   314 ;;
   315                           psect	maintext
   316                           	file	"E:\KTU\Softwares\MP lab\SPI\Multislave\master.c"
   317                           	line	17
   318                           	global	__size_of_main
   319  0058                     	__size_of_main	equ	__end_of_main-_main
   320                           	
   321  07A8                     _main:	
   322                           	opt	stack 6
   323                           ; Regs used in _main: [wreg-fsr0h+status,2+status,0+btemp+1+pclath+cstack]
   324                           	line	18
   325                           	
   326  07A8                     l2245:	
   327                           ;master.c: 18: PORTA=0X00;
   328  07A8  1283               	bcf	status, 5	;RP0=0, select bank0
   329  07A9  1303               	bcf	status, 6	;RP1=0, select bank0
   330  07AA  0185               	clrf	(5)	;volatile
   331                           	line	19
   332                           ;master.c: 19: TRISA=0X00;
   333  07AB  1683               	bsf	status, 5	;RP0=1, select bank1
   334  07AC  1303               	bcf	status, 6	;RP1=0, select bank1
   335  07AD  0185               	clrf	(133)^080h	;volatile
   336                           	line	20
   337                           ;master.c: 20: PORTC=0X00;
   338  07AE  1283               	bcf	status, 5	;RP0=0, select bank0
   339  07AF  1303               	bcf	status, 6	;RP1=0, select bank0
   340  07B0  0187               	clrf	(7)	;volatile
   341                           	line	21
   342                           ;master.c: 21: TRISC=0X00;
   343  07B1  1683               	bsf	status, 5	;RP0=1, select bank1
   344  07B2  1303               	bcf	status, 6	;RP1=0, select bank1
   345  07B3  0187               	clrf	(135)^080h	;volatile
   346                           	line	22
   347                           ;master.c: 22: ANSEL=0X00;
   348  07B4  1683               	bsf	status, 5	;RP0=1, select bank3
   349  07B5  1703               	bsf	status, 6	;RP1=1, select bank3
   350  07B6  0188               	clrf	(392)^0180h	;volatile
   351                           	line	23
   352                           ;master.c: 23: ANSELH=0X00;
   353  07B7  0189               	clrf	(393)^0180h	;volatile
   354                           	line	24
   355                           ;master.c: 24: SSPSTAT = 0x00;
   356  07B8  1683               	bsf	status, 5	;RP0=1, select bank1
   357  07B9  1303               	bcf	status, 6	;RP1=0, select bank1
   358  07BA  0194               	clrf	(148)^080h	;volatile
   359                           	line	25
   360                           	
   361  07BB                     l2247:	
   362                           ;master.c: 25: SSPCON = 0x20;
   363  07BB  3020               	movlw	(020h)
   364  07BC  1283               	bcf	status, 5	;RP0=0, select bank0
   365  07BD  1303               	bcf	status, 6	;RP1=0, select bank0
   366  07BE  0094               	movwf	(20)	;volatile
   367                           	line	26
   368                           	
   369  07BF                     l2249:	
   370                           ;master.c: 26: char data[10]="sabin";
   371  07BF  302A               	movlw	(main@data)&0ffh
   372  07C0  0084               	movwf	fsr0
   373  07C1  3020               	movlw	low(main@F1605)
   374  07C2  00F6               	movwf	(??_main+0)+0
   375  07C3  0804               	movf	fsr0,w
   376  07C4  00F7               	movwf	((??_main+0)+0+1)
   377  07C5  300A               	movlw	10
   378  07C6  00F8               	movwf	((??_main+0)+0+2)
   379  07C7                     u2230:
   380  07C7  0876               	movf	(??_main+0)+0,w
   381  07C8  0084               	movwf	fsr0
   382  07C9  1383               	bcf	status, 7	;select IRP bank0
   383                           	
   384  07CA  0800               	movf	indf,w
   385  07CB  00F9               	movwf	((??_main+0)+0+3)
   386  07CC  0AF6               	incf	(??_main+0)+0,f
   387  07CD  0877               	movf	((??_main+0)+0+1),w
   388  07CE  0084               	movwf	fsr0
   389                           	
   390  07CF  0879               	movf	((??_main+0)+0+3),w
   391  07D0  0080               	movwf	indf
   392  07D1  0AF7               	incf	((??_main+0)+0+1),f
   393  07D2  0BF8               	decfsz	((??_main+0)+0+2),f
   394  07D3  2FC7               	goto	u2230
   395  07D4  2FD5               	goto	l2251
   396                           	line	27
   397                           ;master.c: 27: while(1)
   398                           	
   399  07D5                     l1041:	
   400                           	line	29
   401                           	
   402  07D5                     l2251:	
   403                           ;master.c: 28: {
   404                           ;master.c: 29: RA0=0;
   405  07D5  1283               	bcf	status, 5	;RP0=0, select bank0
   406  07D6  1303               	bcf	status, 6	;RP1=0, select bank0
   407  07D7  1005               	bcf	(40/8),(40)&7
   408                           	line	30
   409                           	
   410  07D8                     l2253:	
   411                           ;master.c: 30: RA1=1;
   412  07D8  1485               	bsf	(41/8),(41)&7
   413                           	line	31
   414                           	
   415  07D9                     l2255:	
   416                           ;master.c: 31: master(&data);
   417  07D9  302A               	movlw	(main@data)&0ffh
   418  07DA  120A  118A  2765   	fcall	_master
              120A  118A         
   419                           	line	32
   420                           	
   421  07DF                     l2257:	
   422                           ;master.c: 32: delay(1000);
   423  07DF  30E8               	movlw	low(03E8h)
   424  07E0  00F0               	movwf	(?_delay)
   425  07E1  3003               	movlw	high(03E8h)
   426  07E2  00F1               	movwf	((?_delay))+1
   427  07E3  120A  118A  2751   	fcall	_delay
              120A  118A         
   428                           	line	33
   429                           	
   430  07E8                     l2259:	
   431                           ;master.c: 33: RA0=1;
   432  07E8  1283               	bcf	status, 5	;RP0=0, select bank0
   433  07E9  1303               	bcf	status, 6	;RP1=0, select bank0
   434  07EA  1405               	bsf	(40/8),(40)&7
   435                           	line	34
   436                           	
   437  07EB                     l2261:	
   438                           ;master.c: 34: RA1=0;
   439  07EB  1085               	bcf	(41/8),(41)&7
   440                           	line	35
   441                           	
   442  07EC                     l2263:	
   443                           ;master.c: 35: master(&data);
   444  07EC  302A               	movlw	(main@data)&0ffh
   445  07ED  120A  118A  2765   	fcall	_master
              120A  118A         
   446                           	line	36
   447                           	
   448  07F2                     l2265:	
   449                           ;master.c: 36: delay(1000);
   450  07F2  30E8               	movlw	low(03E8h)
   451  07F3  00F0               	movwf	(?_delay)
   452  07F4  3003               	movlw	high(03E8h)
   453  07F5  00F1               	movwf	((?_delay))+1
   454  07F6  120A  118A  2751   	fcall	_delay
              120A  118A         
   455  07FB  2FD5               	goto	l2251
   456                           	line	37
   457                           	
   458  07FC                     l1042:	
   459                           	line	27
   460  07FC  2FD5               	goto	l2251
   461                           	
   462  07FD                     l1043:	
   463                           	line	38
   464                           	
   465  07FD                     l1044:	
   466                           	global	start
   467  07FD  120A  118A  2800   	ljmp	start
   468                           	opt stack 0
   469                           GLOBAL	__end_of_main
   470  0800                     	__end_of_main:
   471 ;; =============== function _main ends ============
   472                           
   473                           	signat	_main,88
   474                           	global	_master
   475                           psect	text97,local,class=CODE,delta=2
   476                           global __ptext97
   477  0765                     __ptext97:
   478                           
   479 ;; *************** function _master *****************
   480 ;; Defined at:
   481 ;;		line 7 in file "E:\KTU\Softwares\MP lab\SPI\Multislave\master.c"
   482 ;; Parameters:    Size  Location     Type
   483 ;;  data            1    wreg     PTR unsigned char 
   484 ;;		 -> main@data(10), 
   485 ;; Auto vars:     Size  Location     Type
   486 ;;  data            1    3[COMMON] PTR unsigned char 
   487 ;;		 -> main@data(10), 
   488 ;;  i               2    4[COMMON] int 
   489 ;; Return value:  Size  Location     Type
   490 ;;		None               void
   491 ;; Registers used:
   492 ;;		wreg, fsr0l, fsr0h, status,2, status,0, btemp+1, pclath, cstack
   493 ;; Tracked objects:
   494 ;;		On entry : 0/0
   495 ;;		On exit  : 0/0
   496 ;;		Unchanged: 0/0
   497 ;; Data sizes:     COMMON   BANK0   BANK1   BANK3   BANK2
   498 ;;      Params:         0       0       0       0       0
   499 ;;      Locals:         3       0       0       0       0
   500 ;;      Temps:          1       0       0       0       0
   501 ;;      Totals:         4       0       0       0       0
   502 ;;Total ram usage:        4 bytes
   503 ;; Hardware stack levels used:    1
   504 ;; Hardware stack levels required when called:    1
   505 ;; This function calls:
   506 ;;		_delay
   507 ;; This function is called by:
   508 ;;		_main
   509 ;; This function uses a non-reentrant model
   510 ;;
   511                           psect	text97
   512                           	file	"E:\KTU\Softwares\MP lab\SPI\Multislave\master.c"
   513                           	line	7
   514                           	global	__size_of_master
   515  0043                     	__size_of_master	equ	__end_of_master-_master
   516                           	
   517  0765                     _master:	
   518                           	opt	stack 6
   519                           ; Regs used in _master: [wreg-fsr0h+status,2+status,0+btemp+1+pclath+cstack]
   520                           ;master@data stored from wreg
   521  0765  00F3               	movwf	(master@data)
   522                           	line	8
   523                           	
   524  0766                     l2229:	
   525                           ;master.c: 8: for(int i=0;i<5;i++)
   526  0766  01F4               	clrf	(master@i)
   527  0767  01F5               	clrf	(master@i+1)
   528                           	
   529  0768                     l2231:	
   530  0768  0875               	movf	(master@i+1),w
   531  0769  3A80               	xorlw	80h
   532  076A  00FF               	movwf	btemp+1
   533  076B  3080               	movlw	(high(05h))^80h
   534  076C  027F               	subwf	btemp+1,w
   535  076D  1D03               	skipz
   536  076E  2F71               	goto	u2205
   537  076F  3005               	movlw	low(05h)
   538  0770  0274               	subwf	(master@i),w
   539  0771                     u2205:
   540                           
   541  0771  1C03               	skipc
   542  0772  2F74               	goto	u2201
   543  0773  2F75               	goto	u2200
   544  0774                     u2201:
   545  0774  2F77               	goto	l2235
   546  0775                     u2200:
   547  0775  2FA7               	goto	l1036
   548                           	
   549  0776                     l2233:	
   550  0776  2FA7               	goto	l1036
   551                           	line	9
   552                           	
   553  0777                     l1031:	
   554                           	line	10
   555                           	
   556  0777                     l2235:	
   557                           ;master.c: 9: {
   558                           ;master.c: 10: SSPBUF =*data++ ;
   559  0777  0873               	movf	(master@data),w
   560  0778  0084               	movwf	fsr0
   561  0779  1383               	bcf	status, 7	;select IRP bank0
   562  077A  0800               	movf	indf,w
   563  077B  1283               	bcf	status, 5	;RP0=0, select bank0
   564  077C  1303               	bcf	status, 6	;RP1=0, select bank0
   565  077D  0093               	movwf	(19)	;volatile
   566                           	
   567  077E                     l2237:	
   568  077E  3001               	movlw	(01h)
   569  077F  00F2               	movwf	(??_master+0)+0
   570  0780  0872               	movf	(??_master+0)+0,w
   571  0781  07F3               	addwf	(master@data),f
   572                           	line	11
   573                           	
   574  0782                     l2239:	
   575                           ;master.c: 11: delay(10000);
   576  0782  3010               	movlw	low(02710h)
   577  0783  00F0               	movwf	(?_delay)
   578  0784  3027               	movlw	high(02710h)
   579  0785  00F1               	movwf	((?_delay))+1
   580  0786  120A  118A  2751   	fcall	_delay
              120A  118A         
   581                           	line	12
   582                           ;master.c: 12: while(SSPIF==0);
   583  078B  2F8C               	goto	l1033
   584                           	
   585  078C                     l1034:	
   586                           	
   587  078C                     l1033:	
   588  078C  1283               	bcf	status, 5	;RP0=0, select bank0
   589  078D  1303               	bcf	status, 6	;RP1=0, select bank0
   590  078E  1D8C               	btfss	(99/8),(99)&7
   591  078F  2F91               	goto	u2211
   592  0790  2F92               	goto	u2210
   593  0791                     u2211:
   594  0791  2F8C               	goto	l1033
   595  0792                     u2210:
   596                           	
   597  0792                     l1035:	
   598                           	line	13
   599                           ;master.c: 13: SSPIF=0;
   600  0792  118C               	bcf	(99/8),(99)&7
   601                           	line	8
   602                           	
   603  0793                     l2241:	
   604  0793  3001               	movlw	low(01h)
   605  0794  07F4               	addwf	(master@i),f
   606  0795  1803               	skipnc
   607  0796  0AF5               	incf	(master@i+1),f
   608  0797  3000               	movlw	high(01h)
   609  0798  07F5               	addwf	(master@i+1),f
   610                           	
   611  0799                     l2243:	
   612  0799  0875               	movf	(master@i+1),w
   613  079A  3A80               	xorlw	80h
   614  079B  00FF               	movwf	btemp+1
   615  079C  3080               	movlw	(high(05h))^80h
   616  079D  027F               	subwf	btemp+1,w
   617  079E  1D03               	skipz
   618  079F  2FA2               	goto	u2225
   619  07A0  3005               	movlw	low(05h)
   620  07A1  0274               	subwf	(master@i),w
   621  07A2                     u2225:
   622                           
   623  07A2  1C03               	skipc
   624  07A3  2FA5               	goto	u2221
   625  07A4  2FA6               	goto	u2220
   626  07A5                     u2221:
   627  07A5  2F77               	goto	l2235
   628  07A6                     u2220:
   629  07A6  2FA7               	goto	l1036
   630                           	
   631  07A7                     l1032:	
   632                           	line	15
   633                           	
   634  07A7                     l1036:	
   635  07A7  0008               	return
   636                           	opt stack 0
   637                           GLOBAL	__end_of_master
   638  07A8                     	__end_of_master:
   639 ;; =============== function _master ends ============
   640                           
   641                           	signat	_master,4216
   642                           	global	_delay
   643                           psect	text98,local,class=CODE,delta=2
   644                           global __ptext98
   645  0751                     __ptext98:
   646                           
   647 ;; *************** function _delay *****************
   648 ;; Defined at:
   649 ;;		line 3 in file "E:\KTU\Softwares\MP lab\SPI\Multislave\master.c"
   650 ;; Parameters:    Size  Location     Type
   651 ;;  temp            2    0[COMMON] int 
   652 ;; Auto vars:     Size  Location     Type
   653 ;;		None
   654 ;; Return value:  Size  Location     Type
   655 ;;		None               void
   656 ;; Registers used:
   657 ;;		wreg
   658 ;; Tracked objects:
   659 ;;		On entry : 0/0
   660 ;;		On exit  : 0/0
   661 ;;		Unchanged: 0/0
   662 ;; Data sizes:     COMMON   BANK0   BANK1   BANK3   BANK2
   663 ;;      Params:         2       0       0       0       0
   664 ;;      Locals:         0       0       0       0       0
   665 ;;      Temps:          0       0       0       0       0
   666 ;;      Totals:         2       0       0       0       0
   667 ;;Total ram usage:        2 bytes
   668 ;; Hardware stack levels used:    1
   669 ;; This function calls:
   670 ;;		Nothing
   671 ;; This function is called by:
   672 ;;		_master
   673 ;;		_main
   674 ;; This function uses a non-reentrant model
   675 ;;
   676                           psect	text98
   677                           	file	"E:\KTU\Softwares\MP lab\SPI\Multislave\master.c"
   678                           	line	3
   679                           	global	__size_of_delay
   680  0014                     	__size_of_delay	equ	__end_of_delay-_delay
   681                           	
   682  0751                     _delay:	
   683                           	opt	stack 7
   684                           ; Regs used in _delay: [wreg]
   685                           	line	4
   686                           	
   687  0751                     l2225:	
   688                           ;master.c: 4: while(temp--);
   689  0751  2F53               	goto	l2227
   690                           	
   691  0752                     l1026:	
   692  0752  2F53               	goto	l2227
   693                           	
   694  0753                     l1025:	
   695                           	
   696  0753                     l2227:	
   697  0753  30FF               	movlw	low(-1)
   698  0754  07F0               	addwf	(delay@temp),f
   699  0755  1803               	skipnc
   700  0756  0AF1               	incf	(delay@temp+1),f
   701  0757  30FF               	movlw	high(-1)
   702  0758  07F1               	addwf	(delay@temp+1),f
   703  0759  30FF               	movlw	high(-1)
   704  075A  0671               	xorwf	((delay@temp+1)),w
   705  075B  1D03               	skipz
   706  075C  2F5F               	goto	u2195
   707  075D  30FF               	movlw	low(-1)
   708  075E  0670               	xorwf	((delay@temp)),w
   709  075F                     u2195:
   710                           
   711  075F  1D03               	skipz
   712  0760  2F62               	goto	u2191
   713  0761  2F63               	goto	u2190
   714  0762                     u2191:
   715  0762  2F53               	goto	l2227
   716  0763                     u2190:
   717  0763  2F64               	goto	l1028
   718                           	
   719  0764                     l1027:	
   720                           	line	5
   721                           	
   722  0764                     l1028:	
   723  0764  0008               	return
   724                           	opt stack 0
   725                           GLOBAL	__end_of_delay
   726  0765                     	__end_of_delay:
   727 ;; =============== function _delay ends ============
   728                           
   729                           	signat	_delay,4216
   730                           psect	text99,local,class=CODE,delta=2
   731                           global __ptext99
   732  0000                     __ptext99:
   733                           	global	btemp
   734  007E                     	btemp set 07Eh
   735                           
   736                           	DABS	1,126,2	;btemp
   737                           	global	wtemp0
   738  007E                     	wtemp0 set btemp


HI-TECH Software PICC Macro Assembler V9.81 build 7503 
Symbol Table                                                                                   Thu Jul 01 12:23:40 2021

                   pc 0002                    fsr 0004                   _RA0 0028                   _RA1 0029  
                 fsr0 0004                   indf 0000                  l1031 0777                  l1032 07A7  
                l1025 0753                  l1033 078C                  l1041 07D5                  l1026 0752  
                l1034 078C                  l1042 07FC                  l1027 0764                  l1035 0792  
                l1043 07FD                  l1028 0764                  l1036 07A7                  l1044 07FD  
                l2231 0768                  l2225 0751                  l2241 0793                  l2233 0776  
                l2227 0753                  l2243 0799                  l2235 0777                  l2251 07D5  
                l2237 077E                  l2229 0766                  l2261 07EB                  l2253 07D8  
                l2245 07A8                  l2239 0782                  l2263 07EC                  l2255 07D9  
                l2247 07BB                  l2265 07F2                  l2257 07DF                  l2249 07BF  
                l2259 07E8                  u2200 0775                  u2201 0774                  u2210 0792  
                u2211 0791                  u2220 07A6                  u2221 07A5                  u2205 0771  
                u2230 07C7                  u2225 07A2                  u2190 0763                  u2191 0762  
                u2195 075F                  _main 07A8                  btemp 007E                  start 0000  
               ?_main 0070                 _ANSEL 0188                 _PORTA 0005                 _PORTC 0007  
               _TRISA 0085                 _TRISC 0087                 _SSPIF 0063                 _delay 0751  
               pclath 000A                 status 0003                 wtemp0 007E          __end_of_main 0800  
              ??_main 0076                ?_delay 0070                _ANSELH 0189                _SSPCON 0014  
              _SSPBUF 0013                _master 0765        __pcstackCOMMON 0070          __pidataBANK0 0724  
       __end_of_delay 0765               ??_delay 0072            __pmaintext 07A8               ?_master 0070  
             _SSPSTAT 0094       __size_of_master 0043  end_of_initialization 074D               master@i 0074  
             init_ram 0732        __end_of_master 07A8   start_initialization 073F            master@data 0073  
         __pdataBANK0 0020              ??_master 0072         __pcstackBANK0 002A        __size_of_delay 0014  
           delay@temp 0070             main@F1605 0020             init_fetch 072E              __ptext97 0765  
            __ptext98 0751              __ptext99 0000         __size_of_main 0058              main@data 002A  
