

HI-TECH Software PIC LITE Macro Assembler V9.81 build 7503 
                                                                                               Fri Dec 10 22:23:51 2021

HI-TECH Software Omniscient Code Generator (Lite mode) build 7503
     1  0000                     opt subtitle "HI-TECH Software Omniscient Code Generator (Lite mode) build 7503"
     2                           
     3                           opt pagewidth 120
     4                           
     5                           	opt lm
     6                           
     7                           	processor	16F887
     8                           clrc	macro
     9                           	bcf	3,0
    10  0000                     	endm
    11                           clrz	macro
    12                           	bcf	3,2
    13  0000                     	endm
    14                           setc	macro
    15                           	bsf	3,0
    16  0000                     	endm
    17                           setz	macro
    18                           	bsf	3,2
    19  0000                     	endm
    20                           skipc	macro
    21                           	btfss	3,0
    22  0000                     	endm
    23                           skipz	macro
    24                           	btfss	3,2
    25  0000                     	endm
    26                           skipnc	macro
    27                           	btfsc	3,0
    28  0000                     	endm
    29                           skipnz	macro
    30                           	btfsc	3,2
    31  0000                     	endm
    32  0000                     indf	equ	0
    33  0000                     indf0	equ	0
    34  0002                     pc	equ	2
    35  0002                     pcl	equ	2
    36  0003                     status	equ	3
    37  0004                     fsr	equ	4
    38  0004                     fsr0	equ	4
    39  0001                     c	equ	1
    40  0000                     z	equ	0
    41  000A                     pclath	equ	10
    42                           	FNCALL	_main,_rx
    43                           	FNCALL	_main,_master
    44                           	FNCALL	_main,_delay
    45                           	FNCALL	_master,_delay
    46                           	FNCALL	_rx,_tx
    47                           	FNROOT	_main
    48                           	global	_j
    49                           	global	_data
    50                           	global	_ch
    51                           	global	_PORTC
    52                           psect	text144,local,class=CODE,delta=2
    53                           global __ptext144
    54  0000                     __ptext144:
    55  0007                     _PORTC	set	7
    56                           	global	_RCREG
    57  001A                     _RCREG	set	26
    58                           	global	_RCSTA
    59  0018                     _RCSTA	set	24
    60                           	global	_SSPBUF
    61  0013                     _SSPBUF	set	19
    62                           	global	_SSPCON
    63  0014                     _SSPCON	set	20
    64                           	global	_TXREG
    65  0019                     _TXREG	set	25
    66                           	global	_RCIF
    67  0065                     _RCIF	set	101
    68                           	global	_SSPIF
    69  0063                     _SSPIF	set	99
    70                           	global	_TXIF
    71  0064                     _TXIF	set	100
    72                           	global	_SPBRG
    73  0099                     _SPBRG	set	153
    74                           	global	_SSPSTAT
    75  0094                     _SSPSTAT	set	148
    76                           	global	_TRISC
    77  0087                     _TRISC	set	135
    78                           	global	_TXSTA
    79  0098                     _TXSTA	set	152
    80                           	global	_ANSEL
    81  0188                     _ANSEL	set	392
    82                           	global	_ANSELH
    83  0189                     _ANSELH	set	393
    84                           	file	"spimaster.as"
    85                           	line	#
    86                           psect cinit,class=CODE,delta=2
    87                           global start_initialization
    88  0725                     start_initialization:
    89                           
    90                           psect	bssCOMMON,class=COMMON,space=1
    91                           global __pbssCOMMON
    92  0078                     __pbssCOMMON:
    93  0078                     _j:
    94  0078                            ds      2
    95                           
    96  007A                     _data:
    97  007A                            ds      1
    98                           
    99                           psect	bssBANK0,class=BANK0,space=1
   100                           global __pbssBANK0
   101  0020                     __pbssBANK0:
   102  0020                     _ch:
   103  0020                            ds      10
   104                           
   105                           ; Clear objects allocated to COMMON
   106                           psect cinit,class=CODE,delta=2
   107  0725  01F8               	clrf	((__pbssCOMMON)+0)&07Fh
   108  0726  01F9               	clrf	((__pbssCOMMON)+1)&07Fh
   109  0727  01FA               	clrf	((__pbssCOMMON)+2)&07Fh
   110                           ; Clear objects allocated to BANK0
   111                           psect cinit,class=CODE,delta=2
   112  0728  01A0               	clrf	((__pbssBANK0)+0)&07Fh
   113  0729  01A1               	clrf	((__pbssBANK0)+1)&07Fh
   114  072A  01A2               	clrf	((__pbssBANK0)+2)&07Fh
   115  072B  01A3               	clrf	((__pbssBANK0)+3)&07Fh
   116  072C  01A4               	clrf	((__pbssBANK0)+4)&07Fh
   117  072D  01A5               	clrf	((__pbssBANK0)+5)&07Fh
   118  072E  01A6               	clrf	((__pbssBANK0)+6)&07Fh
   119  072F  01A7               	clrf	((__pbssBANK0)+7)&07Fh
   120  0730  01A8               	clrf	((__pbssBANK0)+8)&07Fh
   121  0731  01A9               	clrf	((__pbssBANK0)+9)&07Fh
   122                           psect cinit,class=CODE,delta=2
   123                           global end_of_initialization
   124                           
   125                           ;End of C runtime variable initialization code
   126                           
   127  0732                     end_of_initialization:
   128  0732  0183               clrf status
   129  0733  120A  118A  2F4A   ljmp _main	;jump to C main() function
   130                           psect	cstackCOMMON,class=COMMON,space=1
   131                           global __pcstackCOMMON
   132  0070                     __pcstackCOMMON:
   133                           	global	?_delay
   134  0070                     ?_delay:	; 0 bytes @ 0x0
   135                           	global	?_tx
   136  0070                     ?_tx:	; 0 bytes @ 0x0
   137                           	global	??_tx
   138  0070                     ??_tx:	; 0 bytes @ 0x0
   139                           	global	?_rx
   140  0070                     ?_rx:	; 0 bytes @ 0x0
   141                           	global	?_master
   142  0070                     ?_master:	; 0 bytes @ 0x0
   143                           	global	?_main
   144  0070                     ?_main:	; 0 bytes @ 0x0
   145                           	global	tx@c
   146  0070                     tx@c:	; 1 bytes @ 0x0
   147                           	global	delay@temp
   148  0070                     delay@temp:	; 2 bytes @ 0x0
   149  0070                     	ds	1
   150                           	global	??_rx
   151  0071                     ??_rx:	; 0 bytes @ 0x1
   152  0071                     	ds	1
   153                           	global	??_delay
   154  0072                     ??_delay:	; 0 bytes @ 0x2
   155                           	global	??_master
   156  0072                     ??_master:	; 0 bytes @ 0x2
   157                           	global	rx@i
   158  0072                     rx@i:	; 2 bytes @ 0x2
   159  0072                     	ds	2
   160                           	global	rx@x
   161  0074                     rx@x:	; 1 bytes @ 0x4
   162  0074                     	ds	1
   163                           	global	master@i
   164  0075                     master@i:	; 2 bytes @ 0x5
   165  0075                     	ds	2
   166                           	global	master@ch
   167  0077                     master@ch:	; 1 bytes @ 0x7
   168  0077                     	ds	1
   169                           	global	??_main
   170  0078                     ??_main:	; 0 bytes @ 0x8
   171 ;;Data sizes: Strings 0, constant 0, data 0, bss 13, persistent 0 stack 0
   172 ;;Auto spaces:   Size  Autos    Used
   173 ;; COMMON          14      8      11
   174 ;; BANK0           80      0      10
   175 ;; BANK1           80      0       0
   176 ;; BANK3           96      0       0
   177 ;; BANK2           96      0       0
   178                           
   179 ;;
   180 ;; Pointer list with targets:
   181                           
   182 ;; master@ch	PTR unsigned char  size(1) Largest target is 10
   183 ;;		 -> ch(BANK0[10]), 
   184 ;;
   185                           
   186                           
   187 ;;
   188 ;; Critical Paths under _main in COMMON
   189 ;;
   190 ;;   _main->_master
   191 ;;   _master->_delay
   192 ;;   _rx->_tx
   193 ;;
   194 ;; Critical Paths under _main in BANK0
   195 ;;
   196 ;;   None.
   197 ;;
   198 ;; Critical Paths under _main in BANK1
   199 ;;
   200 ;;   None.
   201 ;;
   202 ;; Critical Paths under _main in BANK3
   203 ;;
   204 ;;   None.
   205 ;;
   206 ;; Critical Paths under _main in BANK2
   207 ;;
   208 ;;   None.
   209                           
   210 ;;
   211 ;;Main: autosize = 0, tempsize = 0, incstack = 0, save=0
   212 ;;
   213                           
   214 ;;
   215 ;;Call Graph Tables:
   216 ;;
   217 ;; ---------------------------------------------------------------------------------
   218 ;; (Depth) Function   	        Calls       Base Space   Used Autos Params    Refs
   219 ;; ---------------------------------------------------------------------------------
   220 ;; (0) _main                                                 0     0      0     227
   221 ;;                                 _rx
   222 ;;                             _master
   223 ;;                              _delay
   224 ;; ---------------------------------------------------------------------------------
   225 ;; (1) _master                                               6     6      0      69
   226 ;;                                              2 COMMON     6     6      0
   227 ;;                              _delay
   228 ;; ---------------------------------------------------------------------------------
   229 ;; (1) _rx                                                   4     4      0     136
   230 ;;                                              1 COMMON     4     4      0
   231 ;;                                 _tx
   232 ;; ---------------------------------------------------------------------------------
   233 ;; (2) _tx                                                   1     1      0      22
   234 ;;                                              0 COMMON     1     1      0
   235 ;; ---------------------------------------------------------------------------------
   236 ;; (1) _delay                                                2     0      2      22
   237 ;;                                              0 COMMON     2     0      2
   238 ;; ---------------------------------------------------------------------------------
   239 ;; Estimated maximum stack depth 2
   240 ;; ---------------------------------------------------------------------------------
   241                           
   242 ;; Call Graph Graphs:
   243                           
   244 ;; _main (ROOT)
   245 ;;   _rx
   246 ;;     _tx
   247 ;;   _master
   248 ;;     _delay
   249 ;;   _delay
   250 ;;
   251                           
   252 ;; Address spaces:
   253                           
   254 ;;Name               Size   Autos  Total    Cost      Usage
   255 ;;BITCOMMON            E      0       0       0        0.0%
   256 ;;EEDATA             100      0       0       0        0.0%
   257 ;;NULL                 0      0       0       0        0.0%
   258 ;;CODE                 0      0       0       0        0.0%
   259 ;;COMMON               E      8       B       1       78.6%
   260 ;;BITSFR0              0      0       0       1        0.0%
   261 ;;SFR0                 0      0       0       1        0.0%
   262 ;;BITSFR1              0      0       0       2        0.0%
   263 ;;SFR1                 0      0       0       2        0.0%
   264 ;;STACK                0      0       2       2        0.0%
   265 ;;ABS                  0      0      15       3        0.0%
   266 ;;BITBANK0            50      0       0       4        0.0%
   267 ;;BITSFR3              0      0       0       4        0.0%
   268 ;;SFR3                 0      0       0       4        0.0%
   269 ;;BANK0               50      0       A       5       12.5%
   270 ;;BITSFR2              0      0       0       5        0.0%
   271 ;;SFR2                 0      0       0       5        0.0%
   272 ;;BITBANK1            50      0       0       6        0.0%
   273 ;;BANK1               50      0       0       7        0.0%
   274 ;;BITBANK3            60      0       0       8        0.0%
   275 ;;BANK3               60      0       0       9        0.0%
   276 ;;BITBANK2            60      0       0      10        0.0%
   277 ;;BANK2               60      0       0      11        0.0%
   278 ;;DATA                 0      0      17      12        0.0%
   279                           
   280                           	global	_main
   281                           psect	maintext,global,class=CODE,delta=2
   282                           global __pmaintext
   283  074A                     __pmaintext:
   284                           
   285 ;; *************** function _main *****************
   286 ;; Defined at:
   287 ;;		line 41 in file "E:\KTU\Softwares\Embedded Systems\Pic Controller\SPI\SPIwithUART\spimaster.c"
   288 ;; Parameters:    Size  Location     Type
   289 ;;		None
   290 ;; Auto vars:     Size  Location     Type
   291 ;;		None
   292 ;; Return value:  Size  Location     Type
   293 ;;		None               void
   294 ;; Registers used:
   295 ;;		wreg, fsr0l, fsr0h, status,2, status,0, pclath, cstack
   296 ;; Tracked objects:
   297 ;;		On entry : 17F/0
   298 ;;		On exit  : 0/0
   299 ;;		Unchanged: 0/0
   300 ;; Data sizes:     COMMON   BANK0   BANK1   BANK3   BANK2
   301 ;;      Params:         0       0       0       0       0
   302 ;;      Locals:         0       0       0       0       0
   303 ;;      Temps:          0       0       0       0       0
   304 ;;      Totals:         0       0       0       0       0
   305 ;;Total ram usage:        0 bytes
   306 ;; Hardware stack levels required when called:    2
   307 ;; This function calls:
   308 ;;		_rx
   309 ;;		_master
   310 ;;		_delay
   311 ;; This function is called by:
   312 ;;		Startup code after reset
   313 ;; This function uses a non-reentrant model
   314 ;;
   315                           psect	maintext
   316                           	file	"E:\KTU\Softwares\Embedded Systems\Pic Controller\SPI\SPIwithUART\spimaster.c"
   317                           	line	41
   318                           	global	__size_of_main
   319  0038                     	__size_of_main	equ	__end_of_main-_main
   320                           	
   321  074A                     _main:	
   322                           	opt	stack 6
   323                           ; Regs used in _main: [wreg-fsr0h+status,2+status,0+pclath+cstack]
   324                           	line	42
   325                           	
   326  074A                     l2298:	
   327                           ;spimaster.c: 42: PORTC=0X00;
   328  074A  1283               	bcf	status, 5	;RP0=0, select bank0
   329  074B  1303               	bcf	status, 6	;RP1=0, select bank0
   330  074C  0187               	clrf	(7)	;volatile
   331                           	line	43
   332                           	
   333  074D                     l2300:	
   334                           ;spimaster.c: 43: TRISC=0X80;
   335  074D  3080               	movlw	(080h)
   336  074E  1683               	bsf	status, 5	;RP0=1, select bank1
   337  074F  1303               	bcf	status, 6	;RP1=0, select bank1
   338  0750  0087               	movwf	(135)^080h	;volatile
   339                           	line	44
   340                           	
   341  0751                     l2302:	
   342                           ;spimaster.c: 44: ANSEL=0X00;
   343  0751  1683               	bsf	status, 5	;RP0=1, select bank3
   344  0752  1703               	bsf	status, 6	;RP1=1, select bank3
   345  0753  0188               	clrf	(392)^0180h	;volatile
   346                           	line	45
   347                           	
   348  0754                     l2304:	
   349                           ;spimaster.c: 45: ANSELH=0X00;
   350  0754  0189               	clrf	(393)^0180h	;volatile
   351                           	line	46
   352                           	
   353  0755                     l2306:	
   354                           ;spimaster.c: 46: SSPSTAT = 0x00;
   355  0755  1683               	bsf	status, 5	;RP0=1, select bank1
   356  0756  1303               	bcf	status, 6	;RP1=0, select bank1
   357  0757  0194               	clrf	(148)^080h	;volatile
   358                           	line	47
   359                           ;spimaster.c: 47: SSPCON = 0x20;
   360  0758  3020               	movlw	(020h)
   361  0759  1283               	bcf	status, 5	;RP0=0, select bank0
   362  075A  1303               	bcf	status, 6	;RP1=0, select bank0
   363  075B  0094               	movwf	(20)	;volatile
   364                           	line	48
   365                           ;spimaster.c: 48: TXSTA=0X26;
   366  075C  3026               	movlw	(026h)
   367  075D  1683               	bsf	status, 5	;RP0=1, select bank1
   368  075E  1303               	bcf	status, 6	;RP1=0, select bank1
   369  075F  0098               	movwf	(152)^080h	;volatile
   370                           	line	49
   371                           ;spimaster.c: 49: RCSTA=0X90;
   372  0760  3090               	movlw	(090h)
   373  0761  1283               	bcf	status, 5	;RP0=0, select bank0
   374  0762  1303               	bcf	status, 6	;RP1=0, select bank0
   375  0763  0098               	movwf	(24)	;volatile
   376                           	line	50
   377                           ;spimaster.c: 50: SPBRG=25;
   378  0764  3019               	movlw	(019h)
   379  0765  1683               	bsf	status, 5	;RP0=1, select bank1
   380  0766  1303               	bcf	status, 6	;RP1=0, select bank1
   381  0767  0099               	movwf	(153)^080h	;volatile
   382  0768  2F69               	goto	l2308
   383                           	line	51
   384                           ;spimaster.c: 51: while(1)
   385                           	
   386  0769                     l1060:	
   387                           	line	53
   388                           	
   389  0769                     l2308:	
   390                           ;spimaster.c: 52: {
   391                           ;spimaster.c: 53: rx();
   392  0769  120A  118A  2782   	fcall	_rx
              120A  118A         
   393                           	line	54
   394                           	
   395  076E                     l2310:	
   396                           ;spimaster.c: 54: master(&ch[0]);
   397  076E  3020               	movlw	(_ch)&0ffh
   398  076F  120A  118A  27C1   	fcall	_master
              120A  118A         
   399                           	line	55
   400                           	
   401  0774                     l2312:	
   402                           ;spimaster.c: 55: delay(1000);
   403  0774  30E8               	movlw	low(03E8h)
   404  0775  00F0               	movwf	(?_delay)
   405  0776  3003               	movlw	high(03E8h)
   406  0777  00F1               	movwf	((?_delay))+1
   407  0778  120A  118A  2736   	fcall	_delay
              120A  118A         
   408  077D  2F69               	goto	l2308
   409                           	line	56
   410                           	
   411  077E                     l1061:	
   412                           	line	51
   413  077E  2F69               	goto	l2308
   414                           	
   415  077F                     l1062:	
   416                           	line	57
   417                           	
   418  077F                     l1063:	
   419                           	global	start
   420  077F  120A  118A  2800   	ljmp	start
   421                           	opt stack 0
   422                           GLOBAL	__end_of_main
   423  0782                     	__end_of_main:
   424 ;; =============== function _main ends ============
   425                           
   426                           	signat	_main,88
   427                           	global	_master
   428                           psect	text145,local,class=CODE,delta=2
   429                           global __ptext145
   430  07C1                     __ptext145:
   431                           
   432 ;; *************** function _master *****************
   433 ;; Defined at:
   434 ;;		line 31 in file "E:\KTU\Softwares\Embedded Systems\Pic Controller\SPI\SPIwithUART\spimaster.c"
   435 ;; Parameters:    Size  Location     Type
   436 ;;  ch              1    wreg     PTR unsigned char 
   437 ;;		 -> ch(10), 
   438 ;; Auto vars:     Size  Location     Type
   439 ;;  ch              1    7[COMMON] PTR unsigned char 
   440 ;;		 -> ch(10), 
   441 ;;  i               2    5[COMMON] int 
   442 ;; Return value:  Size  Location     Type
   443 ;;		None               void
   444 ;; Registers used:
   445 ;;		wreg, fsr0l, fsr0h, status,2, status,0, pclath, cstack
   446 ;; Tracked objects:
   447 ;;		On entry : 0/0
   448 ;;		On exit  : 0/0
   449 ;;		Unchanged: 0/0
   450 ;; Data sizes:     COMMON   BANK0   BANK1   BANK3   BANK2
   451 ;;      Params:         0       0       0       0       0
   452 ;;      Locals:         3       0       0       0       0
   453 ;;      Temps:          3       0       0       0       0
   454 ;;      Totals:         6       0       0       0       0
   455 ;;Total ram usage:        6 bytes
   456 ;; Hardware stack levels used:    1
   457 ;; Hardware stack levels required when called:    1
   458 ;; This function calls:
   459 ;;		_delay
   460 ;; This function is called by:
   461 ;;		_main
   462 ;; This function uses a non-reentrant model
   463 ;;
   464                           psect	text145
   465                           	file	"E:\KTU\Softwares\Embedded Systems\Pic Controller\SPI\SPIwithUART\spimaster.c"
   466                           	line	31
   467                           	global	__size_of_master
   468  003F                     	__size_of_master	equ	__end_of_master-_master
   469                           	
   470  07C1                     _master:	
   471                           	opt	stack 6
   472                           ; Regs used in _master: [wreg-fsr0h+status,2+status,0+pclath+cstack]
   473                           ;master@ch stored from wreg
   474  07C1  00F7               	movwf	(master@ch)
   475                           	line	32
   476                           	
   477  07C2                     l2286:	
   478                           ;spimaster.c: 32: for(int i=0;i<j-1;i++)
   479  07C2  01F5               	clrf	(master@i)
   480  07C3  01F6               	clrf	(master@i+1)
   481  07C4  2FE8               	goto	l2296
   482                           	line	33
   483                           	
   484  07C5                     l1052:	
   485                           	line	34
   486                           	
   487  07C5                     l2288:	
   488                           ;spimaster.c: 33: {
   489                           ;spimaster.c: 34: SSPBUF = *ch++;
   490  07C5  0877               	movf	(master@ch),w
   491  07C6  0084               	movwf	fsr0
   492  07C7  1383               	bcf	status, 7	;select IRP bank0
   493  07C8  0800               	movf	indf,w
   494  07C9  1283               	bcf	status, 5	;RP0=0, select bank0
   495  07CA  1303               	bcf	status, 6	;RP1=0, select bank0
   496  07CB  0093               	movwf	(19)	;volatile
   497                           	
   498  07CC                     l2290:	
   499  07CC  3001               	movlw	(01h)
   500  07CD  00F2               	movwf	(??_master+0)+0
   501  07CE  0872               	movf	(??_master+0)+0,w
   502  07CF  07F7               	addwf	(master@ch),f
   503                           	line	35
   504                           	
   505  07D0                     l2292:	
   506                           ;spimaster.c: 35: delay(1000);
   507  07D0  30E8               	movlw	low(03E8h)
   508  07D1  00F0               	movwf	(?_delay)
   509  07D2  3003               	movlw	high(03E8h)
   510  07D3  00F1               	movwf	((?_delay))+1
   511  07D4  120A  118A  2736   	fcall	_delay
              120A  118A         
   512                           	line	36
   513                           ;spimaster.c: 36: while(SSPIF==0);
   514  07D9  2FDA               	goto	l1053
   515                           	
   516  07DA                     l1054:	
   517                           	
   518  07DA                     l1053:	
   519  07DA  1283               	bcf	status, 5	;RP0=0, select bank0
   520  07DB  1303               	bcf	status, 6	;RP1=0, select bank0
   521  07DC  1D8C               	btfss	(99/8),(99)&7
   522  07DD  2FDF               	goto	u2261
   523  07DE  2FE0               	goto	u2260
   524  07DF                     u2261:
   525  07DF  2FDA               	goto	l1053
   526  07E0                     u2260:
   527                           	
   528  07E0                     l1055:	
   529                           	line	37
   530                           ;spimaster.c: 37: SSPIF=0;
   531  07E0  118C               	bcf	(99/8),(99)&7
   532                           	line	32
   533                           	
   534  07E1                     l2294:	
   535  07E1  3001               	movlw	low(01h)
   536  07E2  07F5               	addwf	(master@i),f
   537  07E3  1803               	skipnc
   538  07E4  0AF6               	incf	(master@i+1),f
   539  07E5  3000               	movlw	high(01h)
   540  07E6  07F6               	addwf	(master@i+1),f
   541  07E7  2FE8               	goto	l2296
   542                           	
   543  07E8                     l1051:	
   544                           	
   545  07E8                     l2296:	
   546  07E8  0878               	movf	(_j),w
   547  07E9  3EFF               	addlw	low(-1)
   548  07EA  00F2               	movwf	(??_master+0)+0
   549  07EB  0879               	movf	(_j+1),w
   550  07EC  1803               	skipnc
   551  07ED  3E01               	addlw	1
   552  07EE  3EFF               	addlw	high(-1)
   553  07EF  00F3               	movwf	1+(??_master+0)+0
   554  07F0  0876               	movf	(master@i+1),w
   555  07F1  3A80               	xorlw	80h
   556  07F2  00F4               	movwf	(??_master+2)+0
   557  07F3  0873               	movf	1+(??_master+0)+0,w
   558  07F4  3A80               	xorlw	80h
   559  07F5  0274               	subwf	(??_master+2)+0,w
   560  07F6  1D03               	skipz
   561  07F7  2FFA               	goto	u2275
   562  07F8  0872               	movf	0+(??_master+0)+0,w
   563  07F9  0275               	subwf	(master@i),w
   564  07FA                     u2275:
   565                           
   566  07FA  1C03               	skipc
   567  07FB  2FFD               	goto	u2271
   568  07FC  2FFE               	goto	u2270
   569  07FD                     u2271:
   570  07FD  2FC5               	goto	l2288
   571  07FE                     u2270:
   572  07FE  2FFF               	goto	l1057
   573                           	
   574  07FF                     l1056:	
   575                           	line	39
   576                           	
   577  07FF                     l1057:	
   578  07FF  0008               	return
   579                           	opt stack 0
   580                           GLOBAL	__end_of_master
   581  0800                     	__end_of_master:
   582 ;; =============== function _master ends ============
   583                           
   584                           	signat	_master,4216
   585                           	global	_rx
   586                           psect	text146,local,class=CODE,delta=2
   587                           global __ptext146
   588  0782                     __ptext146:
   589                           
   590 ;; *************** function _rx *****************
   591 ;; Defined at:
   592 ;;		line 16 in file "E:\KTU\Softwares\Embedded Systems\Pic Controller\SPI\SPIwithUART\spimaster.c"
   593 ;; Parameters:    Size  Location     Type
   594 ;;		None
   595 ;; Auto vars:     Size  Location     Type
   596 ;;  i               2    2[COMMON] int 
   597 ;;  x               1    4[COMMON] unsigned char 
   598 ;; Return value:  Size  Location     Type
   599 ;;		None               void
   600 ;; Registers used:
   601 ;;		wreg, fsr0l, fsr0h, status,2, status,0, pclath, cstack
   602 ;; Tracked objects:
   603 ;;		On entry : 0/0
   604 ;;		On exit  : 0/0
   605 ;;		Unchanged: 0/0
   606 ;; Data sizes:     COMMON   BANK0   BANK1   BANK3   BANK2
   607 ;;      Params:         0       0       0       0       0
   608 ;;      Locals:         3       0       0       0       0
   609 ;;      Temps:          1       0       0       0       0
   610 ;;      Totals:         4       0       0       0       0
   611 ;;Total ram usage:        4 bytes
   612 ;; Hardware stack levels used:    1
   613 ;; Hardware stack levels required when called:    1
   614 ;; This function calls:
   615 ;;		_tx
   616 ;; This function is called by:
   617 ;;		_main
   618 ;; This function uses a non-reentrant model
   619 ;;
   620                           psect	text146
   621                           	file	"E:\KTU\Softwares\Embedded Systems\Pic Controller\SPI\SPIwithUART\spimaster.c"
   622                           	line	16
   623                           	global	__size_of_rx
   624  003F                     	__size_of_rx	equ	__end_of_rx-_rx
   625                           	
   626  0782                     _rx:	
   627                           	opt	stack 6
   628                           ; Regs used in _rx: [wreg-fsr0h+status,2+status,0+pclath+cstack]
   629                           	line	18
   630                           	
   631  0782                     l2264:	
   632                           ;spimaster.c: 17: int i;
   633                           ;spimaster.c: 18: char x='a';
   634  0782  3061               	movlw	(061h)
   635  0783  00F1               	movwf	(??_rx+0)+0
   636  0784  0871               	movf	(??_rx+0)+0,w
   637  0785  00F4               	movwf	(rx@x)
   638                           	line	20
   639                           	
   640  0786                     l2266:	
   641                           ;spimaster.c: 20: for(i=0;x!=0X0D;i++)
   642  0786  01F2               	clrf	(rx@i)
   643  0787  01F3               	clrf	(rx@i+1)
   644                           	
   645  0788                     l2268:	
   646  0788  0874               	movf	(rx@x),w
   647  0789  3A0D               	xorlw	0Dh
   648  078A  1D03               	skipz
   649  078B  2F8D               	goto	u2231
   650  078C  2F8E               	goto	u2230
   651  078D                     u2231:
   652  078D  2F91               	goto	l1045
   653  078E                     u2230:
   654  078E  2FC0               	goto	l1048
   655                           	
   656  078F                     l2270:	
   657  078F  2FC0               	goto	l1048
   658                           	line	21
   659                           	
   660  0790                     l1043:	
   661                           	line	22
   662                           ;spimaster.c: 21: {
   663                           ;spimaster.c: 22: while(RCIF==0);
   664  0790  2F91               	goto	l1045
   665                           	
   666  0791                     l1046:	
   667                           	
   668  0791                     l1045:	
   669  0791  1283               	bcf	status, 5	;RP0=0, select bank0
   670  0792  1303               	bcf	status, 6	;RP1=0, select bank0
   671  0793  1E8C               	btfss	(101/8),(101)&7
   672  0794  2F96               	goto	u2241
   673  0795  2F97               	goto	u2240
   674  0796                     u2241:
   675  0796  2F91               	goto	l1045
   676  0797                     u2240:
   677  0797  2F98               	goto	l2272
   678                           	
   679  0798                     l1047:	
   680                           	line	23
   681                           	
   682  0798                     l2272:	
   683                           ;spimaster.c: 23: x=RCREG;
   684  0798  081A               	movf	(26),w	;volatile
   685  0799  00F1               	movwf	(??_rx+0)+0
   686  079A  0871               	movf	(??_rx+0)+0,w
   687  079B  00F4               	movwf	(rx@x)
   688                           	line	24
   689                           	
   690  079C                     l2274:	
   691                           ;spimaster.c: 24: ch[i]=x;
   692  079C  0874               	movf	(rx@x),w
   693  079D  00F1               	movwf	(??_rx+0)+0
   694  079E  0872               	movf	(rx@i),w
   695  079F  3E20               	addlw	_ch&0ffh
   696  07A0  0084               	movwf	fsr0
   697  07A1  0871               	movf	(??_rx+0)+0,w
   698  07A2  1383               	bcf	status, 7	;select IRP bank0
   699  07A3  0080               	movwf	indf
   700                           	line	25
   701                           	
   702  07A4                     l2276:	
   703                           ;spimaster.c: 25: tx(x);
   704  07A4  0874               	movf	(rx@x),w
   705  07A5  120A  118A  2719   	fcall	_tx
              120A  118A         
   706                           	line	26
   707                           	
   708  07AA                     l2278:	
   709                           ;spimaster.c: 26: RCIF=0;
   710  07AA  1283               	bcf	status, 5	;RP0=0, select bank0
   711  07AB  1303               	bcf	status, 6	;RP1=0, select bank0
   712  07AC  128C               	bcf	(101/8),(101)&7
   713                           	line	27
   714                           	
   715  07AD                     l2280:	
   716                           ;spimaster.c: 27: j++;
   717  07AD  3001               	movlw	low(01h)
   718  07AE  07F8               	addwf	(_j),f
   719  07AF  1803               	skipnc
   720  07B0  0AF9               	incf	(_j+1),f
   721  07B1  3000               	movlw	high(01h)
   722  07B2  07F9               	addwf	(_j+1),f
   723                           	line	20
   724                           	
   725  07B3                     l2282:	
   726  07B3  3001               	movlw	low(01h)
   727  07B4  07F2               	addwf	(rx@i),f
   728  07B5  1803               	skipnc
   729  07B6  0AF3               	incf	(rx@i+1),f
   730  07B7  3000               	movlw	high(01h)
   731  07B8  07F3               	addwf	(rx@i+1),f
   732                           	
   733  07B9                     l2284:	
   734  07B9  0874               	movf	(rx@x),w
   735  07BA  3A0D               	xorlw	0Dh
   736  07BB  1D03               	skipz
   737  07BC  2FBE               	goto	u2251
   738  07BD  2FBF               	goto	u2250
   739  07BE                     u2251:
   740  07BE  2F91               	goto	l1045
   741  07BF                     u2250:
   742  07BF  2FC0               	goto	l1048
   743                           	
   744  07C0                     l1044:	
   745                           	line	29
   746                           	
   747  07C0                     l1048:	
   748  07C0  0008               	return
   749                           	opt stack 0
   750                           GLOBAL	__end_of_rx
   751  07C1                     	__end_of_rx:
   752 ;; =============== function _rx ends ============
   753                           
   754                           	signat	_rx,88
   755                           	global	_tx
   756                           psect	text147,local,class=CODE,delta=2
   757                           global __ptext147
   758  0719                     __ptext147:
   759                           
   760 ;; *************** function _tx *****************
   761 ;; Defined at:
   762 ;;		line 10 in file "E:\KTU\Softwares\Embedded Systems\Pic Controller\SPI\SPIwithUART\spimaster.c"
   763 ;; Parameters:    Size  Location     Type
   764 ;;  c               1    wreg     unsigned char 
   765 ;; Auto vars:     Size  Location     Type
   766 ;;  c               1    0[COMMON] unsigned char 
   767 ;; Return value:  Size  Location     Type
   768 ;;		None               void
   769 ;; Registers used:
   770 ;;		wreg
   771 ;; Tracked objects:
   772 ;;		On entry : 0/0
   773 ;;		On exit  : 0/0
   774 ;;		Unchanged: 0/0
   775 ;; Data sizes:     COMMON   BANK0   BANK1   BANK3   BANK2
   776 ;;      Params:         0       0       0       0       0
   777 ;;      Locals:         1       0       0       0       0
   778 ;;      Temps:          0       0       0       0       0
   779 ;;      Totals:         1       0       0       0       0
   780 ;;Total ram usage:        1 bytes
   781 ;; Hardware stack levels used:    1
   782 ;; This function calls:
   783 ;;		Nothing
   784 ;; This function is called by:
   785 ;;		_rx
   786 ;; This function uses a non-reentrant model
   787 ;;
   788                           psect	text147
   789                           	file	"E:\KTU\Softwares\Embedded Systems\Pic Controller\SPI\SPIwithUART\spimaster.c"
   790                           	line	10
   791                           	global	__size_of_tx
   792  000C                     	__size_of_tx	equ	__end_of_tx-_tx
   793                           	
   794  0719                     _tx:	
   795                           	opt	stack 6
   796                           ; Regs used in _tx: [wreg]
   797                           ;tx@c stored from wreg
   798  0719  00F0               	movwf	(tx@c)
   799                           	line	11
   800                           	
   801  071A                     l2262:	
   802                           ;spimaster.c: 11: TXREG=c;
   803  071A  0870               	movf	(tx@c),w
   804  071B  1283               	bcf	status, 5	;RP0=0, select bank0
   805  071C  1303               	bcf	status, 6	;RP1=0, select bank0
   806  071D  0099               	movwf	(25)	;volatile
   807                           	line	12
   808                           ;spimaster.c: 12: while(TXIF==0);
   809  071E  2F1F               	goto	l1037
   810                           	
   811  071F                     l1038:	
   812                           	
   813  071F                     l1037:	
   814  071F  1E0C               	btfss	(100/8),(100)&7
   815  0720  2F22               	goto	u2221
   816  0721  2F23               	goto	u2220
   817  0722                     u2221:
   818  0722  2F1F               	goto	l1037
   819  0723                     u2220:
   820                           	
   821  0723                     l1039:	
   822                           	line	13
   823                           ;spimaster.c: 13: TXIF=0;
   824  0723  120C               	bcf	(100/8),(100)&7
   825                           	line	14
   826                           	
   827  0724                     l1040:	
   828  0724  0008               	return
   829                           	opt stack 0
   830                           GLOBAL	__end_of_tx
   831  0725                     	__end_of_tx:
   832 ;; =============== function _tx ends ============
   833                           
   834                           	signat	_tx,4216
   835                           	global	_delay
   836                           psect	text148,local,class=CODE,delta=2
   837                           global __ptext148
   838  0736                     __ptext148:
   839                           
   840 ;; *************** function _delay *****************
   841 ;; Defined at:
   842 ;;		line 6 in file "E:\KTU\Softwares\Embedded Systems\Pic Controller\SPI\SPIwithUART\spimaster.c"
   843 ;; Parameters:    Size  Location     Type
   844 ;;  temp            2    0[COMMON] int 
   845 ;; Auto vars:     Size  Location     Type
   846 ;;		None
   847 ;; Return value:  Size  Location     Type
   848 ;;		None               void
   849 ;; Registers used:
   850 ;;		wreg
   851 ;; Tracked objects:
   852 ;;		On entry : 0/0
   853 ;;		On exit  : 0/0
   854 ;;		Unchanged: 0/0
   855 ;; Data sizes:     COMMON   BANK0   BANK1   BANK3   BANK2
   856 ;;      Params:         2       0       0       0       0
   857 ;;      Locals:         0       0       0       0       0
   858 ;;      Temps:          0       0       0       0       0
   859 ;;      Totals:         2       0       0       0       0
   860 ;;Total ram usage:        2 bytes
   861 ;; Hardware stack levels used:    1
   862 ;; This function calls:
   863 ;;		Nothing
   864 ;; This function is called by:
   865 ;;		_master
   866 ;;		_main
   867 ;; This function uses a non-reentrant model
   868 ;;
   869                           psect	text148
   870                           	file	"E:\KTU\Softwares\Embedded Systems\Pic Controller\SPI\SPIwithUART\spimaster.c"
   871                           	line	6
   872                           	global	__size_of_delay
   873  0014                     	__size_of_delay	equ	__end_of_delay-_delay
   874                           	
   875  0736                     _delay:	
   876                           	opt	stack 7
   877                           ; Regs used in _delay: [wreg]
   878                           	line	7
   879                           	
   880  0736                     l2258:	
   881                           ;spimaster.c: 7: while(temp--);
   882  0736  2F38               	goto	l2260
   883                           	
   884  0737                     l1032:	
   885  0737  2F38               	goto	l2260
   886                           	
   887  0738                     l1031:	
   888                           	
   889  0738                     l2260:	
   890  0738  30FF               	movlw	low(-1)
   891  0739  07F0               	addwf	(delay@temp),f
   892  073A  1803               	skipnc
   893  073B  0AF1               	incf	(delay@temp+1),f
   894  073C  30FF               	movlw	high(-1)
   895  073D  07F1               	addwf	(delay@temp+1),f
   896  073E  30FF               	movlw	high(-1)
   897  073F  0671               	xorwf	((delay@temp+1)),w
   898  0740  1D03               	skipz
   899  0741  2F44               	goto	u2215
   900  0742  30FF               	movlw	low(-1)
   901  0743  0670               	xorwf	((delay@temp)),w
   902  0744                     u2215:
   903                           
   904  0744  1D03               	skipz
   905  0745  2F47               	goto	u2211
   906  0746  2F48               	goto	u2210
   907  0747                     u2211:
   908  0747  2F38               	goto	l2260
   909  0748                     u2210:
   910  0748  2F49               	goto	l1034
   911                           	
   912  0749                     l1033:	
   913                           	line	8
   914                           	
   915  0749                     l1034:	
   916  0749  0008               	return
   917                           	opt stack 0
   918                           GLOBAL	__end_of_delay
   919  074A                     	__end_of_delay:
   920 ;; =============== function _delay ends ============
   921                           
   922                           	signat	_delay,4216
   923                           psect	text149,local,class=CODE,delta=2
   924                           global __ptext149
   925  0000                     __ptext149:
   926                           	global	btemp
   927  007E                     	btemp set 07Eh
   928                           
   929                           	DABS	1,126,2	;btemp
   930                           	global	wtemp0
   931  007E                     	wtemp0 set btemp


HI-TECH Software PICC Macro Assembler V9.81 build 7503 
Symbol Table                                                                                   Fri Dec 10 22:23:51 2021

                   _j 0078                    _ch 0020                    _rx 0782                    _tx 0719  
                 ?_rx 0070                   ?_tx 0070                   fsr0 0004                   indf 0000  
                 rx@i 0072                   tx@c 0070                   rx@x 0074                  ??_rx 0071  
                ??_tx 0070                  l1031 0738                  l1032 0737                  l1040 0724  
                l1033 0749                  l1034 0749                  l1043 0790                  l1051 07E8  
                l1044 07C0                  l1052 07C5                  l1060 0769                  l1037 071F  
                l1045 0791                  l1053 07DA                  l1061 077E                  l1038 071F  
                l1046 0791                  l1054 07DA                  l1062 077F                  l1039 0723  
                l1047 0798                  l1055 07E0                  l1063 077F                  l1048 07C0  
                l1056 07FF                  l1057 07FF                  l2300 074D                  l2310 076E  
                l2302 0751                  l2312 0774                  l2304 0754                  l2306 0755  
                l2260 0738                  l2308 0769                  l2262 071A                  l2270 078F  
                l2280 07AD                  l2272 0798                  l2264 0782                  l2258 0736  
                l2282 07B3                  l2274 079C                  l2266 0786                  l2290 07CC  
                l2284 07B9                  l2276 07A4                  l2268 0788                  l2292 07D0  
                l2278 07AA                  l2294 07E1                  l2286 07C2                  l2288 07C5  
                l2296 07E8                  l2298 074A                  u2210 0748                  u2211 0747  
                u2220 0723                  u2221 0722                  u2230 078E                  u2215 0744  
                u2231 078D                  u2240 0797                  u2241 0796                  u2250 07BF  
                u2251 07BE                  u2260 07E0                  u2261 07DF                  u2270 07FE  
                u2271 07FD                  u2275 07FA                  _RCIF 0065                  _TXIF 0064  
                _data 007A                  _main 074A                  btemp 007E                  start 0000  
               ?_main 0070                 _ANSEL 0188                 _RCREG 001A                 _RCSTA 0018  
               _SPBRG 0099                 _PORTC 0007                 _TRISC 0087                 _SSPIF 0063  
               _TXREG 0019                 _TXSTA 0098                 _delay 0736                 status 0003  
               wtemp0 007E          __end_of_main 0782                ??_main 0078                ?_delay 0070  
              _ANSELH 0189                _SSPCON 0014                _SSPBUF 0013                _master 07C1  
      __pcstackCOMMON 0070         __end_of_delay 074A            __end_of_rx 07C1            __end_of_tx 0725  
             ??_delay 0072            __pbssBANK0 0020            __pmaintext 074A               ?_master 0070  
             _SSPSTAT 0094       __size_of_master 003F  end_of_initialization 0732               master@i 0075  
      __end_of_master 0800   start_initialization 0725              ??_master 0072           __pbssCOMMON 0078  
           __ptext144 0000             __ptext145 07C1             __ptext146 0782             __ptext147 0719  
           __ptext148 0736             __ptext149 0000        __size_of_delay 0014           __size_of_rx 003F  
         __size_of_tx 000C             delay@temp 0070         __size_of_main 0038              master@ch 0077  
