

HI-TECH Software PIC LITE Macro Assembler V9.81 build 7503 
                                                                                               Tue Jun 01 12:16:23 2021

HI-TECH Software Omniscient Code Generator (Lite mode) build 7503
     1  0000                     opt subtitle "HI-TECH Software Omniscient Code Generator (Lite mode) build 7503"
     2                           
     3                           opt pagewidth 120
     4                           
     5                           	opt lm
     6                           
     7                           	processor	16F887
     8                           clrc	macro
     9                           	bcf	3,0
    10  0000                     	endm
    11                           clrz	macro
    12                           	bcf	3,2
    13  0000                     	endm
    14                           setc	macro
    15                           	bsf	3,0
    16  0000                     	endm
    17                           setz	macro
    18                           	bsf	3,2
    19  0000                     	endm
    20                           skipc	macro
    21                           	btfss	3,0
    22  0000                     	endm
    23                           skipz	macro
    24                           	btfss	3,2
    25  0000                     	endm
    26                           skipnc	macro
    27                           	btfsc	3,0
    28  0000                     	endm
    29                           skipnz	macro
    30                           	btfsc	3,2
    31  0000                     	endm
    32  0000                     indf	equ	0
    33  0000                     indf0	equ	0
    34  0002                     pc	equ	2
    35  0002                     pcl	equ	2
    36  0003                     status	equ	3
    37  0004                     fsr	equ	4
    38  0004                     fsr0	equ	4
    39  0001                     c	equ	1
    40  0000                     z	equ	0
    41  000A                     pclath	equ	10
    42                           	FNCALL	_main,_on
    43                           	FNCALL	_main,_type
    44                           	FNCALL	_main,_address
    45                           	FNCALL	_main,_display
    46                           	FNCALL	_main,_clear
    47                           	FNCALL	_clear,_pulse
    48                           	FNCALL	_display,_pulse
    49                           	FNCALL	_address,_pulse
    50                           	FNCALL	_type,_pulse
    51                           	FNCALL	_on,_pulse
    52                           	FNCALL	_pulse,_delay
    53                           	FNROOT	_main
    54                           	global	main@F1624
    55                           	global	main@F1618
    56                           	global	main@F1620
    57                           	global	main@F1634
    58                           	global	main@F1632
    59                           	global	main@F1610
    60                           psect	idataBANK2,class=CODE,space=0,delta=2
    61                           global __pidataBANK2
    62  0F69                     __pidataBANK2:
    63                           	file	"E:\KTU\Softwares\MP lab\Carparking\carparking.c"
    64                           	line	75
    65                           
    66                           ;initializer for main@F1624
    67  0F69  346E               	retlw	06Eh
    68  0F6A  3465               	retlw	065h
    69  0F6B  3477               	retlw	077h
    70  0F6C  3420               	retlw	020h
    71  0F6D  3469               	retlw	069h
    72  0F6E  3474               	retlw	074h
    73  0F6F  3465               	retlw	065h
    74  0F70  346D               	retlw	06Dh
    75  0F71  3400               	retlw	0
    76  0F72  3400               	retlw	0
    77  0F73  3400               	retlw	0
    78  0F74  3400               	retlw	0
    79  0F75  3400               	retlw	0
    80  0F76  3400               	retlw	0
    81  0F77  3400               	retlw	0
    82                           psect	idataBANK3,class=CODE,space=0,delta=2
    83                           global __pidataBANK3
    84  0FC4                     __pidataBANK3:
    85                           	line	71
    86                           
    87                           ;initializer for main@F1618
    88  0FC4  3452               	retlw	052h
    89  0FC5  3465               	retlw	065h
    90  0FC6  3467               	retlw	067h
    91  0FC7  3469               	retlw	069h
    92  0FC8  3473               	retlw	073h
    93  0FC9  3474               	retlw	074h
    94  0FCA  3465               	retlw	065h
    95  0FCB  3472               	retlw	072h
    96  0FCC  3465               	retlw	065h
    97  0FCD  3464               	retlw	064h
    98  0FCE  3400               	retlw	0
    99  0FCF  3400               	retlw	0
   100  0FD0  3400               	retlw	0
   101  0FD1  3400               	retlw	0
   102  0FD2  3400               	retlw	0
   103                           	line	72
   104                           
   105                           ;initializer for main@F1620
   106  0FD3  3457               	retlw	057h
   107  0FD4  3472               	retlw	072h
   108  0FD5  346F               	retlw	06Fh
   109  0FD6  346E               	retlw	06Eh
   110  0FD7  3467               	retlw	067h
   111  0FD8  3420               	retlw	020h
   112  0FD9  346E               	retlw	06Eh
   113  0FDA  3475               	retlw	075h
   114  0FDB  346D               	retlw	06Dh
   115  0FDC  3462               	retlw	062h
   116  0FDD  3465               	retlw	065h
   117  0FDE  3472               	retlw	072h
   118  0FDF  3400               	retlw	0
   119  0FE0  3400               	retlw	0
   120  0FE1  3400               	retlw	0
   121                           	line	83
   122                           
   123                           ;initializer for main@F1634
   124  0FE2  3446               	retlw	046h
   125  0FE3  3472               	retlw	072h
   126  0FE4  3465               	retlw	065h
   127  0FE5  3465               	retlw	065h
   128  0FE6  3400               	retlw	0
   129  0FE7  3400               	retlw	0
   130  0FE8  3400               	retlw	0
   131  0FE9  3400               	retlw	0
   132  0FEA  3400               	retlw	0
   133  0FEB  3400               	retlw	0
   134  0FEC  3400               	retlw	0
   135  0FED  3400               	retlw	0
   136                           	line	82
   137                           
   138                           ;initializer for main@F1632
   139  0FEE  344E               	retlw	04Eh
   140  0FEF  3465               	retlw	065h
   141  0FF0  3461               	retlw	061h
   142  0FF1  3472               	retlw	072h
   143  0FF2  3400               	retlw	0
   144  0FF3  3400               	retlw	0
   145  0FF4  3400               	retlw	0
   146  0FF5  3400               	retlw	0
   147  0FF6  3400               	retlw	0
   148  0FF7  3400               	retlw	0
   149                           	line	65
   150                           
   151                           ;initializer for main@F1610
   152  0FF8  3457               	retlw	057h
   153  0FF9  3465               	retlw	065h
   154  0FFA  346C               	retlw	06Ch
   155  0FFB  3463               	retlw	063h
   156  0FFC  346F               	retlw	06Fh
   157  0FFD  346D               	retlw	06Dh
   158  0FFE  3465               	retlw	065h
   159  0FFF  3400               	retlw	0
   160                           	global	main@F1615
   161                           	global	_PORTA
   162  0005                     _PORTA	set	5
   163                           	global	_PORTB
   164  0006                     _PORTB	set	6
   165                           	global	_PORTC
   166  0007                     _PORTC	set	7
   167                           	global	_PORTD
   168  0008                     _PORTD	set	8
   169                           	global	_PORTE
   170  0009                     _PORTE	set	9
   171                           	global	_RA0
   172  0028                     _RA0	set	40
   173                           	global	_RA1
   174  0029                     _RA1	set	41
   175                           	global	_RA2
   176  002A                     _RA2	set	42
   177                           	global	_RC0
   178  0038                     _RC0	set	56
   179                           	global	_RC1
   180  0039                     _RC1	set	57
   181                           	global	_RC2
   182  003A                     _RC2	set	58
   183                           	global	_RC3
   184  003B                     _RC3	set	59
   185                           	global	_RC4
   186  003C                     _RC4	set	60
   187                           	global	_RC5
   188  003D                     _RC5	set	61
   189                           	global	_RC6
   190  003E                     _RC6	set	62
   191                           	global	_RC7
   192  003F                     _RC7	set	63
   193                           	global	_RD0
   194  0040                     _RD0	set	64
   195                           	global	_RD1
   196  0041                     _RD1	set	65
   197                           	global	_RD2
   198  0042                     _RD2	set	66
   199                           	global	_RD3
   200  0043                     _RD3	set	67
   201                           	global	_RD4
   202  0044                     _RD4	set	68
   203                           	global	_RD5
   204  0045                     _RD5	set	69
   205                           	global	_RD6
   206  0046                     _RD6	set	70
   207                           	global	_RE0
   208  0048                     _RE0	set	72
   209                           	global	_TRISA
   210  0085                     _TRISA	set	133
   211                           	global	_TRISB
   212  0086                     _TRISB	set	134
   213                           	global	_TRISC
   214  0087                     _TRISC	set	135
   215                           	global	_TRISD
   216  0088                     _TRISD	set	136
   217                           	global	_TRISE
   218  0089                     _TRISE	set	137
   219                           	global	_ANSEL
   220  0188                     _ANSEL	set	392
   221                           	global	_ANSELH
   222  0189                     _ANSELH	set	393
   223                           	file	"carparking.as"
   224                           	line	#
   225                           psect cinit,class=CODE,delta=2
   226                           global start_initialization
   227  0F9D                     start_initialization:
   228                           
   229                           psect	bssBANK3,class=BANK3,space=1
   230                           global __pbssBANK3
   231  01CC                     __pbssBANK3:
   232  01CC                     main@F1615:
   233  01CC                            ds      16
   234                           
   235                           psect	dataBANK3,class=BANK3,space=1
   236                           global __pdataBANK3
   237  0190                     __pdataBANK3:
   238                           	file	"E:\KTU\Softwares\MP lab\Carparking\carparking.c"
   239                           	line	71
   240  0190                     main@F1618:
   241  0190                            ds      15
   242                           
   243                           psect	dataBANK3
   244                           	file	"E:\KTU\Softwares\MP lab\Carparking\carparking.c"
   245                           	line	72
   246  019F                     main@F1620:
   247  019F                            ds      15
   248                           
   249                           psect	dataBANK3
   250                           	file	"E:\KTU\Softwares\MP lab\Carparking\carparking.c"
   251                           	line	83
   252  01AE                     main@F1634:
   253  01AE                            ds      12
   254                           
   255                           psect	dataBANK3
   256                           	file	"E:\KTU\Softwares\MP lab\Carparking\carparking.c"
   257                           	line	82
   258  01BA                     main@F1632:
   259  01BA                            ds      10
   260                           
   261                           psect	dataBANK3
   262                           	file	"E:\KTU\Softwares\MP lab\Carparking\carparking.c"
   263                           	line	65
   264  01C4                     main@F1610:
   265  01C4                            ds      8
   266                           
   267                           psect	dataBANK2,class=BANK2,space=1
   268                           global __pdataBANK2
   269  0110                     __pdataBANK2:
   270                           	file	"E:\KTU\Softwares\MP lab\Carparking\carparking.c"
   271                           	line	75
   272  0110                     main@F1624:
   273  0110                            ds      15
   274                           
   275                           psect clrtext,class=CODE,delta=2
   276                           global clear_ram
   277                           ;	Called with FSR containing the base address, and
   278                           ;	W with the last address+1
   279  0F23                     clear_ram:
   280  0F23  0064               	clrwdt			;clear the watchdog before getting into this loop
   281  0F24                     clrloop:
   282  0F24  0180               	clrf	indf		;clear RAM location pointed to by FSR
   283  0F25  0A84               	incf	fsr,f		;increment pointer
   284  0F26  0604               	xorwf	fsr,w		;XOR with final address
   285  0F27  1903               	btfsc	status,2	;have we reached the end yet?
   286  0F28  3400               	retlw	0		;all done for this memory range, return
   287  0F29  0604               	xorwf	fsr,w		;XOR again to restore value
   288  0F2A  2F24               	goto	clrloop		;do the next byte
   289                           
   290                           ; Clear objects allocated to BANK3
   291                           psect cinit,class=CODE,delta=2
   292  0F9D  1783               	bsf	status, 7	;select IRP bank2
   293  0F9E  30CC               	movlw	low(__pbssBANK3)
   294  0F9F  0084               	movwf	fsr
   295  0FA0  30DC               	movlw	low((__pbssBANK3)+010h)
   296  0FA1  120A  158A  2723   	fcall	clear_ram
              120A  158A         
   297                           global btemp
   298                           psect inittext,class=CODE,delta=2
   299                           global init_fetch,btemp
   300                           ;	Called with low address in FSR and high address in W
   301  0F78                     init_fetch:
   302  0F78  087E               	movf btemp,w
   303  0F79  008A               	movwf pclath
   304  0F7A  087F               	movf btemp+1,w
   305  0F7B  0082               	movwf pc
   306                           global init_ram
   307                           ;Called with:
   308                           ;	high address of idata address in btemp 
   309                           ;	low address of idata address in btemp+1 
   310                           ;	low address of data in FSR
   311                           ;	high address + 1 of data in btemp-1
   312  0F7C                     init_ram:
   313  0F7C  2778  120A  158A   	fcall init_fetch
   314  0F7F  0080               	movwf indf,f
   315  0F80  0A84               	incf fsr,f
   316  0F81  0804               	movf fsr,w
   317  0F82  067D               	xorwf btemp-1,w
   318  0F83  1903               	btfsc status,2
   319  0F84  3400               	retlw 0
   320  0F85  0AFF               	incf btemp+1,f
   321  0F86  1903               	btfsc status,2
   322  0F87  0AFE               	incf btemp,f
   323  0F88  2F7C               	goto init_ram
   324                           ; Initialize objects allocated to BANK3
   325                           psect cinit,class=CODE,delta=2
   326                           global init_ram, __pidataBANK3
   327  0FA6  30CC               	movlw low(__pdataBANK3+60)
   328  0FA7  00FD               	movwf btemp-1,f
   329  0FA8  300F               	movlw high(__pidataBANK3)
   330  0FA9  00FE               	movwf btemp,f
   331  0FAA  30C4               	movlw low(__pidataBANK3)
   332  0FAB  00FF               	movwf btemp+1,f
   333  0FAC  3090               	movlw low(__pdataBANK3)
   334  0FAD  0084               	movwf fsr,f
   335  0FAE  120A  158A  277C   	fcall init_ram
              120A  158A         
   336                           ; Initialize objects allocated to BANK2
   337                           psect cinit,class=CODE,delta=2
   338                           global init_ram, __pidataBANK2
   339  0FB3  301F               	movlw low(__pdataBANK2+15)
   340  0FB4  00FD               	movwf btemp-1,f
   341  0FB5  300F               	movlw high(__pidataBANK2)
   342  0FB6  00FE               	movwf btemp,f
   343  0FB7  3069               	movlw low(__pidataBANK2)
   344  0FB8  00FF               	movwf btemp+1,f
   345  0FB9  3010               	movlw low(__pdataBANK2)
   346  0FBA  0084               	movwf fsr,f
   347  0FBB  120A  158A  277C   	fcall init_ram
              120A  158A         
   348                           psect cinit,class=CODE,delta=2
   349                           global end_of_initialization
   350                           
   351                           ;End of C runtime variable initialization code
   352                           
   353  0FC0                     end_of_initialization:
   354  0FC0  0183               clrf status
   355  0FC1  120A  118A  281C   ljmp _main	;jump to C main() function
   356                           psect	cstackBANK3,class=BANK3,space=1
   357                           global __pcstackBANK3
   358  01DC                     __pcstackBANK3:
   359                           	global	main@e
   360  01DC                     main@e:	; 2 bytes @ 0x0
   361  01DC                     	ds	2
   362                           	global	main@control
   363  01DE                     main@control:	; 2 bytes @ 0x2
   364  01DE                     	ds	2
   365                           	global	main@k
   366  01E0                     main@k:	; 2 bytes @ 0x4
   367  01E0                     	ds	2
   368                           	global	main@i
   369  01E2                     main@i:	; 2 bytes @ 0x6
   370  01E2                     	ds	2
   371                           	global	main@j
   372  01E4                     main@j:	; 2 bytes @ 0x8
   373  01E4                     	ds	2
   374                           psect	cstackBANK1,class=BANK1,space=1
   375                           global __pcstackBANK1
   376  00A0                     __pcstackBANK1:
   377                           	global	main@empty
   378  00A0                     main@empty:	; 30 bytes @ 0x0
   379  00A0                     	ds	30
   380                           	global	main@val
   381  00BE                     main@val:	; 16 bytes @ 0x1E
   382  00BE                     	ds	16
   383                           	global	main@sensor
   384  00CE                     main@sensor:	; 16 bytes @ 0x2E
   385  00CE                     	ds	16
   386                           	global	main@arr
   387  00DE                     main@arr:	; 15 bytes @ 0x3E
   388  00DE                     	ds	15
   389                           	global	main@count
   390  00ED                     main@count:	; 2 bytes @ 0x4D
   391  00ED                     	ds	2
   392                           psect	cstackCOMMON,class=COMMON,space=1
   393                           global __pcstackCOMMON
   394  0070                     __pcstackCOMMON:
   395                           	global	?_delay
   396  0070                     ?_delay:	; 0 bytes @ 0x0
   397                           	global	?_pulse
   398  0070                     ?_pulse:	; 0 bytes @ 0x0
   399                           	global	?_on
   400  0070                     ?_on:	; 0 bytes @ 0x0
   401                           	global	?_type
   402  0070                     ?_type:	; 0 bytes @ 0x0
   403                           	global	?_address
   404  0070                     ?_address:	; 0 bytes @ 0x0
   405                           	global	?_display
   406  0070                     ?_display:	; 0 bytes @ 0x0
   407                           	global	?_clear
   408  0070                     ?_clear:	; 0 bytes @ 0x0
   409                           	global	?_main
   410  0070                     ?_main:	; 0 bytes @ 0x0
   411                           	global	delay@del
   412  0070                     delay@del:	; 2 bytes @ 0x0
   413  0070                     	ds	2
   414                           	global	??_delay
   415  0072                     ??_delay:	; 0 bytes @ 0x2
   416                           	global	??_pulse
   417  0072                     ??_pulse:	; 0 bytes @ 0x2
   418                           	global	??_on
   419  0072                     ??_on:	; 0 bytes @ 0x2
   420                           	global	??_type
   421  0072                     ??_type:	; 0 bytes @ 0x2
   422                           	global	??_address
   423  0072                     ??_address:	; 0 bytes @ 0x2
   424                           	global	??_display
   425  0072                     ??_display:	; 0 bytes @ 0x2
   426                           	global	??_clear
   427  0072                     ??_clear:	; 0 bytes @ 0x2
   428                           	global	address@data
   429  0072                     address@data:	; 1 bytes @ 0x2
   430                           	global	display@data
   431  0072                     display@data:	; 1 bytes @ 0x2
   432  0072                     	ds	1
   433                           	global	??_main
   434  0073                     ??_main:	; 0 bytes @ 0x3
   435  0073                     	ds	6
   436                           psect	cstackBANK0,class=BANK0,space=1
   437                           global __pcstackBANK0
   438  0020                     __pcstackBANK0:
   439                           	global	main@new
   440  0020                     main@new:	; 15 bytes @ 0x0
   441  0020                     	ds	15
   442                           	global	main@welcome
   443  002F                     main@welcome:	; 8 bytes @ 0xF
   444  002F                     	ds	8
   445                           	global	main@regi
   446  0037                     main@regi:	; 15 bytes @ 0x17
   447  0037                     	ds	15
   448                           	global	main@wrong
   449  0046                     main@wrong:	; 15 bytes @ 0x26
   450  0046                     	ds	15
   451                           	global	main@free
   452  0055                     main@free:	; 12 bytes @ 0x35
   453  0055                     	ds	12
   454                           	global	main@nearer
   455  0061                     main@nearer:	; 10 bytes @ 0x41
   456  0061                     	ds	10
   457                           	global	main@temp
   458  006B                     main@temp:	; 2 bytes @ 0x4B
   459  006B                     	ds	2
   460                           	global	main@state
   461  006D                     main@state:	; 2 bytes @ 0x4D
   462  006D                     	ds	2
   463 ;;Data sizes: Strings 0, constant 0, data 75, bss 16, persistent 0 stack 0
   464 ;;Auto spaces:   Size  Autos    Used
   465 ;; COMMON          14      9       9
   466 ;; BANK0           80     79      79
   467 ;; BANK1           80     79      79
   468 ;; BANK3           96     10      86
   469 ;; BANK2           96      0      15
   470                           
   471 ;;
   472 ;; Pointer list with targets:
   473                           
   474                           
   475                           
   476 ;;
   477 ;; Critical Paths under _main in COMMON
   478 ;;
   479 ;;   _main->_address
   480 ;;   _main->_display
   481 ;;   _pulse->_delay
   482 ;;
   483 ;; Critical Paths under _main in BANK0
   484 ;;
   485 ;;   None.
   486 ;;
   487 ;; Critical Paths under _main in BANK1
   488 ;;
   489 ;;   None.
   490 ;;
   491 ;; Critical Paths under _main in BANK3
   492 ;;
   493 ;;   None.
   494 ;;
   495 ;; Critical Paths under _main in BANK2
   496 ;;
   497 ;;   None.
   498                           
   499 ;;
   500 ;;Main: autosize = 0, tempsize = 6, incstack = 0, save=0
   501 ;;
   502                           
   503 ;;
   504 ;;Call Graph Tables:
   505 ;;
   506 ;; ---------------------------------------------------------------------------------
   507 ;; (Depth) Function   	        Calls       Base Space   Used Autos Params    Refs
   508 ;; ---------------------------------------------------------------------------------
   509 ;; (0) _main                                               176   176      0    2855
   510 ;;                                              3 COMMON     6     6      0
   511 ;;                                              0 BANK0     79    79      0
   512 ;;                                              0 BANK1     79    79      0
   513 ;;                                              0 BANK3     10    10      0
   514 ;;                                 _on
   515 ;;                               _type
   516 ;;                            _address
   517 ;;                            _display
   518 ;;                              _clear
   519 ;; ---------------------------------------------------------------------------------
   520 ;; (1) _clear                                                0     0      0      22
   521 ;;                              _pulse
   522 ;; ---------------------------------------------------------------------------------
   523 ;; (1) _display                                              1     1      0      44
   524 ;;                                              2 COMMON     1     1      0
   525 ;;                              _pulse
   526 ;; ---------------------------------------------------------------------------------
   527 ;; (1) _address                                              1     1      0      44
   528 ;;                                              2 COMMON     1     1      0
   529 ;;                              _pulse
   530 ;; ---------------------------------------------------------------------------------
   531 ;; (1) _type                                                 0     0      0      22
   532 ;;                              _pulse
   533 ;; ---------------------------------------------------------------------------------
   534 ;; (1) _on                                                   0     0      0      22
   535 ;;                              _pulse
   536 ;; ---------------------------------------------------------------------------------
   537 ;; (2) _pulse                                                0     0      0      22
   538 ;;                              _delay
   539 ;; ---------------------------------------------------------------------------------
   540 ;; (3) _delay                                                2     0      2      22
   541 ;;                                              0 COMMON     2     0      2
   542 ;; ---------------------------------------------------------------------------------
   543 ;; Estimated maximum stack depth 3
   544 ;; ---------------------------------------------------------------------------------
   545                           
   546 ;; Call Graph Graphs:
   547                           
   548 ;; _main (ROOT)
   549 ;;   _on
   550 ;;     _pulse
   551 ;;       _delay
   552 ;;   _type
   553 ;;     _pulse
   554 ;;       _delay
   555 ;;   _address
   556 ;;     _pulse
   557 ;;       _delay
   558 ;;   _display
   559 ;;     _pulse
   560 ;;       _delay
   561 ;;   _clear
   562 ;;     _pulse
   563 ;;       _delay
   564 ;;
   565                           
   566 ;; Address spaces:
   567                           
   568 ;;Name               Size   Autos  Total    Cost      Usage
   569 ;;BANK3               60      A      56       9       89.6%
   570 ;;BITBANK3            60      0       0       8        0.0%
   571 ;;SFR3                 0      0       0       4        0.0%
   572 ;;BITSFR3              0      0       0       4        0.0%
   573 ;;BANK2               60      0       F      11       15.6%
   574 ;;BITBANK2            60      0       0      10        0.0%
   575 ;;SFR2                 0      0       0       5        0.0%
   576 ;;BITSFR2              0      0       0       5        0.0%
   577 ;;SFR1                 0      0       0       2        0.0%
   578 ;;BITSFR1              0      0       0       2        0.0%
   579 ;;BANK1               50     4F      4F       7       98.8%
   580 ;;BITBANK1            50      0       0       6        0.0%
   581 ;;CODE                 0      0       0       0        0.0%
   582 ;;DATA                 0      0     10F      12        0.0%
   583 ;;ABS                  0      0     10C       3        0.0%
   584 ;;NULL                 0      0       0       0        0.0%
   585 ;;STACK                0      0       3       2        0.0%
   586 ;;BANK0               50     4F      4F       5       98.8%
   587 ;;BITBANK0            50      0       0       4        0.0%
   588 ;;SFR0                 0      0       0       1        0.0%
   589 ;;BITSFR0              0      0       0       1        0.0%
   590 ;;COMMON               E      9       9       1       64.3%
   591 ;;BITCOMMON            E      0       0       0        0.0%
   592 ;;EEDATA             100      0       0       0        0.0%
   593                           
   594                           	global	_main
   595                           psect	maintext,global,class=CODE,delta=2
   596                           global __pmaintext
   597  001C                     __pmaintext:
   598                           
   599 ;; *************** function _main *****************
   600 ;; Defined at:
   601 ;;		line 52 in file "E:\KTU\Softwares\MP lab\Carparking\carparking.c"
   602 ;; Parameters:    Size  Location     Type
   603 ;;		None
   604 ;; Auto vars:     Size  Location     Type
   605 ;;  empty          30    0[BANK1 ] int [15]
   606 ;;  sensor         16   46[BANK1 ] int [8]
   607 ;;  val            16   30[BANK1 ] int [8]
   608 ;;  arr            15   62[BANK1 ] unsigned char [15]
   609 ;;  wrong          15   38[BANK0 ] unsigned char [15]
   610 ;;  regi           15   23[BANK0 ] unsigned char [15]
   611 ;;  new            15    0[BANK0 ] unsigned char [15]
   612 ;;  free           12   53[BANK0 ] unsigned char [12]
   613 ;;  nearer         10   65[BANK0 ] unsigned char [10]
   614 ;;  welcome         8   15[BANK0 ] unsigned char [8]
   615 ;;  j               2    8[BANK3 ] int 
   616 ;;  i               2    6[BANK3 ] int 
   617 ;;  k               2    4[BANK3 ] int 
   618 ;;  control         2    2[BANK3 ] int 
   619 ;;  e               2    0[BANK3 ] int 
   620 ;;  count           2   77[BANK1 ] int 
   621 ;;  state           2   77[BANK0 ] int 
   622 ;;  temp            2   75[BANK0 ] int 
   623 ;;  l               2    0        int 
   624 ;; Return value:  Size  Location     Type
   625 ;;		None               void
   626 ;; Registers used:
   627 ;;		wreg, fsr0l, fsr0h, status,2, status,0, btemp+1, pclath, cstack
   628 ;; Tracked objects:
   629 ;;		On entry : 17F/0
   630 ;;		On exit  : 0/0
   631 ;;		Unchanged: 0/0
   632 ;; Data sizes:     COMMON   BANK0   BANK1   BANK3   BANK2
   633 ;;      Params:         0       0       0       0       0
   634 ;;      Locals:         0      79      79      10       0
   635 ;;      Temps:          6       0       0       0       0
   636 ;;      Totals:         6      79      79      10       0
   637 ;;Total ram usage:      174 bytes
   638 ;; Hardware stack levels required when called:    3
   639 ;; This function calls:
   640 ;;		_on
   641 ;;		_type
   642 ;;		_address
   643 ;;		_display
   644 ;;		_clear
   645 ;; This function is called by:
   646 ;;		Startup code after reset
   647 ;; This function uses a non-reentrant model
   648 ;;
   649                           psect	maintext
   650                           	file	"E:\KTU\Softwares\MP lab\Carparking\carparking.c"
   651                           	line	52
   652                           	global	__size_of_main
   653  07E4                     	__size_of_main	equ	__end_of_main-_main
   654                           	
   655  001C                     _main:	
   656                           	opt	stack 5
   657                           ; Regs used in _main: [wreg-fsr0h+status,2+status,0+btemp+1+pclath+cstack]
   658                           	line	53
   659                           	
   660  001C                     l2981:	
   661                           ;carparking.c: 53: PORTA=0X00;
   662  001C  1283               	bcf	status, 5	;RP0=0, select bank0
   663  001D  1303               	bcf	status, 6	;RP1=0, select bank0
   664  001E  0185               	clrf	(5)	;volatile
   665                           	line	54
   666                           ;carparking.c: 54: TRISA=0X00;
   667  001F  1683               	bsf	status, 5	;RP0=1, select bank1
   668  0020  1303               	bcf	status, 6	;RP1=0, select bank1
   669  0021  0185               	clrf	(133)^080h	;volatile
   670                           	line	55
   671                           ;carparking.c: 55: PORTB=0X00;
   672  0022  1283               	bcf	status, 5	;RP0=0, select bank0
   673  0023  1303               	bcf	status, 6	;RP1=0, select bank0
   674  0024  0186               	clrf	(6)	;volatile
   675                           	line	56
   676                           ;carparking.c: 56: TRISB=0X00;
   677  0025  1683               	bsf	status, 5	;RP0=1, select bank1
   678  0026  1303               	bcf	status, 6	;RP1=0, select bank1
   679  0027  0186               	clrf	(134)^080h	;volatile
   680                           	line	57
   681                           ;carparking.c: 57: PORTC=0X00;
   682  0028  1283               	bcf	status, 5	;RP0=0, select bank0
   683  0029  1303               	bcf	status, 6	;RP1=0, select bank0
   684  002A  0187               	clrf	(7)	;volatile
   685                           	line	58
   686                           	
   687  002B                     l2983:	
   688                           ;carparking.c: 58: TRISC=0XFF;
   689  002B  30FF               	movlw	(0FFh)
   690  002C  1683               	bsf	status, 5	;RP0=1, select bank1
   691  002D  1303               	bcf	status, 6	;RP1=0, select bank1
   692  002E  0087               	movwf	(135)^080h	;volatile
   693                           	line	59
   694                           	
   695  002F                     l2985:	
   696                           ;carparking.c: 59: PORTD=0X00;
   697  002F  1283               	bcf	status, 5	;RP0=0, select bank0
   698  0030  1303               	bcf	status, 6	;RP1=0, select bank0
   699  0031  0188               	clrf	(8)	;volatile
   700                           	line	60
   701                           ;carparking.c: 60: TRISD=0X07;
   702  0032  3007               	movlw	(07h)
   703  0033  1683               	bsf	status, 5	;RP0=1, select bank1
   704  0034  1303               	bcf	status, 6	;RP1=0, select bank1
   705  0035  0088               	movwf	(136)^080h	;volatile
   706                           	line	61
   707                           	
   708  0036                     l2987:	
   709                           ;carparking.c: 61: PORTE=0X00;
   710  0036  1283               	bcf	status, 5	;RP0=0, select bank0
   711  0037  1303               	bcf	status, 6	;RP1=0, select bank0
   712  0038  0189               	clrf	(9)	;volatile
   713                           	line	62
   714                           	
   715  0039                     l2989:	
   716                           ;carparking.c: 62: TRISE=0X00;
   717  0039  1683               	bsf	status, 5	;RP0=1, select bank1
   718  003A  1303               	bcf	status, 6	;RP1=0, select bank1
   719  003B  0189               	clrf	(137)^080h	;volatile
   720                           	line	63
   721                           	
   722  003C                     l2991:	
   723                           ;carparking.c: 63: ANSEL=0X00;
   724  003C  1683               	bsf	status, 5	;RP0=1, select bank3
   725  003D  1703               	bsf	status, 6	;RP1=1, select bank3
   726  003E  0188               	clrf	(392)^0180h	;volatile
   727                           	line	64
   728                           	
   729  003F                     l2993:	
   730                           ;carparking.c: 64: ANSELH=0X00;
   731  003F  0189               	clrf	(393)^0180h	;volatile
   732                           	line	65
   733                           	
   734  0040                     l2995:	
   735                           ;carparking.c: 65: char welcome[8]="Welcome";
   736  0040  302F               	movlw	(main@welcome)&0ffh
   737  0041  0084               	movwf	fsr0
   738  0042  30C4               	movlw	low(main@F1610)
   739  0043  00F3               	movwf	(??_main+0)+0
   740  0044  0804               	movf	fsr0,w
   741  0045  00F4               	movwf	((??_main+0)+0+1)
   742  0046  3008               	movlw	8
   743  0047  00F5               	movwf	((??_main+0)+0+2)
   744  0048                     u3060:
   745  0048  0873               	movf	(??_main+0)+0,w
   746  0049  0084               	movwf	fsr0
   747  004A  1783               	bsf	status, 7	;select IRP bank3
   748                           	
   749  004B  0800               	movf	indf,w
   750  004C  00F6               	movwf	((??_main+0)+0+3)
   751  004D  0AF3               	incf	(??_main+0)+0,f
   752  004E  0874               	movf	((??_main+0)+0+1),w
   753  004F  0084               	movwf	fsr0
   754  0050  1383               	bcf	status, 7	;select IRP bank0
   755                           	
   756  0051  0876               	movf	((??_main+0)+0+3),w
   757  0052  0080               	movwf	indf
   758  0053  0AF4               	incf	((??_main+0)+0+1),f
   759  0054  0BF5               	decfsz	((??_main+0)+0+2),f
   760  0055  2848               	goto	u3060
   761                           	line	66
   762                           	
   763  0056                     l2997:	
   764                           ;carparking.c: 66: int control=1;
   765  0056  3001               	movlw	low(01h)
   766  0057  00DE               	movwf	(main@control)^0180h
   767  0058  3000               	movlw	high(01h)
   768  0059  00DF               	movwf	((main@control)^0180h)+1
   769                           	line	67
   770                           	
   771  005A                     l2999:	
   772                           ;carparking.c: 67: int j=0;
   773  005A  01E4               	clrf	(main@j)^0180h
   774  005B  01E5               	clrf	(main@j+1)^0180h
   775                           	line	68
   776                           	
   777  005C                     l3001:	
   778                           ;carparking.c: 68: int k=0;
   779  005C  01E0               	clrf	(main@k)^0180h
   780  005D  01E1               	clrf	(main@k+1)^0180h
   781                           	line	69
   782                           ;carparking.c: 69: int sensor[8]={0,0,0,0,0,0,0,0};
   783  005E  30CE               	movlw	(main@sensor)&0ffh
   784  005F  0084               	movwf	fsr0
   785  0060  30CC               	movlw	low(main@F1615)
   786  0061  00F3               	movwf	(??_main+0)+0
   787  0062  0804               	movf	fsr0,w
   788  0063  00F4               	movwf	((??_main+0)+0+1)
   789  0064  3010               	movlw	16
   790  0065  00F5               	movwf	((??_main+0)+0+2)
   791  0066                     u3070:
   792  0066  0873               	movf	(??_main+0)+0,w
   793  0067  0084               	movwf	fsr0
   794  0068  1783               	bsf	status, 7	;select IRP bank3
   795                           	
   796  0069  0800               	movf	indf,w
   797  006A  00F6               	movwf	((??_main+0)+0+3)
   798  006B  0AF3               	incf	(??_main+0)+0,f
   799  006C  0874               	movf	((??_main+0)+0+1),w
   800  006D  0084               	movwf	fsr0
   801  006E  1383               	bcf	status, 7	;select IRP bank1
   802                           	
   803  006F  0876               	movf	((??_main+0)+0+3),w
   804  0070  0080               	movwf	indf
   805  0071  0AF4               	incf	((??_main+0)+0+1),f
   806  0072  0BF5               	decfsz	((??_main+0)+0+2),f
   807  0073  2866               	goto	u3070
   808                           	line	71
   809                           ;carparking.c: 70: char arr[15];
   810                           ;carparking.c: 71: char regi[15]="Registered";
   811  0074  3037               	movlw	(main@regi)&0ffh
   812  0075  0084               	movwf	fsr0
   813  0076  3090               	movlw	low(main@F1618)
   814  0077  00F3               	movwf	(??_main+0)+0
   815  0078  0804               	movf	fsr0,w
   816  0079  00F4               	movwf	((??_main+0)+0+1)
   817  007A  300F               	movlw	15
   818  007B  00F5               	movwf	((??_main+0)+0+2)
   819  007C                     u3080:
   820  007C  0873               	movf	(??_main+0)+0,w
   821  007D  0084               	movwf	fsr0
   822  007E  1783               	bsf	status, 7	;select IRP bank3
   823                           	
   824  007F  0800               	movf	indf,w
   825  0080  00F6               	movwf	((??_main+0)+0+3)
   826  0081  0AF3               	incf	(??_main+0)+0,f
   827  0082  0874               	movf	((??_main+0)+0+1),w
   828  0083  0084               	movwf	fsr0
   829  0084  1383               	bcf	status, 7	;select IRP bank0
   830                           	
   831  0085  0876               	movf	((??_main+0)+0+3),w
   832  0086  0080               	movwf	indf
   833  0087  0AF4               	incf	((??_main+0)+0+1),f
   834  0088  0BF5               	decfsz	((??_main+0)+0+2),f
   835  0089  287C               	goto	u3080
   836                           	line	72
   837                           ;carparking.c: 72: char wrong[15]="Wrong number";
   838  008A  3046               	movlw	(main@wrong)&0ffh
   839  008B  0084               	movwf	fsr0
   840  008C  309F               	movlw	low(main@F1620)
   841  008D  00F3               	movwf	(??_main+0)+0
   842  008E  0804               	movf	fsr0,w
   843  008F  00F4               	movwf	((??_main+0)+0+1)
   844  0090  300F               	movlw	15
   845  0091  00F5               	movwf	((??_main+0)+0+2)
   846  0092                     u3090:
   847  0092  0873               	movf	(??_main+0)+0,w
   848  0093  0084               	movwf	fsr0
   849  0094  1783               	bsf	status, 7	;select IRP bank3
   850                           	
   851  0095  0800               	movf	indf,w
   852  0096  00F6               	movwf	((??_main+0)+0+3)
   853  0097  0AF3               	incf	(??_main+0)+0,f
   854  0098  0874               	movf	((??_main+0)+0+1),w
   855  0099  0084               	movwf	fsr0
   856  009A  1383               	bcf	status, 7	;select IRP bank0
   857                           	
   858  009B  0876               	movf	((??_main+0)+0+3),w
   859  009C  0080               	movwf	indf
   860  009D  0AF4               	incf	((??_main+0)+0+1),f
   861  009E  0BF5               	decfsz	((??_main+0)+0+2),f
   862  009F  2892               	goto	u3090
   863                           	line	73
   864                           	
   865  00A0                     l3003:	
   866                           ;carparking.c: 73: int count=0;
   867  00A0  1683               	bsf	status, 5	;RP0=1, select bank1
   868  00A1  1303               	bcf	status, 6	;RP1=0, select bank1
   869  00A2  01ED               	clrf	(main@count)^080h
   870  00A3  01EE               	clrf	(main@count+1)^080h
   871                           	line	74
   872                           	
   873  00A4                     l3005:	
   874                           ;carparking.c: 74: int state=0;
   875  00A4  1283               	bcf	status, 5	;RP0=0, select bank0
   876  00A5  1303               	bcf	status, 6	;RP1=0, select bank0
   877  00A6  01ED               	clrf	(main@state)
   878  00A7  01EE               	clrf	(main@state+1)
   879                           	line	75
   880                           ;carparking.c: 75: char new[15]="new item";
   881  00A8  3020               	movlw	(main@new)&0ffh
   882  00A9  0084               	movwf	fsr0
   883  00AA  3010               	movlw	low(main@F1624)
   884  00AB  00F3               	movwf	(??_main+0)+0
   885  00AC  0804               	movf	fsr0,w
   886  00AD  00F4               	movwf	((??_main+0)+0+1)
   887  00AE  300F               	movlw	15
   888  00AF  00F5               	movwf	((??_main+0)+0+2)
   889  00B0                     u3100:
   890  00B0  0873               	movf	(??_main+0)+0,w
   891  00B1  0084               	movwf	fsr0
   892  00B2  1783               	bsf	status, 7	;select IRP bank2
   893                           	
   894  00B3  0800               	movf	indf,w
   895  00B4  00F6               	movwf	((??_main+0)+0+3)
   896  00B5  0AF3               	incf	(??_main+0)+0,f
   897  00B6  0874               	movf	((??_main+0)+0+1),w
   898  00B7  0084               	movwf	fsr0
   899  00B8  1383               	bcf	status, 7	;select IRP bank0
   900                           	
   901  00B9  0876               	movf	((??_main+0)+0+3),w
   902  00BA  0080               	movwf	indf
   903  00BB  0AF4               	incf	((??_main+0)+0+1),f
   904  00BC  0BF5               	decfsz	((??_main+0)+0+2),f
   905  00BD  28B0               	goto	u3100
   906                           	line	79
   907                           	
   908  00BE                     l3007:	
   909                           ;carparking.c: 76: int temp;
   910                           ;carparking.c: 77: int i;
   911                           ;carparking.c: 78: int l;
   912                           ;carparking.c: 79: int e=0;
   913  00BE  1683               	bsf	status, 5	;RP0=1, select bank3
   914  00BF  1703               	bsf	status, 6	;RP1=1, select bank3
   915  00C0  01DC               	clrf	(main@e)^0180h
   916  00C1  01DD               	clrf	(main@e+1)^0180h
   917                           	line	82
   918                           	
   919  00C2                     l3009:	
   920                           ;carparking.c: 80: int val[8];
   921                           ;carparking.c: 81: int empty[15];
   922                           ;carparking.c: 82: char nearer[10]="Near";
   923  00C2  3061               	movlw	(main@nearer)&0ffh
   924  00C3  0084               	movwf	fsr0
   925  00C4  30BA               	movlw	low(main@F1632)
   926  00C5  00F3               	movwf	(??_main+0)+0
   927  00C6  0804               	movf	fsr0,w
   928  00C7  00F4               	movwf	((??_main+0)+0+1)
   929  00C8  300A               	movlw	10
   930  00C9  00F5               	movwf	((??_main+0)+0+2)
   931  00CA                     u3110:
   932  00CA  0873               	movf	(??_main+0)+0,w
   933  00CB  0084               	movwf	fsr0
   934  00CC  1783               	bsf	status, 7	;select IRP bank3
   935                           	
   936  00CD  0800               	movf	indf,w
   937  00CE  00F6               	movwf	((??_main+0)+0+3)
   938  00CF  0AF3               	incf	(??_main+0)+0,f
   939  00D0  0874               	movf	((??_main+0)+0+1),w
   940  00D1  0084               	movwf	fsr0
   941  00D2  1383               	bcf	status, 7	;select IRP bank0
   942                           	
   943  00D3  0876               	movf	((??_main+0)+0+3),w
   944  00D4  0080               	movwf	indf
   945  00D5  0AF4               	incf	((??_main+0)+0+1),f
   946  00D6  0BF5               	decfsz	((??_main+0)+0+2),f
   947  00D7  28CA               	goto	u3110
   948                           	line	83
   949                           	
   950  00D8                     l3011:	
   951                           ;carparking.c: 83: char free[12]="Free";
   952  00D8  3055               	movlw	(main@free)&0ffh
   953  00D9  0084               	movwf	fsr0
   954  00DA  30AE               	movlw	low(main@F1634)
   955  00DB  00F3               	movwf	(??_main+0)+0
   956  00DC  0804               	movf	fsr0,w
   957  00DD  00F4               	movwf	((??_main+0)+0+1)
   958  00DE  300C               	movlw	12
   959  00DF  00F5               	movwf	((??_main+0)+0+2)
   960  00E0                     u3120:
   961  00E0  0873               	movf	(??_main+0)+0,w
   962  00E1  0084               	movwf	fsr0
   963  00E2  1783               	bsf	status, 7	;select IRP bank3
   964                           	
   965  00E3  0800               	movf	indf,w
   966  00E4  00F6               	movwf	((??_main+0)+0+3)
   967  00E5  0AF3               	incf	(??_main+0)+0,f
   968  00E6  0874               	movf	((??_main+0)+0+1),w
   969  00E7  0084               	movwf	fsr0
   970  00E8  1383               	bcf	status, 7	;select IRP bank0
   971                           	
   972  00E9  0876               	movf	((??_main+0)+0+3),w
   973  00EA  0080               	movwf	indf
   974  00EB  0AF4               	incf	((??_main+0)+0+1),f
   975  00EC  0BF5               	decfsz	((??_main+0)+0+2),f
   976  00ED  28E0               	goto	u3120
   977                           	line	84
   978                           	
   979  00EE                     l3013:	
   980                           ;carparking.c: 84: on();
   981  00EE  120A  158A  272B   	fcall	_on
              120A  118A         
   982                           	line	85
   983                           	
   984  00F3                     l3015:	
   985                           ;carparking.c: 85: type();
   986  00F3  120A  158A  2737   	fcall	_type
              120A  118A         
   987  00F8  28F9               	goto	l3017
   988                           	line	86
   989                           ;carparking.c: 86: while(1)
   990                           	
   991  00F9                     l1063:	
   992                           	line	88
   993                           	
   994  00F9                     l3017:	
   995                           ;carparking.c: 87: {
   996                           ;carparking.c: 88: if(control==1)
   997  00F9  3001               	movlw	01h
   998  00FA  1683               	bsf	status, 5	;RP0=1, select bank3
   999  00FB  1703               	bsf	status, 6	;RP1=1, select bank3
  1000  00FC  065E               	xorwf	(main@control)^0180h,w
  1001  00FD  045F               	iorwf	(main@control+1)^0180h,w
  1002  00FE  1D03               	skipz
  1003  00FF  2901               	goto	u3131
  1004  0100  2902               	goto	u3130
  1005  0101                     u3131:
  1006  0101  2BD8               	goto	l3207
  1007  0102                     u3130:
  1008                           	line	90
  1009                           	
  1010  0102                     l3019:	
  1011                           ;carparking.c: 89: {
  1012                           ;carparking.c: 90: RD3=1;RD4=0;RD5=0;RD6=0;
  1013  0102  1283               	bcf	status, 5	;RP0=0, select bank0
  1014  0103  1303               	bcf	status, 6	;RP1=0, select bank0
  1015  0104  1588               	bsf	(67/8),(67)&7
  1016  0105  1208               	bcf	(68/8),(68)&7
  1017  0106  1288               	bcf	(69/8),(69)&7
  1018  0107  1308               	bcf	(70/8),(70)&7
  1019                           	line	91
  1020                           ;carparking.c: 91: if(RD0==1)
  1021  0108  1C08               	btfss	(64/8),(64)&7
  1022  0109  290B               	goto	u3141
  1023  010A  290C               	goto	u3140
  1024  010B                     u3141:
  1025  010B  2939               	goto	l3031
  1026  010C                     u3140:
  1027  010C  290E               	goto	l1066
  1028                           	line	93
  1029                           	
  1030  010D                     l3021:	
  1031                           ;carparking.c: 92: {
  1032                           ;carparking.c: 93: while(RD0==1);
  1033  010D  290E               	goto	l1066
  1034                           	
  1035  010E                     l1067:	
  1036                           	
  1037  010E                     l1066:	
  1038  010E  1808               	btfsc	(64/8),(64)&7
  1039  010F  2911               	goto	u3151
  1040  0110  2912               	goto	u3150
  1041  0111                     u3151:
  1042  0111  290E               	goto	l1066
  1043  0112                     u3150:
  1044  0112  2913               	goto	l3023
  1045                           	
  1046  0113                     l1068:	
  1047                           	line	94
  1048                           	
  1049  0113                     l3023:	
  1050                           ;carparking.c: 94: arr[j]='1';
  1051  0113  3031               	movlw	(031h)
  1052  0114  00F3               	movwf	(??_main+0)+0
  1053  0115  1683               	bsf	status, 5	;RP0=1, select bank3
  1054  0116  1703               	bsf	status, 6	;RP1=1, select bank3
  1055  0117  0864               	movf	(main@j)^0180h,w
  1056  0118  3EDE               	addlw	main@arr&0ffh
  1057  0119  0084               	movwf	fsr0
  1058  011A  0873               	movf	(??_main+0)+0,w
  1059  011B  1383               	bcf	status, 7	;select IRP bank1
  1060  011C  0080               	movwf	indf
  1061                           	line	95
  1062                           	
  1063  011D                     l3025:	
  1064                           ;carparking.c: 95: address(0X80+j);
  1065  011D  0864               	movf	(main@j)^0180h,w
  1066  011E  3E80               	addlw	080h
  1067  011F  120A  158A  274F   	fcall	_address
              120A  118A         
  1068                           	line	96
  1069                           	
  1070  0124                     l3027:	
  1071                           ;carparking.c: 96: display(arr[j]);
  1072  0124  1683               	bsf	status, 5	;RP0=1, select bank3
  1073  0125  1703               	bsf	status, 6	;RP1=1, select bank3
  1074  0126  0864               	movf	(main@j)^0180h,w
  1075  0127  3EDE               	addlw	main@arr&0ffh
  1076  0128  0084               	movwf	fsr0
  1077  0129  1383               	bcf	status, 7	;select IRP bank1
  1078  012A  0800               	movf	indf,w
  1079  012B  120A  158A  275C   	fcall	_display
              120A  118A         
  1080                           	line	97
  1081                           	
  1082  0130                     l3029:	
  1083                           ;carparking.c: 97: j++;
  1084  0130  3001               	movlw	low(01h)
  1085  0131  1683               	bsf	status, 5	;RP0=1, select bank3
  1086  0132  1703               	bsf	status, 6	;RP1=1, select bank3
  1087  0133  07E4               	addwf	(main@j)^0180h,f
  1088  0134  1803               	skipnc
  1089  0135  0AE5               	incf	(main@j+1)^0180h,f
  1090  0136  3000               	movlw	high(01h)
  1091  0137  07E5               	addwf	(main@j+1)^0180h,f
  1092  0138  2939               	goto	l3031
  1093                           	line	98
  1094                           	
  1095  0139                     l1065:	
  1096                           	line	99
  1097                           	
  1098  0139                     l3031:	
  1099                           ;carparking.c: 98: }
  1100                           ;carparking.c: 99: if(RD1==1)
  1101  0139  1283               	bcf	status, 5	;RP0=0, select bank0
  1102  013A  1303               	bcf	status, 6	;RP1=0, select bank0
  1103  013B  1C88               	btfss	(65/8),(65)&7
  1104  013C  293E               	goto	u3161
  1105  013D  293F               	goto	u3160
  1106  013E                     u3161:
  1107  013E  296C               	goto	l3043
  1108  013F                     u3160:
  1109  013F  2941               	goto	l1070
  1110                           	line	101
  1111                           	
  1112  0140                     l3033:	
  1113                           ;carparking.c: 100: {
  1114                           ;carparking.c: 101: while(RD1==1);
  1115  0140  2941               	goto	l1070
  1116                           	
  1117  0141                     l1071:	
  1118                           	
  1119  0141                     l1070:	
  1120  0141  1888               	btfsc	(65/8),(65)&7
  1121  0142  2944               	goto	u3171
  1122  0143  2945               	goto	u3170
  1123  0144                     u3171:
  1124  0144  2941               	goto	l1070
  1125  0145                     u3170:
  1126  0145  2946               	goto	l3035
  1127                           	
  1128  0146                     l1072:	
  1129                           	line	102
  1130                           	
  1131  0146                     l3035:	
  1132                           ;carparking.c: 102: arr[j]='2';
  1133  0146  3032               	movlw	(032h)
  1134  0147  00F3               	movwf	(??_main+0)+0
  1135  0148  1683               	bsf	status, 5	;RP0=1, select bank3
  1136  0149  1703               	bsf	status, 6	;RP1=1, select bank3
  1137  014A  0864               	movf	(main@j)^0180h,w
  1138  014B  3EDE               	addlw	main@arr&0ffh
  1139  014C  0084               	movwf	fsr0
  1140  014D  0873               	movf	(??_main+0)+0,w
  1141  014E  1383               	bcf	status, 7	;select IRP bank1
  1142  014F  0080               	movwf	indf
  1143                           	line	103
  1144                           	
  1145  0150                     l3037:	
  1146                           ;carparking.c: 103: address(0X80+j);
  1147  0150  0864               	movf	(main@j)^0180h,w
  1148  0151  3E80               	addlw	080h
  1149  0152  120A  158A  274F   	fcall	_address
              120A  118A         
  1150                           	line	104
  1151                           	
  1152  0157                     l3039:	
  1153                           ;carparking.c: 104: display(arr[j]);
  1154  0157  1683               	bsf	status, 5	;RP0=1, select bank3
  1155  0158  1703               	bsf	status, 6	;RP1=1, select bank3
  1156  0159  0864               	movf	(main@j)^0180h,w
  1157  015A  3EDE               	addlw	main@arr&0ffh
  1158  015B  0084               	movwf	fsr0
  1159  015C  1383               	bcf	status, 7	;select IRP bank1
  1160  015D  0800               	movf	indf,w
  1161  015E  120A  158A  275C   	fcall	_display
              120A  118A         
  1162                           	line	105
  1163                           	
  1164  0163                     l3041:	
  1165                           ;carparking.c: 105: j++;
  1166  0163  3001               	movlw	low(01h)
  1167  0164  1683               	bsf	status, 5	;RP0=1, select bank3
  1168  0165  1703               	bsf	status, 6	;RP1=1, select bank3
  1169  0166  07E4               	addwf	(main@j)^0180h,f
  1170  0167  1803               	skipnc
  1171  0168  0AE5               	incf	(main@j+1)^0180h,f
  1172  0169  3000               	movlw	high(01h)
  1173  016A  07E5               	addwf	(main@j+1)^0180h,f
  1174  016B  296C               	goto	l3043
  1175                           	line	106
  1176                           	
  1177  016C                     l1069:	
  1178                           	line	107
  1179                           	
  1180  016C                     l3043:	
  1181                           ;carparking.c: 106: }
  1182                           ;carparking.c: 107: if(RD2==1)
  1183  016C  1283               	bcf	status, 5	;RP0=0, select bank0
  1184  016D  1303               	bcf	status, 6	;RP1=0, select bank0
  1185  016E  1D08               	btfss	(66/8),(66)&7
  1186  016F  2971               	goto	u3181
  1187  0170  2972               	goto	u3180
  1188  0171                     u3181:
  1189  0171  299F               	goto	l3055
  1190  0172                     u3180:
  1191  0172  2974               	goto	l1074
  1192                           	line	109
  1193                           	
  1194  0173                     l3045:	
  1195                           ;carparking.c: 108: {
  1196                           ;carparking.c: 109: while(RD2==1);
  1197  0173  2974               	goto	l1074
  1198                           	
  1199  0174                     l1075:	
  1200                           	
  1201  0174                     l1074:	
  1202  0174  1908               	btfsc	(66/8),(66)&7
  1203  0175  2977               	goto	u3191
  1204  0176  2978               	goto	u3190
  1205  0177                     u3191:
  1206  0177  2974               	goto	l1074
  1207  0178                     u3190:
  1208  0178  2979               	goto	l3047
  1209                           	
  1210  0179                     l1076:	
  1211                           	line	110
  1212                           	
  1213  0179                     l3047:	
  1214                           ;carparking.c: 110: arr[j]='3';
  1215  0179  3033               	movlw	(033h)
  1216  017A  00F3               	movwf	(??_main+0)+0
  1217  017B  1683               	bsf	status, 5	;RP0=1, select bank3
  1218  017C  1703               	bsf	status, 6	;RP1=1, select bank3
  1219  017D  0864               	movf	(main@j)^0180h,w
  1220  017E  3EDE               	addlw	main@arr&0ffh
  1221  017F  0084               	movwf	fsr0
  1222  0180  0873               	movf	(??_main+0)+0,w
  1223  0181  1383               	bcf	status, 7	;select IRP bank1
  1224  0182  0080               	movwf	indf
  1225                           	line	111
  1226                           	
  1227  0183                     l3049:	
  1228                           ;carparking.c: 111: address(0X80+j);
  1229  0183  0864               	movf	(main@j)^0180h,w
  1230  0184  3E80               	addlw	080h
  1231  0185  120A  158A  274F   	fcall	_address
              120A  118A         
  1232                           	line	112
  1233                           	
  1234  018A                     l3051:	
  1235                           ;carparking.c: 112: display(arr[j]);
  1236  018A  1683               	bsf	status, 5	;RP0=1, select bank3
  1237  018B  1703               	bsf	status, 6	;RP1=1, select bank3
  1238  018C  0864               	movf	(main@j)^0180h,w
  1239  018D  3EDE               	addlw	main@arr&0ffh
  1240  018E  0084               	movwf	fsr0
  1241  018F  1383               	bcf	status, 7	;select IRP bank1
  1242  0190  0800               	movf	indf,w
  1243  0191  120A  158A  275C   	fcall	_display
              120A  118A         
  1244                           	line	113
  1245                           	
  1246  0196                     l3053:	
  1247                           ;carparking.c: 113: j++;
  1248  0196  3001               	movlw	low(01h)
  1249  0197  1683               	bsf	status, 5	;RP0=1, select bank3
  1250  0198  1703               	bsf	status, 6	;RP1=1, select bank3
  1251  0199  07E4               	addwf	(main@j)^0180h,f
  1252  019A  1803               	skipnc
  1253  019B  0AE5               	incf	(main@j+1)^0180h,f
  1254  019C  3000               	movlw	high(01h)
  1255  019D  07E5               	addwf	(main@j+1)^0180h,f
  1256  019E  299F               	goto	l3055
  1257                           	line	114
  1258                           	
  1259  019F                     l1073:	
  1260                           	line	115
  1261                           	
  1262  019F                     l3055:	
  1263                           ;carparking.c: 114: }
  1264                           ;carparking.c: 115: RD3=0;RD4=1;RD5=0;RD6=0;
  1265  019F  1283               	bcf	status, 5	;RP0=0, select bank0
  1266  01A0  1303               	bcf	status, 6	;RP1=0, select bank0
  1267  01A1  1188               	bcf	(67/8),(67)&7
  1268                           	
  1269  01A2                     l3057:	
  1270  01A2  1608               	bsf	(68/8),(68)&7
  1271                           	
  1272  01A3                     l3059:	
  1273  01A3  1288               	bcf	(69/8),(69)&7
  1274                           	
  1275  01A4                     l3061:	
  1276  01A4  1308               	bcf	(70/8),(70)&7
  1277                           	line	116
  1278                           	
  1279  01A5                     l3063:	
  1280                           ;carparking.c: 116: if(RD0==1)
  1281  01A5  1C08               	btfss	(64/8),(64)&7
  1282  01A6  29A8               	goto	u3201
  1283  01A7  29A9               	goto	u3200
  1284  01A8                     u3201:
  1285  01A8  29D6               	goto	l3075
  1286  01A9                     u3200:
  1287  01A9  29AB               	goto	l1078
  1288                           	line	118
  1289                           	
  1290  01AA                     l3065:	
  1291                           ;carparking.c: 117: {
  1292                           ;carparking.c: 118: while(RD0==1);
  1293  01AA  29AB               	goto	l1078
  1294                           	
  1295  01AB                     l1079:	
  1296                           	
  1297  01AB                     l1078:	
  1298  01AB  1808               	btfsc	(64/8),(64)&7
  1299  01AC  29AE               	goto	u3211
  1300  01AD  29AF               	goto	u3210
  1301  01AE                     u3211:
  1302  01AE  29AB               	goto	l1078
  1303  01AF                     u3210:
  1304  01AF  29B0               	goto	l3067
  1305                           	
  1306  01B0                     l1080:	
  1307                           	line	119
  1308                           	
  1309  01B0                     l3067:	
  1310                           ;carparking.c: 119: arr[j]='4';
  1311  01B0  3034               	movlw	(034h)
  1312  01B1  00F3               	movwf	(??_main+0)+0
  1313  01B2  1683               	bsf	status, 5	;RP0=1, select bank3
  1314  01B3  1703               	bsf	status, 6	;RP1=1, select bank3
  1315  01B4  0864               	movf	(main@j)^0180h,w
  1316  01B5  3EDE               	addlw	main@arr&0ffh
  1317  01B6  0084               	movwf	fsr0
  1318  01B7  0873               	movf	(??_main+0)+0,w
  1319  01B8  1383               	bcf	status, 7	;select IRP bank1
  1320  01B9  0080               	movwf	indf
  1321                           	line	120
  1322                           	
  1323  01BA                     l3069:	
  1324                           ;carparking.c: 120: address(0X80+j);
  1325  01BA  0864               	movf	(main@j)^0180h,w
  1326  01BB  3E80               	addlw	080h
  1327  01BC  120A  158A  274F   	fcall	_address
              120A  118A         
  1328                           	line	121
  1329                           	
  1330  01C1                     l3071:	
  1331                           ;carparking.c: 121: display(arr[j]);
  1332  01C1  1683               	bsf	status, 5	;RP0=1, select bank3
  1333  01C2  1703               	bsf	status, 6	;RP1=1, select bank3
  1334  01C3  0864               	movf	(main@j)^0180h,w
  1335  01C4  3EDE               	addlw	main@arr&0ffh
  1336  01C5  0084               	movwf	fsr0
  1337  01C6  1383               	bcf	status, 7	;select IRP bank1
  1338  01C7  0800               	movf	indf,w
  1339  01C8  120A  158A  275C   	fcall	_display
              120A  118A         
  1340                           	line	122
  1341                           	
  1342  01CD                     l3073:	
  1343                           ;carparking.c: 122: j++;
  1344  01CD  3001               	movlw	low(01h)
  1345  01CE  1683               	bsf	status, 5	;RP0=1, select bank3
  1346  01CF  1703               	bsf	status, 6	;RP1=1, select bank3
  1347  01D0  07E4               	addwf	(main@j)^0180h,f
  1348  01D1  1803               	skipnc
  1349  01D2  0AE5               	incf	(main@j+1)^0180h,f
  1350  01D3  3000               	movlw	high(01h)
  1351  01D4  07E5               	addwf	(main@j+1)^0180h,f
  1352  01D5  29D6               	goto	l3075
  1353                           	line	123
  1354                           	
  1355  01D6                     l1077:	
  1356                           	line	124
  1357                           	
  1358  01D6                     l3075:	
  1359                           ;carparking.c: 123: }
  1360                           ;carparking.c: 124: if(RD1==1)
  1361  01D6  1283               	bcf	status, 5	;RP0=0, select bank0
  1362  01D7  1303               	bcf	status, 6	;RP1=0, select bank0
  1363  01D8  1C88               	btfss	(65/8),(65)&7
  1364  01D9  29DB               	goto	u3221
  1365  01DA  29DC               	goto	u3220
  1366  01DB                     u3221:
  1367  01DB  2A09               	goto	l3087
  1368  01DC                     u3220:
  1369  01DC  29DE               	goto	l1082
  1370                           	line	126
  1371                           	
  1372  01DD                     l3077:	
  1373                           ;carparking.c: 125: {
  1374                           ;carparking.c: 126: while(RD1==1);
  1375  01DD  29DE               	goto	l1082
  1376                           	
  1377  01DE                     l1083:	
  1378                           	
  1379  01DE                     l1082:	
  1380  01DE  1888               	btfsc	(65/8),(65)&7
  1381  01DF  29E1               	goto	u3231
  1382  01E0  29E2               	goto	u3230
  1383  01E1                     u3231:
  1384  01E1  29DE               	goto	l1082
  1385  01E2                     u3230:
  1386  01E2  29E3               	goto	l3079
  1387                           	
  1388  01E3                     l1084:	
  1389                           	line	127
  1390                           	
  1391  01E3                     l3079:	
  1392                           ;carparking.c: 127: arr[j]='5';
  1393  01E3  3035               	movlw	(035h)
  1394  01E4  00F3               	movwf	(??_main+0)+0
  1395  01E5  1683               	bsf	status, 5	;RP0=1, select bank3
  1396  01E6  1703               	bsf	status, 6	;RP1=1, select bank3
  1397  01E7  0864               	movf	(main@j)^0180h,w
  1398  01E8  3EDE               	addlw	main@arr&0ffh
  1399  01E9  0084               	movwf	fsr0
  1400  01EA  0873               	movf	(??_main+0)+0,w
  1401  01EB  1383               	bcf	status, 7	;select IRP bank1
  1402  01EC  0080               	movwf	indf
  1403                           	line	128
  1404                           	
  1405  01ED                     l3081:	
  1406                           ;carparking.c: 128: address(0X80+j);
  1407  01ED  0864               	movf	(main@j)^0180h,w
  1408  01EE  3E80               	addlw	080h
  1409  01EF  120A  158A  274F   	fcall	_address
              120A  118A         
  1410                           	line	129
  1411                           	
  1412  01F4                     l3083:	
  1413                           ;carparking.c: 129: display(arr[j]);
  1414  01F4  1683               	bsf	status, 5	;RP0=1, select bank3
  1415  01F5  1703               	bsf	status, 6	;RP1=1, select bank3
  1416  01F6  0864               	movf	(main@j)^0180h,w
  1417  01F7  3EDE               	addlw	main@arr&0ffh
  1418  01F8  0084               	movwf	fsr0
  1419  01F9  1383               	bcf	status, 7	;select IRP bank1
  1420  01FA  0800               	movf	indf,w
  1421  01FB  120A  158A  275C   	fcall	_display
              120A  118A         
  1422                           	line	130
  1423                           	
  1424  0200                     l3085:	
  1425                           ;carparking.c: 130: j++;
  1426  0200  3001               	movlw	low(01h)
  1427  0201  1683               	bsf	status, 5	;RP0=1, select bank3
  1428  0202  1703               	bsf	status, 6	;RP1=1, select bank3
  1429  0203  07E4               	addwf	(main@j)^0180h,f
  1430  0204  1803               	skipnc
  1431  0205  0AE5               	incf	(main@j+1)^0180h,f
  1432  0206  3000               	movlw	high(01h)
  1433  0207  07E5               	addwf	(main@j+1)^0180h,f
  1434  0208  2A09               	goto	l3087
  1435                           	line	131
  1436                           	
  1437  0209                     l1081:	
  1438                           	line	132
  1439                           	
  1440  0209                     l3087:	
  1441                           ;carparking.c: 131: }
  1442                           ;carparking.c: 132: if(RD2==1)
  1443  0209  1283               	bcf	status, 5	;RP0=0, select bank0
  1444  020A  1303               	bcf	status, 6	;RP1=0, select bank0
  1445  020B  1D08               	btfss	(66/8),(66)&7
  1446  020C  2A0E               	goto	u3241
  1447  020D  2A0F               	goto	u3240
  1448  020E                     u3241:
  1449  020E  2A3C               	goto	l3099
  1450  020F                     u3240:
  1451  020F  2A11               	goto	l1086
  1452                           	line	134
  1453                           	
  1454  0210                     l3089:	
  1455                           ;carparking.c: 133: {
  1456                           ;carparking.c: 134: while(RD2==1);
  1457  0210  2A11               	goto	l1086
  1458                           	
  1459  0211                     l1087:	
  1460                           	
  1461  0211                     l1086:	
  1462  0211  1908               	btfsc	(66/8),(66)&7
  1463  0212  2A14               	goto	u3251
  1464  0213  2A15               	goto	u3250
  1465  0214                     u3251:
  1466  0214  2A11               	goto	l1086
  1467  0215                     u3250:
  1468  0215  2A16               	goto	l3091
  1469                           	
  1470  0216                     l1088:	
  1471                           	line	135
  1472                           	
  1473  0216                     l3091:	
  1474                           ;carparking.c: 135: arr[j]='6';
  1475  0216  3036               	movlw	(036h)
  1476  0217  00F3               	movwf	(??_main+0)+0
  1477  0218  1683               	bsf	status, 5	;RP0=1, select bank3
  1478  0219  1703               	bsf	status, 6	;RP1=1, select bank3
  1479  021A  0864               	movf	(main@j)^0180h,w
  1480  021B  3EDE               	addlw	main@arr&0ffh
  1481  021C  0084               	movwf	fsr0
  1482  021D  0873               	movf	(??_main+0)+0,w
  1483  021E  1383               	bcf	status, 7	;select IRP bank1
  1484  021F  0080               	movwf	indf
  1485                           	line	136
  1486                           	
  1487  0220                     l3093:	
  1488                           ;carparking.c: 136: address(0X80+j);
  1489  0220  0864               	movf	(main@j)^0180h,w
  1490  0221  3E80               	addlw	080h
  1491  0222  120A  158A  274F   	fcall	_address
              120A  118A         
  1492                           	line	137
  1493                           	
  1494  0227                     l3095:	
  1495                           ;carparking.c: 137: display(arr[j]);
  1496  0227  1683               	bsf	status, 5	;RP0=1, select bank3
  1497  0228  1703               	bsf	status, 6	;RP1=1, select bank3
  1498  0229  0864               	movf	(main@j)^0180h,w
  1499  022A  3EDE               	addlw	main@arr&0ffh
  1500  022B  0084               	movwf	fsr0
  1501  022C  1383               	bcf	status, 7	;select IRP bank1
  1502  022D  0800               	movf	indf,w
  1503  022E  120A  158A  275C   	fcall	_display
              120A  118A         
  1504                           	line	138
  1505                           	
  1506  0233                     l3097:	
  1507                           ;carparking.c: 138: j++;
  1508  0233  3001               	movlw	low(01h)
  1509  0234  1683               	bsf	status, 5	;RP0=1, select bank3
  1510  0235  1703               	bsf	status, 6	;RP1=1, select bank3
  1511  0236  07E4               	addwf	(main@j)^0180h,f
  1512  0237  1803               	skipnc
  1513  0238  0AE5               	incf	(main@j+1)^0180h,f
  1514  0239  3000               	movlw	high(01h)
  1515  023A  07E5               	addwf	(main@j+1)^0180h,f
  1516  023B  2A3C               	goto	l3099
  1517                           	line	139
  1518                           	
  1519  023C                     l1085:	
  1520                           	line	140
  1521                           	
  1522  023C                     l3099:	
  1523                           ;carparking.c: 139: }
  1524                           ;carparking.c: 140: RD3=0;RD4=0;RD5=1;RD6=0;
  1525  023C  1283               	bcf	status, 5	;RP0=0, select bank0
  1526  023D  1303               	bcf	status, 6	;RP1=0, select bank0
  1527  023E  1188               	bcf	(67/8),(67)&7
  1528                           	
  1529  023F                     l3101:	
  1530  023F  1208               	bcf	(68/8),(68)&7
  1531                           	
  1532  0240                     l3103:	
  1533  0240  1688               	bsf	(69/8),(69)&7
  1534                           	
  1535  0241                     l3105:	
  1536  0241  1308               	bcf	(70/8),(70)&7
  1537                           	line	141
  1538                           	
  1539  0242                     l3107:	
  1540                           ;carparking.c: 141: if(RD0==1)
  1541  0242  1C08               	btfss	(64/8),(64)&7
  1542  0243  2A45               	goto	u3261
  1543  0244  2A46               	goto	u3260
  1544  0245                     u3261:
  1545  0245  2A73               	goto	l3119
  1546  0246                     u3260:
  1547  0246  2A48               	goto	l1090
  1548                           	line	143
  1549                           	
  1550  0247                     l3109:	
  1551                           ;carparking.c: 142: {
  1552                           ;carparking.c: 143: while(RD0==1);
  1553  0247  2A48               	goto	l1090
  1554                           	
  1555  0248                     l1091:	
  1556                           	
  1557  0248                     l1090:	
  1558  0248  1808               	btfsc	(64/8),(64)&7
  1559  0249  2A4B               	goto	u3271
  1560  024A  2A4C               	goto	u3270
  1561  024B                     u3271:
  1562  024B  2A48               	goto	l1090
  1563  024C                     u3270:
  1564  024C  2A4D               	goto	l3111
  1565                           	
  1566  024D                     l1092:	
  1567                           	line	144
  1568                           	
  1569  024D                     l3111:	
  1570                           ;carparking.c: 144: arr[j]='7';
  1571  024D  3037               	movlw	(037h)
  1572  024E  00F3               	movwf	(??_main+0)+0
  1573  024F  1683               	bsf	status, 5	;RP0=1, select bank3
  1574  0250  1703               	bsf	status, 6	;RP1=1, select bank3
  1575  0251  0864               	movf	(main@j)^0180h,w
  1576  0252  3EDE               	addlw	main@arr&0ffh
  1577  0253  0084               	movwf	fsr0
  1578  0254  0873               	movf	(??_main+0)+0,w
  1579  0255  1383               	bcf	status, 7	;select IRP bank1
  1580  0256  0080               	movwf	indf
  1581                           	line	145
  1582                           	
  1583  0257                     l3113:	
  1584                           ;carparking.c: 145: address(0X80+j);
  1585  0257  0864               	movf	(main@j)^0180h,w
  1586  0258  3E80               	addlw	080h
  1587  0259  120A  158A  274F   	fcall	_address
              120A  118A         
  1588                           	line	146
  1589                           	
  1590  025E                     l3115:	
  1591                           ;carparking.c: 146: display(arr[j]);
  1592  025E  1683               	bsf	status, 5	;RP0=1, select bank3
  1593  025F  1703               	bsf	status, 6	;RP1=1, select bank3
  1594  0260  0864               	movf	(main@j)^0180h,w
  1595  0261  3EDE               	addlw	main@arr&0ffh
  1596  0262  0084               	movwf	fsr0
  1597  0263  1383               	bcf	status, 7	;select IRP bank1
  1598  0264  0800               	movf	indf,w
  1599  0265  120A  158A  275C   	fcall	_display
              120A  118A         
  1600                           	line	147
  1601                           	
  1602  026A                     l3117:	
  1603                           ;carparking.c: 147: j++;
  1604  026A  3001               	movlw	low(01h)
  1605  026B  1683               	bsf	status, 5	;RP0=1, select bank3
  1606  026C  1703               	bsf	status, 6	;RP1=1, select bank3
  1607  026D  07E4               	addwf	(main@j)^0180h,f
  1608  026E  1803               	skipnc
  1609  026F  0AE5               	incf	(main@j+1)^0180h,f
  1610  0270  3000               	movlw	high(01h)
  1611  0271  07E5               	addwf	(main@j+1)^0180h,f
  1612  0272  2A73               	goto	l3119
  1613                           	line	148
  1614                           	
  1615  0273                     l1089:	
  1616                           	line	149
  1617                           	
  1618  0273                     l3119:	
  1619                           ;carparking.c: 148: }
  1620                           ;carparking.c: 149: if(RD1==1)
  1621  0273  1283               	bcf	status, 5	;RP0=0, select bank0
  1622  0274  1303               	bcf	status, 6	;RP1=0, select bank0
  1623  0275  1C88               	btfss	(65/8),(65)&7
  1624  0276  2A78               	goto	u3281
  1625  0277  2A79               	goto	u3280
  1626  0278                     u3281:
  1627  0278  2AA6               	goto	l3131
  1628  0279                     u3280:
  1629  0279  2A7B               	goto	l1094
  1630                           	line	151
  1631                           	
  1632  027A                     l3121:	
  1633                           ;carparking.c: 150: {
  1634                           ;carparking.c: 151: while(RD1==1);
  1635  027A  2A7B               	goto	l1094
  1636                           	
  1637  027B                     l1095:	
  1638                           	
  1639  027B                     l1094:	
  1640  027B  1888               	btfsc	(65/8),(65)&7
  1641  027C  2A7E               	goto	u3291
  1642  027D  2A7F               	goto	u3290
  1643  027E                     u3291:
  1644  027E  2A7B               	goto	l1094
  1645  027F                     u3290:
  1646  027F  2A80               	goto	l3123
  1647                           	
  1648  0280                     l1096:	
  1649                           	line	152
  1650                           	
  1651  0280                     l3123:	
  1652                           ;carparking.c: 152: arr[j]='8';
  1653  0280  3038               	movlw	(038h)
  1654  0281  00F3               	movwf	(??_main+0)+0
  1655  0282  1683               	bsf	status, 5	;RP0=1, select bank3
  1656  0283  1703               	bsf	status, 6	;RP1=1, select bank3
  1657  0284  0864               	movf	(main@j)^0180h,w
  1658  0285  3EDE               	addlw	main@arr&0ffh
  1659  0286  0084               	movwf	fsr0
  1660  0287  0873               	movf	(??_main+0)+0,w
  1661  0288  1383               	bcf	status, 7	;select IRP bank1
  1662  0289  0080               	movwf	indf
  1663                           	line	153
  1664                           	
  1665  028A                     l3125:	
  1666                           ;carparking.c: 153: address(0X80+j);
  1667  028A  0864               	movf	(main@j)^0180h,w
  1668  028B  3E80               	addlw	080h
  1669  028C  120A  158A  274F   	fcall	_address
              120A  118A         
  1670                           	line	154
  1671                           	
  1672  0291                     l3127:	
  1673                           ;carparking.c: 154: display(arr[j]);
  1674  0291  1683               	bsf	status, 5	;RP0=1, select bank3
  1675  0292  1703               	bsf	status, 6	;RP1=1, select bank3
  1676  0293  0864               	movf	(main@j)^0180h,w
  1677  0294  3EDE               	addlw	main@arr&0ffh
  1678  0295  0084               	movwf	fsr0
  1679  0296  1383               	bcf	status, 7	;select IRP bank1
  1680  0297  0800               	movf	indf,w
  1681  0298  120A  158A  275C   	fcall	_display
              120A  118A         
  1682                           	line	155
  1683                           	
  1684  029D                     l3129:	
  1685                           ;carparking.c: 155: j++;
  1686  029D  3001               	movlw	low(01h)
  1687  029E  1683               	bsf	status, 5	;RP0=1, select bank3
  1688  029F  1703               	bsf	status, 6	;RP1=1, select bank3
  1689  02A0  07E4               	addwf	(main@j)^0180h,f
  1690  02A1  1803               	skipnc
  1691  02A2  0AE5               	incf	(main@j+1)^0180h,f
  1692  02A3  3000               	movlw	high(01h)
  1693  02A4  07E5               	addwf	(main@j+1)^0180h,f
  1694  02A5  2AA6               	goto	l3131
  1695                           	line	156
  1696                           	
  1697  02A6                     l1093:	
  1698                           	line	157
  1699                           	
  1700  02A6                     l3131:	
  1701                           ;carparking.c: 156: }
  1702                           ;carparking.c: 157: if(RD2==1)
  1703  02A6  1283               	bcf	status, 5	;RP0=0, select bank0
  1704  02A7  1303               	bcf	status, 6	;RP1=0, select bank0
  1705  02A8  1D08               	btfss	(66/8),(66)&7
  1706  02A9  2AAB               	goto	u3301
  1707  02AA  2AAC               	goto	u3300
  1708  02AB                     u3301:
  1709  02AB  2AD9               	goto	l3143
  1710  02AC                     u3300:
  1711  02AC  2AAE               	goto	l1098
  1712                           	line	159
  1713                           	
  1714  02AD                     l3133:	
  1715                           ;carparking.c: 158: {
  1716                           ;carparking.c: 159: while(RD2==1);
  1717  02AD  2AAE               	goto	l1098
  1718                           	
  1719  02AE                     l1099:	
  1720                           	
  1721  02AE                     l1098:	
  1722  02AE  1908               	btfsc	(66/8),(66)&7
  1723  02AF  2AB1               	goto	u3311
  1724  02B0  2AB2               	goto	u3310
  1725  02B1                     u3311:
  1726  02B1  2AAE               	goto	l1098
  1727  02B2                     u3310:
  1728  02B2  2AB3               	goto	l3135
  1729                           	
  1730  02B3                     l1100:	
  1731                           	line	160
  1732                           	
  1733  02B3                     l3135:	
  1734                           ;carparking.c: 160: arr[j]='9';
  1735  02B3  3039               	movlw	(039h)
  1736  02B4  00F3               	movwf	(??_main+0)+0
  1737  02B5  1683               	bsf	status, 5	;RP0=1, select bank3
  1738  02B6  1703               	bsf	status, 6	;RP1=1, select bank3
  1739  02B7  0864               	movf	(main@j)^0180h,w
  1740  02B8  3EDE               	addlw	main@arr&0ffh
  1741  02B9  0084               	movwf	fsr0
  1742  02BA  0873               	movf	(??_main+0)+0,w
  1743  02BB  1383               	bcf	status, 7	;select IRP bank1
  1744  02BC  0080               	movwf	indf
  1745                           	line	161
  1746                           	
  1747  02BD                     l3137:	
  1748                           ;carparking.c: 161: address(0X80+j);
  1749  02BD  0864               	movf	(main@j)^0180h,w
  1750  02BE  3E80               	addlw	080h
  1751  02BF  120A  158A  274F   	fcall	_address
              120A  118A         
  1752                           	line	162
  1753                           	
  1754  02C4                     l3139:	
  1755                           ;carparking.c: 162: display(arr[j]);
  1756  02C4  1683               	bsf	status, 5	;RP0=1, select bank3
  1757  02C5  1703               	bsf	status, 6	;RP1=1, select bank3
  1758  02C6  0864               	movf	(main@j)^0180h,w
  1759  02C7  3EDE               	addlw	main@arr&0ffh
  1760  02C8  0084               	movwf	fsr0
  1761  02C9  1383               	bcf	status, 7	;select IRP bank1
  1762  02CA  0800               	movf	indf,w
  1763  02CB  120A  158A  275C   	fcall	_display
              120A  118A         
  1764                           	line	163
  1765                           	
  1766  02D0                     l3141:	
  1767                           ;carparking.c: 163: j++;
  1768  02D0  3001               	movlw	low(01h)
  1769  02D1  1683               	bsf	status, 5	;RP0=1, select bank3
  1770  02D2  1703               	bsf	status, 6	;RP1=1, select bank3
  1771  02D3  07E4               	addwf	(main@j)^0180h,f
  1772  02D4  1803               	skipnc
  1773  02D5  0AE5               	incf	(main@j+1)^0180h,f
  1774  02D6  3000               	movlw	high(01h)
  1775  02D7  07E5               	addwf	(main@j+1)^0180h,f
  1776  02D8  2AD9               	goto	l3143
  1777                           	line	164
  1778                           	
  1779  02D9                     l1097:	
  1780                           	line	165
  1781                           	
  1782  02D9                     l3143:	
  1783                           ;carparking.c: 164: }
  1784                           ;carparking.c: 165: RD3=0;RD4=0;RD5=0;RD6=1;
  1785  02D9  1283               	bcf	status, 5	;RP0=0, select bank0
  1786  02DA  1303               	bcf	status, 6	;RP1=0, select bank0
  1787  02DB  1188               	bcf	(67/8),(67)&7
  1788                           	
  1789  02DC                     l3145:	
  1790  02DC  1208               	bcf	(68/8),(68)&7
  1791                           	
  1792  02DD                     l3147:	
  1793  02DD  1288               	bcf	(69/8),(69)&7
  1794                           	
  1795  02DE                     l3149:	
  1796  02DE  1708               	bsf	(70/8),(70)&7
  1797                           	line	166
  1798                           	
  1799  02DF                     l3151:	
  1800                           ;carparking.c: 166: if(RD0==1)
  1801  02DF  1C08               	btfss	(64/8),(64)&7
  1802  02E0  2AE2               	goto	u3321
  1803  02E1  2AE3               	goto	u3320
  1804  02E2                     u3321:
  1805  02E2  2BA4               	goto	l3195
  1806  02E3                     u3320:
  1807  02E3  2AE5               	goto	l1102
  1808                           	line	168
  1809                           	
  1810  02E4                     l3153:	
  1811                           ;carparking.c: 167: {
  1812                           ;carparking.c: 168: while(RD0==1);
  1813  02E4  2AE5               	goto	l1102
  1814                           	
  1815  02E5                     l1103:	
  1816                           	
  1817  02E5                     l1102:	
  1818  02E5  1808               	btfsc	(64/8),(64)&7
  1819  02E6  2AE8               	goto	u3331
  1820  02E7  2AE9               	goto	u3330
  1821  02E8                     u3331:
  1822  02E8  2AE5               	goto	l1102
  1823  02E9                     u3330:
  1824  02E9  2AEA               	goto	l3155
  1825                           	
  1826  02EA                     l1104:	
  1827                           	line	169
  1828                           	
  1829  02EA                     l3155:	
  1830                           ;carparking.c: 169: if(j==10)
  1831  02EA  300A               	movlw	0Ah
  1832  02EB  1683               	bsf	status, 5	;RP0=1, select bank3
  1833  02EC  1703               	bsf	status, 6	;RP1=1, select bank3
  1834  02ED  0664               	xorwf	(main@j)^0180h,w
  1835  02EE  0465               	iorwf	(main@j+1)^0180h,w
  1836  02EF  1D03               	skipz
  1837  02F0  2AF2               	goto	u3341
  1838  02F1  2AF3               	goto	u3340
  1839  02F2                     u3341:
  1840  02F2  2B54               	goto	l3179
  1841  02F3                     u3340:
  1842                           	line	171
  1843                           	
  1844  02F3                     l3157:	
  1845                           ;carparking.c: 170: {
  1846                           ;carparking.c: 171: for(k=0;k<12;k++)
  1847  02F3  01E0               	clrf	(main@k)^0180h
  1848  02F4  01E1               	clrf	(main@k+1)^0180h
  1849                           	
  1850  02F5                     l3159:	
  1851  02F5  0861               	movf	(main@k+1)^0180h,w
  1852  02F6  3A80               	xorlw	80h
  1853  02F7  00FF               	movwf	btemp+1
  1854  02F8  3080               	movlw	(high(0Ch))^80h
  1855  02F9  027F               	subwf	btemp+1,w
  1856  02FA  1D03               	skipz
  1857  02FB  2AFE               	goto	u3355
  1858  02FC  300C               	movlw	low(0Ch)
  1859  02FD  0260               	subwf	(main@k)^0180h,w
  1860  02FE                     u3355:
  1861                           
  1862  02FE  1C03               	skipc
  1863  02FF  2B01               	goto	u3351
  1864  0300  2B02               	goto	u3350
  1865  0301                     u3351:
  1866  0301  2B04               	goto	l3163
  1867  0302                     u3350:
  1868  0302  2B3F               	goto	l3175
  1869                           	
  1870  0303                     l3161:	
  1871  0303  2B3F               	goto	l3175
  1872                           	line	172
  1873                           	
  1874  0304                     l1106:	
  1875                           	line	173
  1876                           	
  1877  0304                     l3163:	
  1878                           ;carparking.c: 172: {
  1879                           ;carparking.c: 173: address(0XC0+k);
  1880  0304  1683               	bsf	status, 5	;RP0=1, select bank3
  1881  0305  1703               	bsf	status, 6	;RP1=1, select bank3
  1882  0306  0860               	movf	(main@k)^0180h,w
  1883  0307  3EC0               	addlw	0C0h
  1884  0308  120A  158A  274F   	fcall	_address
              120A  118A         
  1885                           	line	174
  1886                           	
  1887  030D                     l3165:	
  1888                           ;carparking.c: 174: display(regi[k]);
  1889  030D  1683               	bsf	status, 5	;RP0=1, select bank3
  1890  030E  1703               	bsf	status, 6	;RP1=1, select bank3
  1891  030F  0860               	movf	(main@k)^0180h,w
  1892  0310  3E37               	addlw	main@regi&0ffh
  1893  0311  0084               	movwf	fsr0
  1894  0312  1383               	bcf	status, 7	;select IRP bank0
  1895  0313  0800               	movf	indf,w
  1896  0314  120A  158A  275C   	fcall	_display
              120A  118A         
  1897                           	line	175
  1898                           	
  1899  0319                     l3167:	
  1900                           ;carparking.c: 175: state=2;
  1901  0319  3002               	movlw	low(02h)
  1902  031A  1283               	bcf	status, 5	;RP0=0, select bank0
  1903  031B  1303               	bcf	status, 6	;RP1=0, select bank0
  1904  031C  00ED               	movwf	(main@state)
  1905  031D  3000               	movlw	high(02h)
  1906  031E  00EE               	movwf	((main@state))+1
  1907                           	line	171
  1908                           	
  1909  031F                     l3169:	
  1910  031F  3001               	movlw	low(01h)
  1911  0320  1683               	bsf	status, 5	;RP0=1, select bank3
  1912  0321  1703               	bsf	status, 6	;RP1=1, select bank3
  1913  0322  07E0               	addwf	(main@k)^0180h,f
  1914  0323  1803               	skipnc
  1915  0324  0AE1               	incf	(main@k+1)^0180h,f
  1916  0325  3000               	movlw	high(01h)
  1917  0326  07E1               	addwf	(main@k+1)^0180h,f
  1918                           	
  1919  0327                     l3171:	
  1920  0327  0861               	movf	(main@k+1)^0180h,w
  1921  0328  3A80               	xorlw	80h
  1922  0329  00FF               	movwf	btemp+1
  1923  032A  3080               	movlw	(high(0Ch))^80h
  1924  032B  027F               	subwf	btemp+1,w
  1925  032C  1D03               	skipz
  1926  032D  2B30               	goto	u3365
  1927  032E  300C               	movlw	low(0Ch)
  1928  032F  0260               	subwf	(main@k)^0180h,w
  1929  0330                     u3365:
  1930                           
  1931  0330  1C03               	skipc
  1932  0331  2B33               	goto	u3361
  1933  0332  2B34               	goto	u3360
  1934  0333                     u3361:
  1935  0333  2B04               	goto	l3163
  1936  0334                     u3360:
  1937  0334  2B3F               	goto	l3175
  1938                           	
  1939  0335                     l1107:	
  1940                           	line	177
  1941                           ;carparking.c: 176: }
  1942                           ;carparking.c: 177: while(count<30000)
  1943  0335  2B3F               	goto	l3175
  1944                           	
  1945  0336                     l1109:	
  1946                           	line	179
  1947                           	
  1948  0336                     l3173:	
  1949                           ;carparking.c: 178: {
  1950                           ;carparking.c: 179: count++;
  1951  0336  3001               	movlw	low(01h)
  1952  0337  1683               	bsf	status, 5	;RP0=1, select bank1
  1953  0338  1303               	bcf	status, 6	;RP1=0, select bank1
  1954  0339  07ED               	addwf	(main@count)^080h,f
  1955  033A  1803               	skipnc
  1956  033B  0AEE               	incf	(main@count+1)^080h,f
  1957  033C  3000               	movlw	high(01h)
  1958  033D  07EE               	addwf	(main@count+1)^080h,f
  1959  033E  2B3F               	goto	l3175
  1960                           	line	180
  1961                           	
  1962  033F                     l1108:	
  1963                           	line	177
  1964                           	
  1965  033F                     l3175:	
  1966  033F  1683               	bsf	status, 5	;RP0=1, select bank1
  1967  0340  1303               	bcf	status, 6	;RP1=0, select bank1
  1968  0341  086E               	movf	(main@count+1)^080h,w
  1969  0342  3A80               	xorlw	80h
  1970  0343  00FF               	movwf	btemp+1
  1971  0344  30F5               	movlw	(high(07530h))^80h
  1972  0345  027F               	subwf	btemp+1,w
  1973  0346  1D03               	skipz
  1974  0347  2B4A               	goto	u3375
  1975  0348  3030               	movlw	low(07530h)
  1976  0349  026D               	subwf	(main@count)^080h,w
  1977  034A                     u3375:
  1978                           
  1979  034A  1C03               	skipc
  1980  034B  2B4D               	goto	u3371
  1981  034C  2B4E               	goto	u3370
  1982  034D                     u3371:
  1983  034D  2B36               	goto	l3173
  1984  034E                     u3370:
  1985  034E  2B4F               	goto	l3177
  1986                           	
  1987  034F                     l1110:	
  1988                           	line	181
  1989                           	
  1990  034F                     l3177:	
  1991                           ;carparking.c: 180: }
  1992                           ;carparking.c: 181: count=0;
  1993  034F  1683               	bsf	status, 5	;RP0=1, select bank1
  1994  0350  1303               	bcf	status, 6	;RP1=0, select bank1
  1995  0351  01ED               	clrf	(main@count)^080h
  1996  0352  01EE               	clrf	(main@count+1)^080h
  1997                           	line	182
  1998                           ;carparking.c: 182: }
  1999  0353  2B84               	goto	l3189
  2000                           	line	183
  2001                           	
  2002  0354                     l1105:	
  2003                           	line	185
  2004                           	
  2005  0354                     l3179:	
  2006                           ;carparking.c: 183: else
  2007                           ;carparking.c: 184: {
  2008                           ;carparking.c: 185: for(k=0;k<12;k++)
  2009  0354  1683               	bsf	status, 5	;RP0=1, select bank3
  2010  0355  1703               	bsf	status, 6	;RP1=1, select bank3
  2011  0356  01E0               	clrf	(main@k)^0180h
  2012  0357  01E1               	clrf	(main@k+1)^0180h
  2013                           	
  2014  0358                     l3181:	
  2015  0358  0861               	movf	(main@k+1)^0180h,w
  2016  0359  3A80               	xorlw	80h
  2017  035A  00FF               	movwf	btemp+1
  2018  035B  3080               	movlw	(high(0Ch))^80h
  2019  035C  027F               	subwf	btemp+1,w
  2020  035D  1D03               	skipz
  2021  035E  2B61               	goto	u3385
  2022  035F  300C               	movlw	low(0Ch)
  2023  0360  0260               	subwf	(main@k)^0180h,w
  2024  0361                     u3385:
  2025                           
  2026  0361  1C03               	skipc
  2027  0362  2B64               	goto	u3381
  2028  0363  2B65               	goto	u3380
  2029  0364                     u3381:
  2030  0364  2B67               	goto	l3185
  2031  0365                     u3380:
  2032  0365  2B84               	goto	l3189
  2033                           	
  2034  0366                     l3183:	
  2035  0366  2B84               	goto	l3189
  2036                           	line	186
  2037                           	
  2038  0367                     l1112:	
  2039                           	line	187
  2040                           	
  2041  0367                     l3185:	
  2042                           ;carparking.c: 186: {
  2043                           ;carparking.c: 187: state=1;
  2044  0367  3001               	movlw	low(01h)
  2045  0368  1283               	bcf	status, 5	;RP0=0, select bank0
  2046  0369  1303               	bcf	status, 6	;RP1=0, select bank0
  2047  036A  00ED               	movwf	(main@state)
  2048  036B  3000               	movlw	high(01h)
  2049  036C  00EE               	movwf	((main@state))+1
  2050                           	line	185
  2051  036D  3001               	movlw	low(01h)
  2052  036E  1683               	bsf	status, 5	;RP0=1, select bank3
  2053  036F  1703               	bsf	status, 6	;RP1=1, select bank3
  2054  0370  07E0               	addwf	(main@k)^0180h,f
  2055  0371  1803               	skipnc
  2056  0372  0AE1               	incf	(main@k+1)^0180h,f
  2057  0373  3000               	movlw	high(01h)
  2058  0374  07E1               	addwf	(main@k+1)^0180h,f
  2059                           	
  2060  0375                     l3187:	
  2061  0375  0861               	movf	(main@k+1)^0180h,w
  2062  0376  3A80               	xorlw	80h
  2063  0377  00FF               	movwf	btemp+1
  2064  0378  3080               	movlw	(high(0Ch))^80h
  2065  0379  027F               	subwf	btemp+1,w
  2066  037A  1D03               	skipz
  2067  037B  2B7E               	goto	u3395
  2068  037C  300C               	movlw	low(0Ch)
  2069  037D  0260               	subwf	(main@k)^0180h,w
  2070  037E                     u3395:
  2071                           
  2072  037E  1C03               	skipc
  2073  037F  2B81               	goto	u3391
  2074  0380  2B82               	goto	u3390
  2075  0381                     u3391:
  2076  0381  2B67               	goto	l3185
  2077  0382                     u3390:
  2078  0382  2B84               	goto	l3189
  2079                           	
  2080  0383                     l1113:	
  2081  0383  2B84               	goto	l3189
  2082                           	line	189
  2083                           	
  2084  0384                     l1111:	
  2085                           	line	190
  2086                           	
  2087  0384                     l3189:	
  2088                           ;carparking.c: 188: }
  2089                           ;carparking.c: 189: }
  2090                           ;carparking.c: 190: if(state==1)
  2091  0384  3001               	movlw	01h
  2092  0385  1283               	bcf	status, 5	;RP0=0, select bank0
  2093  0386  1303               	bcf	status, 6	;RP1=0, select bank0
  2094  0387  066D               	xorwf	(main@state),w
  2095  0388  046E               	iorwf	(main@state+1),w
  2096  0389  1D03               	skipz
  2097  038A  2B8C               	goto	u3401
  2098  038B  2B8D               	goto	u3400
  2099  038C                     u3401:
  2100  038C  2B93               	goto	l1114
  2101  038D                     u3400:
  2102                           	line	192
  2103                           	
  2104  038D                     l3191:	
  2105                           ;carparking.c: 191: {
  2106                           ;carparking.c: 192: control=2;
  2107  038D  3002               	movlw	low(02h)
  2108  038E  1683               	bsf	status, 5	;RP0=1, select bank3
  2109  038F  1703               	bsf	status, 6	;RP1=1, select bank3
  2110  0390  00DE               	movwf	(main@control)^0180h
  2111  0391  3000               	movlw	high(02h)
  2112  0392  00DF               	movwf	((main@control)^0180h)+1
  2113                           	line	193
  2114                           	
  2115  0393                     l1114:	
  2116                           	line	194
  2117                           ;carparking.c: 193: }
  2118                           ;carparking.c: 194: if(state==2)
  2119  0393  3002               	movlw	02h
  2120  0394  1283               	bcf	status, 5	;RP0=0, select bank0
  2121  0395  1303               	bcf	status, 6	;RP1=0, select bank0
  2122  0396  066D               	xorwf	(main@state),w
  2123  0397  046E               	iorwf	(main@state+1),w
  2124  0398  1D03               	skipz
  2125  0399  2B9B               	goto	u3411
  2126  039A  2B9C               	goto	u3410
  2127  039B                     u3411:
  2128  039B  2BA4               	goto	l3195
  2129  039C                     u3410:
  2130                           	line	196
  2131                           	
  2132  039C                     l3193:	
  2133                           ;carparking.c: 195: {
  2134                           ;carparking.c: 196: control=3;
  2135  039C  3003               	movlw	low(03h)
  2136  039D  1683               	bsf	status, 5	;RP0=1, select bank3
  2137  039E  1703               	bsf	status, 6	;RP1=1, select bank3
  2138  039F  00DE               	movwf	(main@control)^0180h
  2139  03A0  3000               	movlw	high(03h)
  2140  03A1  00DF               	movwf	((main@control)^0180h)+1
  2141  03A2  2BA4               	goto	l3195
  2142                           	line	197
  2143                           	
  2144  03A3                     l1115:	
  2145  03A3  2BA4               	goto	l3195
  2146                           	line	198
  2147                           	
  2148  03A4                     l1101:	
  2149                           	line	199
  2150                           	
  2151  03A4                     l3195:	
  2152                           ;carparking.c: 197: }
  2153                           ;carparking.c: 198: }
  2154                           ;carparking.c: 199: if(RD1==1)
  2155  03A4  1283               	bcf	status, 5	;RP0=0, select bank0
  2156  03A5  1303               	bcf	status, 6	;RP1=0, select bank0
  2157  03A6  1C88               	btfss	(65/8),(65)&7
  2158  03A7  2BA9               	goto	u3421
  2159  03A8  2BAA               	goto	u3420
  2160  03A9                     u3421:
  2161  03A9  2BD8               	goto	l3207
  2162  03AA                     u3420:
  2163  03AA  2BAC               	goto	l1117
  2164                           	line	201
  2165                           	
  2166  03AB                     l3197:	
  2167                           ;carparking.c: 200: {
  2168                           ;carparking.c: 201: while(RD1==1);
  2169  03AB  2BAC               	goto	l1117
  2170                           	
  2171  03AC                     l1118:	
  2172                           	
  2173  03AC                     l1117:	
  2174  03AC  1888               	btfsc	(65/8),(65)&7
  2175  03AD  2BAF               	goto	u3431
  2176  03AE  2BB0               	goto	u3430
  2177  03AF                     u3431:
  2178  03AF  2BAC               	goto	l1117
  2179  03B0                     u3430:
  2180  03B0  2BB1               	goto	l3199
  2181                           	
  2182  03B1                     l1119:	
  2183                           	line	202
  2184                           	
  2185  03B1                     l3199:	
  2186                           ;carparking.c: 202: arr[j]='0';
  2187  03B1  3030               	movlw	(030h)
  2188  03B2  00F3               	movwf	(??_main+0)+0
  2189  03B3  1683               	bsf	status, 5	;RP0=1, select bank3
  2190  03B4  1703               	bsf	status, 6	;RP1=1, select bank3
  2191  03B5  0864               	movf	(main@j)^0180h,w
  2192  03B6  3EDE               	addlw	main@arr&0ffh
  2193  03B7  0084               	movwf	fsr0
  2194  03B8  0873               	movf	(??_main+0)+0,w
  2195  03B9  1383               	bcf	status, 7	;select IRP bank1
  2196  03BA  0080               	movwf	indf
  2197                           	line	203
  2198                           	
  2199  03BB                     l3201:	
  2200                           ;carparking.c: 203: address(0X80+j);
  2201  03BB  0864               	movf	(main@j)^0180h,w
  2202  03BC  3E80               	addlw	080h
  2203  03BD  120A  158A  274F   	fcall	_address
              120A  118A         
  2204                           	line	204
  2205                           	
  2206  03C2                     l3203:	
  2207                           ;carparking.c: 204: display(arr[j]);
  2208  03C2  1683               	bsf	status, 5	;RP0=1, select bank3
  2209  03C3  1703               	bsf	status, 6	;RP1=1, select bank3
  2210  03C4  0864               	movf	(main@j)^0180h,w
  2211  03C5  3EDE               	addlw	main@arr&0ffh
  2212  03C6  0084               	movwf	fsr0
  2213  03C7  1383               	bcf	status, 7	;select IRP bank1
  2214  03C8  0800               	movf	indf,w
  2215  03C9  120A  158A  275C   	fcall	_display
              120A  118A         
  2216                           	line	205
  2217                           	
  2218  03CE                     l3205:	
  2219                           ;carparking.c: 205: j++;
  2220  03CE  3001               	movlw	low(01h)
  2221  03CF  1683               	bsf	status, 5	;RP0=1, select bank3
  2222  03D0  1703               	bsf	status, 6	;RP1=1, select bank3
  2223  03D1  07E4               	addwf	(main@j)^0180h,f
  2224  03D2  1803               	skipnc
  2225  03D3  0AE5               	incf	(main@j+1)^0180h,f
  2226  03D4  3000               	movlw	high(01h)
  2227  03D5  07E5               	addwf	(main@j+1)^0180h,f
  2228  03D6  2BD8               	goto	l3207
  2229                           	line	206
  2230                           	
  2231  03D7                     l1116:	
  2232  03D7  2BD8               	goto	l3207
  2233                           	line	207
  2234                           	
  2235  03D8                     l1064:	
  2236                           	line	208
  2237                           	
  2238  03D8                     l3207:	
  2239                           ;carparking.c: 206: }
  2240                           ;carparking.c: 207: }
  2241                           ;carparking.c: 208: if(control==2)
  2242  03D8  3002               	movlw	02h
  2243  03D9  1683               	bsf	status, 5	;RP0=1, select bank3
  2244  03DA  1703               	bsf	status, 6	;RP1=1, select bank3
  2245  03DB  065E               	xorwf	(main@control)^0180h,w
  2246  03DC  045F               	iorwf	(main@control+1)^0180h,w
  2247  03DD  1D03               	skipz
  2248  03DE  2BE0               	goto	u3441
  2249  03DF  2BE1               	goto	u3440
  2250  03E0                     u3441:
  2251  03E0  2CA1               	goto	l3293
  2252  03E1                     u3440:
  2253                           	line	210
  2254                           	
  2255  03E1                     l3209:	
  2256                           ;carparking.c: 209: {
  2257                           ;carparking.c: 210: for(k=0;k<12;k++)
  2258  03E1  01E0               	clrf	(main@k)^0180h
  2259  03E2  01E1               	clrf	(main@k+1)^0180h
  2260                           	
  2261  03E3                     l3211:	
  2262  03E3  0861               	movf	(main@k+1)^0180h,w
  2263  03E4  3A80               	xorlw	80h
  2264  03E5  00FF               	movwf	btemp+1
  2265  03E6  3080               	movlw	(high(0Ch))^80h
  2266  03E7  027F               	subwf	btemp+1,w
  2267  03E8  1D03               	skipz
  2268  03E9  2BEC               	goto	u3455
  2269  03EA  300C               	movlw	low(0Ch)
  2270  03EB  0260               	subwf	(main@k)^0180h,w
  2271  03EC                     u3455:
  2272                           
  2273  03EC  1C03               	skipc
  2274  03ED  2BEF               	goto	u3451
  2275  03EE  2BF0               	goto	u3450
  2276  03EF                     u3451:
  2277  03EF  2BF2               	goto	l3215
  2278  03F0                     u3450:
  2279  03F0  2C1C               	goto	l1122
  2280                           	
  2281  03F1                     l3213:	
  2282  03F1  2C1C               	goto	l1122
  2283                           	line	211
  2284                           	
  2285  03F2                     l1121:	
  2286                           	line	212
  2287                           	
  2288  03F2                     l3215:	
  2289                           ;carparking.c: 211: {
  2290                           ;carparking.c: 212: address(0XC0+k);
  2291  03F2  1683               	bsf	status, 5	;RP0=1, select bank3
  2292  03F3  1703               	bsf	status, 6	;RP1=1, select bank3
  2293  03F4  0860               	movf	(main@k)^0180h,w
  2294  03F5  3EC0               	addlw	0C0h
  2295  03F6  120A  158A  274F   	fcall	_address
              120A  118A         
  2296                           	line	213
  2297                           	
  2298  03FB                     l3217:	
  2299                           ;carparking.c: 213: display(wrong[k]);
  2300  03FB  1683               	bsf	status, 5	;RP0=1, select bank3
  2301  03FC  1703               	bsf	status, 6	;RP1=1, select bank3
  2302  03FD  0860               	movf	(main@k)^0180h,w
  2303  03FE  3E46               	addlw	main@wrong&0ffh
  2304  03FF  0084               	movwf	fsr0
  2305  0400  1383               	bcf	status, 7	;select IRP bank0
  2306  0401  0800               	movf	indf,w
  2307  0402  120A  158A  275C   	fcall	_display
              120A  118A         
  2308                           	line	210
  2309                           	
  2310  0407                     l3219:	
  2311  0407  3001               	movlw	low(01h)
  2312  0408  1683               	bsf	status, 5	;RP0=1, select bank3
  2313  0409  1703               	bsf	status, 6	;RP1=1, select bank3
  2314  040A  07E0               	addwf	(main@k)^0180h,f
  2315  040B  1803               	skipnc
  2316  040C  0AE1               	incf	(main@k+1)^0180h,f
  2317  040D  3000               	movlw	high(01h)
  2318  040E  07E1               	addwf	(main@k+1)^0180h,f
  2319                           	
  2320  040F                     l3221:	
  2321  040F  0861               	movf	(main@k+1)^0180h,w
  2322  0410  3A80               	xorlw	80h
  2323  0411  00FF               	movwf	btemp+1
  2324  0412  3080               	movlw	(high(0Ch))^80h
  2325  0413  027F               	subwf	btemp+1,w
  2326  0414  1D03               	skipz
  2327  0415  2C18               	goto	u3465
  2328  0416  300C               	movlw	low(0Ch)
  2329  0417  0260               	subwf	(main@k)^0180h,w
  2330  0418                     u3465:
  2331                           
  2332  0418  1C03               	skipc
  2333  0419  2C1B               	goto	u3461
  2334  041A  2C1C               	goto	u3460
  2335  041B                     u3461:
  2336  041B  2BF2               	goto	l3215
  2337  041C                     u3460:
  2338                           	
  2339  041C                     l1122:	
  2340                           	line	215
  2341                           ;carparking.c: 214: }
  2342                           ;carparking.c: 215: RD3=1;RD4=0;RD5=0;RD6=0;
  2343  041C  1283               	bcf	status, 5	;RP0=0, select bank0
  2344  041D  1303               	bcf	status, 6	;RP1=0, select bank0
  2345  041E  1588               	bsf	(67/8),(67)&7
  2346  041F  1208               	bcf	(68/8),(68)&7
  2347  0420  1288               	bcf	(69/8),(69)&7
  2348  0421  1308               	bcf	(70/8),(70)&7
  2349                           	line	216
  2350                           ;carparking.c: 216: if(RD0==1 || RD1==1 || RD2==1)
  2351  0422  1808               	btfsc	(64/8),(64)&7
  2352  0423  2C25               	goto	u3471
  2353  0424  2C26               	goto	u3470
  2354  0425                     u3471:
  2355  0425  2C2F               	goto	l3227
  2356  0426                     u3470:
  2357                           	
  2358  0426                     l3223:	
  2359  0426  1888               	btfsc	(65/8),(65)&7
  2360  0427  2C29               	goto	u3481
  2361  0428  2C2A               	goto	u3480
  2362  0429                     u3481:
  2363  0429  2C2F               	goto	l3227
  2364  042A                     u3480:
  2365                           	
  2366  042A                     l3225:	
  2367  042A  1D08               	btfss	(66/8),(66)&7
  2368  042B  2C2D               	goto	u3491
  2369  042C  2C2E               	goto	u3490
  2370  042D                     u3491:
  2371  042D  2C3D               	goto	l3233
  2372  042E                     u3490:
  2373  042E  2C2F               	goto	l3227
  2374                           	
  2375  042F                     l1125:	
  2376                           	line	218
  2377                           	
  2378  042F                     l3227:	
  2379                           ;carparking.c: 217: {
  2380                           ;carparking.c: 218: clear();
  2381  042F  120A  158A  2743   	fcall	_clear
              120A  118A         
  2382                           	line	219
  2383                           	
  2384  0434                     l3229:	
  2385                           ;carparking.c: 219: control=1;
  2386  0434  3001               	movlw	low(01h)
  2387  0435  1683               	bsf	status, 5	;RP0=1, select bank3
  2388  0436  1703               	bsf	status, 6	;RP1=1, select bank3
  2389  0437  00DE               	movwf	(main@control)^0180h
  2390  0438  3000               	movlw	high(01h)
  2391  0439  00DF               	movwf	((main@control)^0180h)+1
  2392                           	line	220
  2393                           	
  2394  043A                     l3231:	
  2395                           ;carparking.c: 220: j=0;
  2396  043A  01E4               	clrf	(main@j)^0180h
  2397  043B  01E5               	clrf	(main@j+1)^0180h
  2398  043C  2C3D               	goto	l3233
  2399                           	line	221
  2400                           	
  2401  043D                     l1123:	
  2402                           	line	222
  2403                           	
  2404  043D                     l3233:	
  2405                           ;carparking.c: 221: }
  2406                           ;carparking.c: 222: RD3=0;RD4=1;RD5=0;RD6=0;
  2407  043D  1283               	bcf	status, 5	;RP0=0, select bank0
  2408  043E  1303               	bcf	status, 6	;RP1=0, select bank0
  2409  043F  1188               	bcf	(67/8),(67)&7
  2410                           	
  2411  0440                     l3235:	
  2412  0440  1608               	bsf	(68/8),(68)&7
  2413                           	
  2414  0441                     l3237:	
  2415  0441  1288               	bcf	(69/8),(69)&7
  2416                           	
  2417  0442                     l3239:	
  2418  0442  1308               	bcf	(70/8),(70)&7
  2419                           	line	223
  2420                           	
  2421  0443                     l3241:	
  2422                           ;carparking.c: 223: if(RD0==1 || RD1==1 || RD2==1)
  2423  0443  1808               	btfsc	(64/8),(64)&7
  2424  0444  2C46               	goto	u3501
  2425  0445  2C47               	goto	u3500
  2426  0446                     u3501:
  2427  0446  2C50               	goto	l3247
  2428  0447                     u3500:
  2429                           	
  2430  0447                     l3243:	
  2431  0447  1888               	btfsc	(65/8),(65)&7
  2432  0448  2C4A               	goto	u3511
  2433  0449  2C4B               	goto	u3510
  2434  044A                     u3511:
  2435  044A  2C50               	goto	l3247
  2436  044B                     u3510:
  2437                           	
  2438  044B                     l3245:	
  2439  044B  1D08               	btfss	(66/8),(66)&7
  2440  044C  2C4E               	goto	u3521
  2441  044D  2C4F               	goto	u3520
  2442  044E                     u3521:
  2443  044E  2C5E               	goto	l3253
  2444  044F                     u3520:
  2445  044F  2C50               	goto	l3247
  2446                           	
  2447  0450                     l1128:	
  2448                           	line	225
  2449                           	
  2450  0450                     l3247:	
  2451                           ;carparking.c: 224: {
  2452                           ;carparking.c: 225: clear();
  2453  0450  120A  158A  2743   	fcall	_clear
              120A  118A         
  2454                           	line	226
  2455                           	
  2456  0455                     l3249:	
  2457                           ;carparking.c: 226: control=1;
  2458  0455  3001               	movlw	low(01h)
  2459  0456  1683               	bsf	status, 5	;RP0=1, select bank3
  2460  0457  1703               	bsf	status, 6	;RP1=1, select bank3
  2461  0458  00DE               	movwf	(main@control)^0180h
  2462  0459  3000               	movlw	high(01h)
  2463  045A  00DF               	movwf	((main@control)^0180h)+1
  2464                           	line	227
  2465                           	
  2466  045B                     l3251:	
  2467                           ;carparking.c: 227: j=0;
  2468  045B  01E4               	clrf	(main@j)^0180h
  2469  045C  01E5               	clrf	(main@j+1)^0180h
  2470  045D  2C5E               	goto	l3253
  2471                           	line	228
  2472                           	
  2473  045E                     l1126:	
  2474                           	line	229
  2475                           	
  2476  045E                     l3253:	
  2477                           ;carparking.c: 228: }
  2478                           ;carparking.c: 229: RD3=0;RD4=0;RD5=1;RD6=0;
  2479  045E  1283               	bcf	status, 5	;RP0=0, select bank0
  2480  045F  1303               	bcf	status, 6	;RP1=0, select bank0
  2481  0460  1188               	bcf	(67/8),(67)&7
  2482                           	
  2483  0461                     l3255:	
  2484  0461  1208               	bcf	(68/8),(68)&7
  2485                           	
  2486  0462                     l3257:	
  2487  0462  1688               	bsf	(69/8),(69)&7
  2488                           	
  2489  0463                     l3259:	
  2490  0463  1308               	bcf	(70/8),(70)&7
  2491                           	line	230
  2492                           	
  2493  0464                     l3261:	
  2494                           ;carparking.c: 230: if(RD0==1 || RD1==1 || RD2==1)
  2495  0464  1808               	btfsc	(64/8),(64)&7
  2496  0465  2C67               	goto	u3531
  2497  0466  2C68               	goto	u3530
  2498  0467                     u3531:
  2499  0467  2C71               	goto	l3267
  2500  0468                     u3530:
  2501                           	
  2502  0468                     l3263:	
  2503  0468  1888               	btfsc	(65/8),(65)&7
  2504  0469  2C6B               	goto	u3541
  2505  046A  2C6C               	goto	u3540
  2506  046B                     u3541:
  2507  046B  2C71               	goto	l3267
  2508  046C                     u3540:
  2509                           	
  2510  046C                     l3265:	
  2511  046C  1D08               	btfss	(66/8),(66)&7
  2512  046D  2C6F               	goto	u3551
  2513  046E  2C70               	goto	u3550
  2514  046F                     u3551:
  2515  046F  2C7F               	goto	l3273
  2516  0470                     u3550:
  2517  0470  2C71               	goto	l3267
  2518                           	
  2519  0471                     l1131:	
  2520                           	line	232
  2521                           	
  2522  0471                     l3267:	
  2523                           ;carparking.c: 231: {
  2524                           ;carparking.c: 232: clear();
  2525  0471  120A  158A  2743   	fcall	_clear
              120A  118A         
  2526                           	line	233
  2527                           	
  2528  0476                     l3269:	
  2529                           ;carparking.c: 233: control=1;
  2530  0476  3001               	movlw	low(01h)
  2531  0477  1683               	bsf	status, 5	;RP0=1, select bank3
  2532  0478  1703               	bsf	status, 6	;RP1=1, select bank3
  2533  0479  00DE               	movwf	(main@control)^0180h
  2534  047A  3000               	movlw	high(01h)
  2535  047B  00DF               	movwf	((main@control)^0180h)+1
  2536                           	line	234
  2537                           	
  2538  047C                     l3271:	
  2539                           ;carparking.c: 234: j=0;
  2540  047C  01E4               	clrf	(main@j)^0180h
  2541  047D  01E5               	clrf	(main@j+1)^0180h
  2542  047E  2C7F               	goto	l3273
  2543                           	line	235
  2544                           	
  2545  047F                     l1129:	
  2546                           	line	236
  2547                           	
  2548  047F                     l3273:	
  2549                           ;carparking.c: 235: }
  2550                           ;carparking.c: 236: RD3=0;RD4=0;RD5=0;RD6=1;
  2551  047F  1283               	bcf	status, 5	;RP0=0, select bank0
  2552  0480  1303               	bcf	status, 6	;RP1=0, select bank0
  2553  0481  1188               	bcf	(67/8),(67)&7
  2554                           	
  2555  0482                     l3275:	
  2556  0482  1208               	bcf	(68/8),(68)&7
  2557                           	
  2558  0483                     l3277:	
  2559  0483  1288               	bcf	(69/8),(69)&7
  2560                           	
  2561  0484                     l3279:	
  2562  0484  1708               	bsf	(70/8),(70)&7
  2563                           	line	237
  2564                           	
  2565  0485                     l3281:	
  2566                           ;carparking.c: 237: if(RD0==1 || RD1==1 || RD2==1)
  2567  0485  1808               	btfsc	(64/8),(64)&7
  2568  0486  2C88               	goto	u3561
  2569  0487  2C89               	goto	u3560
  2570  0488                     u3561:
  2571  0488  2C92               	goto	l3287
  2572  0489                     u3560:
  2573                           	
  2574  0489                     l3283:	
  2575  0489  1888               	btfsc	(65/8),(65)&7
  2576  048A  2C8C               	goto	u3571
  2577  048B  2C8D               	goto	u3570
  2578  048C                     u3571:
  2579  048C  2C92               	goto	l3287
  2580  048D                     u3570:
  2581                           	
  2582  048D                     l3285:	
  2583  048D  1D08               	btfss	(66/8),(66)&7
  2584  048E  2C90               	goto	u3581
  2585  048F  2C91               	goto	u3580
  2586  0490                     u3581:
  2587  0490  2CA1               	goto	l3293
  2588  0491                     u3580:
  2589  0491  2C92               	goto	l3287
  2590                           	
  2591  0492                     l1134:	
  2592                           	line	239
  2593                           	
  2594  0492                     l3287:	
  2595                           ;carparking.c: 238: {
  2596                           ;carparking.c: 239: clear();
  2597  0492  120A  158A  2743   	fcall	_clear
              120A  118A         
  2598                           	line	240
  2599                           	
  2600  0497                     l3289:	
  2601                           ;carparking.c: 240: control=1;
  2602  0497  3001               	movlw	low(01h)
  2603  0498  1683               	bsf	status, 5	;RP0=1, select bank3
  2604  0499  1703               	bsf	status, 6	;RP1=1, select bank3
  2605  049A  00DE               	movwf	(main@control)^0180h
  2606  049B  3000               	movlw	high(01h)
  2607  049C  00DF               	movwf	((main@control)^0180h)+1
  2608                           	line	241
  2609                           	
  2610  049D                     l3291:	
  2611                           ;carparking.c: 241: j=0;
  2612  049D  01E4               	clrf	(main@j)^0180h
  2613  049E  01E5               	clrf	(main@j+1)^0180h
  2614  049F  2CA1               	goto	l3293
  2615                           	line	242
  2616                           	
  2617  04A0                     l1132:	
  2618  04A0  2CA1               	goto	l3293
  2619                           	line	243
  2620                           	
  2621  04A1                     l1120:	
  2622                           	line	244
  2623                           	
  2624  04A1                     l3293:	
  2625                           ;carparking.c: 242: }
  2626                           ;carparking.c: 243: }
  2627                           ;carparking.c: 244: if(control==3)
  2628  04A1  3003               	movlw	03h
  2629  04A2  1683               	bsf	status, 5	;RP0=1, select bank3
  2630  04A3  1703               	bsf	status, 6	;RP1=1, select bank3
  2631  04A4  065E               	xorwf	(main@control)^0180h,w
  2632  04A5  045F               	iorwf	(main@control+1)^0180h,w
  2633  04A6  1D03               	skipz
  2634  04A7  2CA9               	goto	u3591
  2635  04A8  2CAA               	goto	u3590
  2636  04A9                     u3591:
  2637  04A9  2DCD               	goto	l1135
  2638  04AA                     u3590:
  2639                           	line	246
  2640                           	
  2641  04AA                     l3295:	
  2642                           ;carparking.c: 245: {
  2643                           ;carparking.c: 246: for(i=0;i<8;i++)
  2644  04AA  01E2               	clrf	(main@i)^0180h
  2645  04AB  01E3               	clrf	(main@i+1)^0180h
  2646                           	
  2647  04AC                     l3297:	
  2648  04AC  0863               	movf	(main@i+1)^0180h,w
  2649  04AD  3A80               	xorlw	80h
  2650  04AE  00FF               	movwf	btemp+1
  2651  04AF  3080               	movlw	(high(08h))^80h
  2652  04B0  027F               	subwf	btemp+1,w
  2653  04B1  1D03               	skipz
  2654  04B2  2CB5               	goto	u3605
  2655  04B3  3008               	movlw	low(08h)
  2656  04B4  0262               	subwf	(main@i)^0180h,w
  2657  04B5                     u3605:
  2658                           
  2659  04B5  1C03               	skipc
  2660  04B6  2CB8               	goto	u3601
  2661  04B7  2CB9               	goto	u3600
  2662  04B8                     u3601:
  2663  04B8  2CBB               	goto	l3301
  2664  04B9                     u3600:
  2665  04B9  2CEF               	goto	l1137
  2666                           	
  2667  04BA                     l3299:	
  2668  04BA  2CEF               	goto	l1137
  2669                           	line	247
  2670                           	
  2671  04BB                     l1136:	
  2672                           	line	248
  2673                           	
  2674  04BB                     l3301:	
  2675                           ;carparking.c: 247: {
  2676                           ;carparking.c: 248: sensor[i]=0;
  2677  04BB  1683               	bsf	status, 5	;RP0=1, select bank3
  2678  04BC  1703               	bsf	status, 6	;RP1=1, select bank3
  2679  04BD  0862               	movf	(main@i)^0180h,w
  2680  04BE  00F3               	movwf	(??_main+0)+0
  2681  04BF  0773               	addwf	(??_main+0)+0,w
  2682  04C0  3ECE               	addlw	main@sensor&0ffh
  2683  04C1  0084               	movwf	fsr0
  2684  04C2  3000               	movlw	low(0)
  2685  04C3  1383               	bcf	status, 7	;select IRP bank1
  2686  04C4  0080               	movwf	indf
  2687  04C5  0A84               	incf	fsr0,f
  2688  04C6  3000               	movlw	high(0)
  2689  04C7  0080               	movwf	indf
  2690                           	line	249
  2691                           ;carparking.c: 249: empty[i]='\0';
  2692  04C8  0862               	movf	(main@i)^0180h,w
  2693  04C9  00F3               	movwf	(??_main+0)+0
  2694  04CA  0773               	addwf	(??_main+0)+0,w
  2695  04CB  3EA0               	addlw	main@empty&0ffh
  2696  04CC  0084               	movwf	fsr0
  2697  04CD  3000               	movlw	low(0)
  2698  04CE  0080               	movwf	indf
  2699  04CF  0A84               	incf	fsr0,f
  2700  04D0  3000               	movlw	high(0)
  2701  04D1  0080               	movwf	indf
  2702                           	line	250
  2703                           ;carparking.c: 250: val[i]='\0';
  2704  04D2  0862               	movf	(main@i)^0180h,w
  2705  04D3  00F3               	movwf	(??_main+0)+0
  2706  04D4  0773               	addwf	(??_main+0)+0,w
  2707  04D5  3EBE               	addlw	main@val&0ffh
  2708  04D6  0084               	movwf	fsr0
  2709  04D7  3000               	movlw	low(0)
  2710  04D8  0080               	movwf	indf
  2711  04D9  0A84               	incf	fsr0,f
  2712  04DA  3000               	movlw	high(0)
  2713  04DB  0080               	movwf	indf
  2714                           	line	246
  2715                           	
  2716  04DC                     l3303:	
  2717  04DC  3001               	movlw	low(01h)
  2718  04DD  07E2               	addwf	(main@i)^0180h,f
  2719  04DE  1803               	skipnc
  2720  04DF  0AE3               	incf	(main@i+1)^0180h,f
  2721  04E0  3000               	movlw	high(01h)
  2722  04E1  07E3               	addwf	(main@i+1)^0180h,f
  2723                           	
  2724  04E2                     l3305:	
  2725  04E2  0863               	movf	(main@i+1)^0180h,w
  2726  04E3  3A80               	xorlw	80h
  2727  04E4  00FF               	movwf	btemp+1
  2728  04E5  3080               	movlw	(high(08h))^80h
  2729  04E6  027F               	subwf	btemp+1,w
  2730  04E7  1D03               	skipz
  2731  04E8  2CEB               	goto	u3615
  2732  04E9  3008               	movlw	low(08h)
  2733  04EA  0262               	subwf	(main@i)^0180h,w
  2734  04EB                     u3615:
  2735                           
  2736  04EB  1C03               	skipc
  2737  04EC  2CEE               	goto	u3611
  2738  04ED  2CEF               	goto	u3610
  2739  04EE                     u3611:
  2740  04EE  2CBB               	goto	l3301
  2741  04EF                     u3610:
  2742                           	
  2743  04EF                     l1137:	
  2744                           	line	252
  2745                           ;carparking.c: 251: }
  2746                           ;carparking.c: 252: if(RC0==1)
  2747  04EF  1283               	bcf	status, 5	;RP0=0, select bank0
  2748  04F0  1303               	bcf	status, 6	;RP1=0, select bank0
  2749  04F1  1C07               	btfss	(56/8),(56)&7
  2750  04F2  2CF4               	goto	u3621
  2751  04F3  2CF5               	goto	u3620
  2752  04F4                     u3621:
  2753  04F4  2CFC               	goto	l3309
  2754  04F5                     u3620:
  2755                           	line	254
  2756                           	
  2757  04F5                     l3307:	
  2758                           ;carparking.c: 253: {
  2759                           ;carparking.c: 254: sensor[0]=1;
  2760  04F5  3001               	movlw	low(01h)
  2761  04F6  1683               	bsf	status, 5	;RP0=1, select bank1
  2762  04F7  1303               	bcf	status, 6	;RP1=0, select bank1
  2763  04F8  00CE               	movwf	(main@sensor)^080h
  2764  04F9  3000               	movlw	high(01h)
  2765  04FA  00CF               	movwf	((main@sensor)^080h)+1
  2766  04FB  2CFC               	goto	l3309
  2767                           	line	255
  2768                           	
  2769  04FC                     l1138:	
  2770                           	line	256
  2771                           	
  2772  04FC                     l3309:	
  2773                           ;carparking.c: 255: }
  2774                           ;carparking.c: 256: if(RC1==1)
  2775  04FC  1283               	bcf	status, 5	;RP0=0, select bank0
  2776  04FD  1C87               	btfss	(57/8),(57)&7
  2777  04FE  2D00               	goto	u3631
  2778  04FF  2D01               	goto	u3630
  2779  0500                     u3631:
  2780  0500  2D08               	goto	l3313
  2781  0501                     u3630:
  2782                           	line	258
  2783                           	
  2784  0501                     l3311:	
  2785                           ;carparking.c: 257: {
  2786                           ;carparking.c: 258: sensor[1]=2;
  2787  0501  3002               	movlw	low(02h)
  2788  0502  1683               	bsf	status, 5	;RP0=1, select bank1
  2789  0503  1303               	bcf	status, 6	;RP1=0, select bank1
  2790  0504  00D0               	movwf	0+(main@sensor)^080h+02h
  2791  0505  3000               	movlw	high(02h)
  2792  0506  00D1               	movwf	(0+(main@sensor)^080h+02h)+1
  2793  0507  2D08               	goto	l3313
  2794                           	line	259
  2795                           	
  2796  0508                     l1139:	
  2797                           	line	260
  2798                           	
  2799  0508                     l3313:	
  2800                           ;carparking.c: 259: }
  2801                           ;carparking.c: 260: if(RC2==1)
  2802  0508  1283               	bcf	status, 5	;RP0=0, select bank0
  2803  0509  1D07               	btfss	(58/8),(58)&7
  2804  050A  2D0C               	goto	u3641
  2805  050B  2D0D               	goto	u3640
  2806  050C                     u3641:
  2807  050C  2D14               	goto	l3317
  2808  050D                     u3640:
  2809                           	line	262
  2810                           	
  2811  050D                     l3315:	
  2812                           ;carparking.c: 261: {
  2813                           ;carparking.c: 262: sensor[2]=3;
  2814  050D  3003               	movlw	low(03h)
  2815  050E  1683               	bsf	status, 5	;RP0=1, select bank1
  2816  050F  1303               	bcf	status, 6	;RP1=0, select bank1
  2817  0510  00D2               	movwf	0+(main@sensor)^080h+04h
  2818  0511  3000               	movlw	high(03h)
  2819  0512  00D3               	movwf	(0+(main@sensor)^080h+04h)+1
  2820  0513  2D14               	goto	l3317
  2821                           	line	263
  2822                           	
  2823  0514                     l1140:	
  2824                           	line	264
  2825                           	
  2826  0514                     l3317:	
  2827                           ;carparking.c: 263: }
  2828                           ;carparking.c: 264: if(RC3==1)
  2829  0514  1283               	bcf	status, 5	;RP0=0, select bank0
  2830  0515  1D87               	btfss	(59/8),(59)&7
  2831  0516  2D18               	goto	u3651
  2832  0517  2D19               	goto	u3650
  2833  0518                     u3651:
  2834  0518  2D20               	goto	l3321
  2835  0519                     u3650:
  2836                           	line	266
  2837                           	
  2838  0519                     l3319:	
  2839                           ;carparking.c: 265: {
  2840                           ;carparking.c: 266: sensor[3]=4;
  2841  0519  3004               	movlw	low(04h)
  2842  051A  1683               	bsf	status, 5	;RP0=1, select bank1
  2843  051B  1303               	bcf	status, 6	;RP1=0, select bank1
  2844  051C  00D4               	movwf	0+(main@sensor)^080h+06h
  2845  051D  3000               	movlw	high(04h)
  2846  051E  00D5               	movwf	(0+(main@sensor)^080h+06h)+1
  2847  051F  2D20               	goto	l3321
  2848                           	line	267
  2849                           	
  2850  0520                     l1141:	
  2851                           	line	268
  2852                           	
  2853  0520                     l3321:	
  2854                           ;carparking.c: 267: }
  2855                           ;carparking.c: 268: if(RC4==1)
  2856  0520  1283               	bcf	status, 5	;RP0=0, select bank0
  2857  0521  1E07               	btfss	(60/8),(60)&7
  2858  0522  2D24               	goto	u3661
  2859  0523  2D25               	goto	u3660
  2860  0524                     u3661:
  2861  0524  2D2C               	goto	l3325
  2862  0525                     u3660:
  2863                           	line	270
  2864                           	
  2865  0525                     l3323:	
  2866                           ;carparking.c: 269: {
  2867                           ;carparking.c: 270: sensor[4]=5;
  2868  0525  3005               	movlw	low(05h)
  2869  0526  1683               	bsf	status, 5	;RP0=1, select bank1
  2870  0527  1303               	bcf	status, 6	;RP1=0, select bank1
  2871  0528  00D6               	movwf	0+(main@sensor)^080h+08h
  2872  0529  3000               	movlw	high(05h)
  2873  052A  00D7               	movwf	(0+(main@sensor)^080h+08h)+1
  2874  052B  2D2C               	goto	l3325
  2875                           	line	271
  2876                           	
  2877  052C                     l1142:	
  2878                           	line	272
  2879                           	
  2880  052C                     l3325:	
  2881                           ;carparking.c: 271: }
  2882                           ;carparking.c: 272: if(RC5==1)
  2883  052C  1283               	bcf	status, 5	;RP0=0, select bank0
  2884  052D  1E87               	btfss	(61/8),(61)&7
  2885  052E  2D30               	goto	u3671
  2886  052F  2D31               	goto	u3670
  2887  0530                     u3671:
  2888  0530  2D38               	goto	l3329
  2889  0531                     u3670:
  2890                           	line	274
  2891                           	
  2892  0531                     l3327:	
  2893                           ;carparking.c: 273: {
  2894                           ;carparking.c: 274: sensor[5]=6;
  2895  0531  3006               	movlw	low(06h)
  2896  0532  1683               	bsf	status, 5	;RP0=1, select bank1
  2897  0533  1303               	bcf	status, 6	;RP1=0, select bank1
  2898  0534  00D8               	movwf	0+(main@sensor)^080h+0Ah
  2899  0535  3000               	movlw	high(06h)
  2900  0536  00D9               	movwf	(0+(main@sensor)^080h+0Ah)+1
  2901  0537  2D38               	goto	l3329
  2902                           	line	275
  2903                           	
  2904  0538                     l1143:	
  2905                           	line	276
  2906                           	
  2907  0538                     l3329:	
  2908                           ;carparking.c: 275: }
  2909                           ;carparking.c: 276: if(RC6==1)
  2910  0538  1283               	bcf	status, 5	;RP0=0, select bank0
  2911  0539  1F07               	btfss	(62/8),(62)&7
  2912  053A  2D3C               	goto	u3681
  2913  053B  2D3D               	goto	u3680
  2914  053C                     u3681:
  2915  053C  2D44               	goto	l3333
  2916  053D                     u3680:
  2917                           	line	278
  2918                           	
  2919  053D                     l3331:	
  2920                           ;carparking.c: 277: {
  2921                           ;carparking.c: 278: sensor[6]=7;
  2922  053D  3007               	movlw	low(07h)
  2923  053E  1683               	bsf	status, 5	;RP0=1, select bank1
  2924  053F  1303               	bcf	status, 6	;RP1=0, select bank1
  2925  0540  00DA               	movwf	0+(main@sensor)^080h+0Ch
  2926  0541  3000               	movlw	high(07h)
  2927  0542  00DB               	movwf	(0+(main@sensor)^080h+0Ch)+1
  2928  0543  2D44               	goto	l3333
  2929                           	line	279
  2930                           	
  2931  0544                     l1144:	
  2932                           	line	280
  2933                           	
  2934  0544                     l3333:	
  2935                           ;carparking.c: 279: }
  2936                           ;carparking.c: 280: if(RC7==1)
  2937  0544  1283               	bcf	status, 5	;RP0=0, select bank0
  2938  0545  1F87               	btfss	(63/8),(63)&7
  2939  0546  2D48               	goto	u3691
  2940  0547  2D49               	goto	u3690
  2941  0548                     u3691:
  2942  0548  2D50               	goto	l3337
  2943  0549                     u3690:
  2944                           	line	282
  2945                           	
  2946  0549                     l3335:	
  2947                           ;carparking.c: 281: {
  2948                           ;carparking.c: 282: sensor[7]=8;
  2949  0549  3008               	movlw	low(08h)
  2950  054A  1683               	bsf	status, 5	;RP0=1, select bank1
  2951  054B  1303               	bcf	status, 6	;RP1=0, select bank1
  2952  054C  00DC               	movwf	0+(main@sensor)^080h+0Eh
  2953  054D  3000               	movlw	high(08h)
  2954  054E  00DD               	movwf	(0+(main@sensor)^080h+0Eh)+1
  2955  054F  2D50               	goto	l3337
  2956                           	line	283
  2957                           	
  2958  0550                     l1145:	
  2959                           	line	284
  2960                           	
  2961  0550                     l3337:	
  2962                           ;carparking.c: 283: }
  2963                           ;carparking.c: 284: for(i=0;i<8;i++)
  2964  0550  1683               	bsf	status, 5	;RP0=1, select bank3
  2965  0551  1703               	bsf	status, 6	;RP1=1, select bank3
  2966  0552  01E2               	clrf	(main@i)^0180h
  2967  0553  01E3               	clrf	(main@i+1)^0180h
  2968                           	
  2969  0554                     l3339:	
  2970  0554  0863               	movf	(main@i+1)^0180h,w
  2971  0555  3A80               	xorlw	80h
  2972  0556  00FF               	movwf	btemp+1
  2973  0557  3080               	movlw	(high(08h))^80h
  2974  0558  027F               	subwf	btemp+1,w
  2975  0559  1D03               	skipz
  2976  055A  2D5D               	goto	u3705
  2977  055B  3008               	movlw	low(08h)
  2978  055C  0262               	subwf	(main@i)^0180h,w
  2979  055D                     u3705:
  2980                           
  2981  055D  1C03               	skipc
  2982  055E  2D60               	goto	u3701
  2983  055F  2D61               	goto	u3700
  2984  0560                     u3701:
  2985  0560  2D63               	goto	l3343
  2986  0561                     u3700:
  2987  0561  2DB3               	goto	l3353
  2988                           	
  2989  0562                     l3341:	
  2990  0562  2DB3               	goto	l3353
  2991                           	line	285
  2992                           	
  2993  0563                     l1146:	
  2994                           	line	286
  2995                           	
  2996  0563                     l3343:	
  2997                           ;carparking.c: 285: {
  2998                           ;carparking.c: 286: if(sensor[i]==0)
  2999  0563  1683               	bsf	status, 5	;RP0=1, select bank3
  3000  0564  1703               	bsf	status, 6	;RP1=1, select bank3
  3001  0565  0862               	movf	(main@i)^0180h,w
  3002  0566  00F3               	movwf	(??_main+0)+0
  3003  0567  0773               	addwf	(??_main+0)+0,w
  3004  0568  3ECE               	addlw	main@sensor&0ffh
  3005  0569  0084               	movwf	fsr0
  3006  056A  1383               	bcf	status, 7	;select IRP bank1
  3007  056B  0800               	movf	indf,w
  3008  056C  0A84               	incf	fsr0,f
  3009  056D  0400               	iorwf	indf,w
  3010  056E  1D03               	skipz
  3011  056F  2D71               	goto	u3711
  3012  0570  2D72               	goto	u3710
  3013  0571                     u3711:
  3014  0571  2D9F               	goto	l3349
  3015  0572                     u3710:
  3016                           	line	288
  3017                           	
  3018  0572                     l3345:	
  3019                           ;carparking.c: 287: {
  3020                           ;carparking.c: 288: empty[e]=i;
  3021  0572  085C               	movf	(main@e)^0180h,w
  3022  0573  00F3               	movwf	(??_main+0)+0
  3023  0574  0773               	addwf	(??_main+0)+0,w
  3024  0575  3EA0               	addlw	main@empty&0ffh
  3025  0576  0084               	movwf	fsr0
  3026  0577  0862               	movf	(main@i)^0180h,w
  3027  0578  0080               	movwf	indf
  3028  0579  0A84               	incf	fsr0,f
  3029  057A  0863               	movf	(main@i+1)^0180h,w
  3030  057B  0080               	movwf	indf
  3031                           	line	289
  3032                           ;carparking.c: 289: val[e]=empty[e]+'1';
  3033  057C  085C               	movf	(main@e)^0180h,w
  3034  057D  00F3               	movwf	(??_main+0)+0
  3035  057E  0773               	addwf	(??_main+0)+0,w
  3036  057F  3EA0               	addlw	main@empty&0ffh
  3037  0580  0084               	movwf	fsr0
  3038  0581  0800               	movf	indf,w
  3039  0582  00F4               	movwf	(??_main+1)+0+0
  3040  0583  0A84               	incf	fsr0,f
  3041  0584  0800               	movf	indf,w
  3042  0585  00F5               	movwf	(??_main+1)+0+1
  3043  0586  0874               	movf	0+(??_main+1)+0,w
  3044  0587  3E31               	addlw	low(031h)
  3045  0588  00F6               	movwf	(??_main+3)+0
  3046  0589  0875               	movf	1+(??_main+1)+0,w
  3047  058A  1803               	skipnc
  3048  058B  3E01               	addlw	1
  3049  058C  3E00               	addlw	high(031h)
  3050  058D  00F7               	movwf	1+(??_main+3)+0
  3051  058E  085C               	movf	(main@e)^0180h,w
  3052  058F  00F8               	movwf	(??_main+5)+0
  3053  0590  0778               	addwf	(??_main+5)+0,w
  3054  0591  3EBE               	addlw	main@val&0ffh
  3055  0592  0084               	movwf	fsr0
  3056  0593  0876               	movf	0+(??_main+3)+0,w
  3057  0594  0080               	movwf	indf
  3058  0595  0A84               	incf	fsr0,f
  3059  0596  0877               	movf	1+(??_main+3)+0,w
  3060  0597  0080               	movwf	indf
  3061                           	line	290
  3062                           	
  3063  0598                     l3347:	
  3064                           ;carparking.c: 290: e++;
  3065  0598  3001               	movlw	low(01h)
  3066  0599  07DC               	addwf	(main@e)^0180h,f
  3067  059A  1803               	skipnc
  3068  059B  0ADD               	incf	(main@e+1)^0180h,f
  3069  059C  3000               	movlw	high(01h)
  3070  059D  07DD               	addwf	(main@e+1)^0180h,f
  3071  059E  2D9F               	goto	l3349
  3072                           	line	291
  3073                           	
  3074  059F                     l1148:	
  3075                           	line	284
  3076                           	
  3077  059F                     l3349:	
  3078  059F  3001               	movlw	low(01h)
  3079  05A0  07E2               	addwf	(main@i)^0180h,f
  3080  05A1  1803               	skipnc
  3081  05A2  0AE3               	incf	(main@i+1)^0180h,f
  3082  05A3  3000               	movlw	high(01h)
  3083  05A4  07E3               	addwf	(main@i+1)^0180h,f
  3084                           	
  3085  05A5                     l3351:	
  3086  05A5  0863               	movf	(main@i+1)^0180h,w
  3087  05A6  3A80               	xorlw	80h
  3088  05A7  00FF               	movwf	btemp+1
  3089  05A8  3080               	movlw	(high(08h))^80h
  3090  05A9  027F               	subwf	btemp+1,w
  3091  05AA  1D03               	skipz
  3092  05AB  2DAE               	goto	u3725
  3093  05AC  3008               	movlw	low(08h)
  3094  05AD  0262               	subwf	(main@i)^0180h,w
  3095  05AE                     u3725:
  3096                           
  3097  05AE  1C03               	skipc
  3098  05AF  2DB1               	goto	u3721
  3099  05B0  2DB2               	goto	u3720
  3100  05B1                     u3721:
  3101  05B1  2D63               	goto	l3343
  3102  05B2                     u3720:
  3103  05B2  2DB3               	goto	l3353
  3104                           	
  3105  05B3                     l1147:	
  3106                           	line	293
  3107                           	
  3108  05B3                     l3353:	
  3109                           ;carparking.c: 291: }
  3110                           ;carparking.c: 292: }
  3111                           ;carparking.c: 293: temp=5;
  3112  05B3  3005               	movlw	low(05h)
  3113  05B4  1283               	bcf	status, 5	;RP0=0, select bank0
  3114  05B5  1303               	bcf	status, 6	;RP1=0, select bank0
  3115  05B6  00EB               	movwf	(main@temp)
  3116  05B7  3000               	movlw	high(05h)
  3117  05B8  00EC               	movwf	((main@temp))+1
  3118                           	line	294
  3119                           	
  3120  05B9                     l3355:	
  3121                           ;carparking.c: 294: i=0;
  3122  05B9  1683               	bsf	status, 5	;RP0=1, select bank3
  3123  05BA  1703               	bsf	status, 6	;RP1=1, select bank3
  3124  05BB  01E2               	clrf	(main@i)^0180h
  3125  05BC  01E3               	clrf	(main@i+1)^0180h
  3126                           	line	295
  3127                           	
  3128  05BD                     l3357:	
  3129                           ;carparking.c: 295: if(temp==5)
  3130  05BD  3005               	movlw	05h
  3131  05BE  1283               	bcf	status, 5	;RP0=0, select bank0
  3132  05BF  1303               	bcf	status, 6	;RP1=0, select bank0
  3133  05C0  066B               	xorwf	(main@temp),w
  3134  05C1  046C               	iorwf	(main@temp+1),w
  3135  05C2  1D03               	skipz
  3136  05C3  2DC5               	goto	u3731
  3137  05C4  2DC6               	goto	u3730
  3138  05C5                     u3731:
  3139  05C5  2DCD               	goto	l1135
  3140  05C6                     u3730:
  3141                           	line	297
  3142                           	
  3143  05C6                     l3359:	
  3144                           ;carparking.c: 296: {
  3145                           ;carparking.c: 297: control=4;
  3146  05C6  3004               	movlw	low(04h)
  3147  05C7  1683               	bsf	status, 5	;RP0=1, select bank3
  3148  05C8  1703               	bsf	status, 6	;RP1=1, select bank3
  3149  05C9  00DE               	movwf	(main@control)^0180h
  3150  05CA  3000               	movlw	high(04h)
  3151  05CB  00DF               	movwf	((main@control)^0180h)+1
  3152  05CC  2DCD               	goto	l1135
  3153                           	line	298
  3154                           	
  3155  05CD                     l1149:	
  3156                           	line	299
  3157                           	
  3158  05CD                     l1135:	
  3159                           	line	300
  3160                           ;carparking.c: 298: }
  3161                           ;carparking.c: 299: }
  3162                           ;carparking.c: 300: if(control==4)
  3163  05CD  3004               	movlw	04h
  3164  05CE  1683               	bsf	status, 5	;RP0=1, select bank3
  3165  05CF  1703               	bsf	status, 6	;RP1=1, select bank3
  3166  05D0  065E               	xorwf	(main@control)^0180h,w
  3167  05D1  045F               	iorwf	(main@control+1)^0180h,w
  3168  05D2  1D03               	skipz
  3169  05D3  2DD5               	goto	u3741
  3170  05D4  2DD6               	goto	u3740
  3171  05D5                     u3741:
  3172  05D5  2EE3               	goto	l3425
  3173  05D6                     u3740:
  3174                           	line	302
  3175                           	
  3176  05D6                     l3361:	
  3177                           ;carparking.c: 301: {
  3178                           ;carparking.c: 302: clear();
  3179  05D6  120A  158A  2743   	fcall	_clear
              120A  118A         
  3180                           	line	303
  3181                           	
  3182  05DB                     l3363:	
  3183                           ;carparking.c: 303: for(i=0;i<4;i++)
  3184  05DB  1683               	bsf	status, 5	;RP0=1, select bank3
  3185  05DC  1703               	bsf	status, 6	;RP1=1, select bank3
  3186  05DD  01E2               	clrf	(main@i)^0180h
  3187  05DE  01E3               	clrf	(main@i+1)^0180h
  3188                           	
  3189  05DF                     l3365:	
  3190  05DF  0863               	movf	(main@i+1)^0180h,w
  3191  05E0  3A80               	xorlw	80h
  3192  05E1  00FF               	movwf	btemp+1
  3193  05E2  3080               	movlw	(high(04h))^80h
  3194  05E3  027F               	subwf	btemp+1,w
  3195  05E4  1D03               	skipz
  3196  05E5  2DE8               	goto	u3755
  3197  05E6  3004               	movlw	low(04h)
  3198  05E7  0262               	subwf	(main@i)^0180h,w
  3199  05E8                     u3755:
  3200                           
  3201  05E8  1C03               	skipc
  3202  05E9  2DEB               	goto	u3751
  3203  05EA  2DEC               	goto	u3750
  3204  05EB                     u3751:
  3205  05EB  2DEE               	goto	l3369
  3206  05EC                     u3750:
  3207  05EC  2E19               	goto	l3377
  3208                           	
  3209  05ED                     l3367:	
  3210  05ED  2E19               	goto	l3377
  3211                           	line	304
  3212                           	
  3213  05EE                     l1151:	
  3214                           	line	305
  3215                           	
  3216  05EE                     l3369:	
  3217                           ;carparking.c: 304: {
  3218                           ;carparking.c: 305: address(0X80+i);
  3219  05EE  1683               	bsf	status, 5	;RP0=1, select bank3
  3220  05EF  1703               	bsf	status, 6	;RP1=1, select bank3
  3221  05F0  0862               	movf	(main@i)^0180h,w
  3222  05F1  3E80               	addlw	080h
  3223  05F2  120A  158A  274F   	fcall	_address
              120A  118A         
  3224                           	line	306
  3225                           	
  3226  05F7                     l3371:	
  3227                           ;carparking.c: 306: display(free[i]);
  3228  05F7  1683               	bsf	status, 5	;RP0=1, select bank3
  3229  05F8  1703               	bsf	status, 6	;RP1=1, select bank3
  3230  05F9  0862               	movf	(main@i)^0180h,w
  3231  05FA  3E55               	addlw	main@free&0ffh
  3232  05FB  0084               	movwf	fsr0
  3233  05FC  1383               	bcf	status, 7	;select IRP bank0
  3234  05FD  0800               	movf	indf,w
  3235  05FE  120A  158A  275C   	fcall	_display
              120A  118A         
  3236                           	line	303
  3237                           	
  3238  0603                     l3373:	
  3239  0603  3001               	movlw	low(01h)
  3240  0604  1683               	bsf	status, 5	;RP0=1, select bank3
  3241  0605  1703               	bsf	status, 6	;RP1=1, select bank3
  3242  0606  07E2               	addwf	(main@i)^0180h,f
  3243  0607  1803               	skipnc
  3244  0608  0AE3               	incf	(main@i+1)^0180h,f
  3245  0609  3000               	movlw	high(01h)
  3246  060A  07E3               	addwf	(main@i+1)^0180h,f
  3247                           	
  3248  060B                     l3375:	
  3249  060B  0863               	movf	(main@i+1)^0180h,w
  3250  060C  3A80               	xorlw	80h
  3251  060D  00FF               	movwf	btemp+1
  3252  060E  3080               	movlw	(high(04h))^80h
  3253  060F  027F               	subwf	btemp+1,w
  3254  0610  1D03               	skipz
  3255  0611  2E14               	goto	u3765
  3256  0612  3004               	movlw	low(04h)
  3257  0613  0262               	subwf	(main@i)^0180h,w
  3258  0614                     u3765:
  3259                           
  3260  0614  1C03               	skipc
  3261  0615  2E17               	goto	u3761
  3262  0616  2E18               	goto	u3760
  3263  0617                     u3761:
  3264  0617  2DEE               	goto	l3369
  3265  0618                     u3760:
  3266  0618  2E19               	goto	l3377
  3267                           	
  3268  0619                     l1152:	
  3269                           	line	309
  3270                           	
  3271  0619                     l3377:	
  3272                           ;carparking.c: 308: }
  3273                           ;carparking.c: 309: for(i=0;i<8;i++)
  3274  0619  1683               	bsf	status, 5	;RP0=1, select bank3
  3275  061A  1703               	bsf	status, 6	;RP1=1, select bank3
  3276  061B  01E2               	clrf	(main@i)^0180h
  3277  061C  01E3               	clrf	(main@i+1)^0180h
  3278                           	
  3279  061D                     l3379:	
  3280  061D  0863               	movf	(main@i+1)^0180h,w
  3281  061E  3A80               	xorlw	80h
  3282  061F  00FF               	movwf	btemp+1
  3283  0620  3080               	movlw	(high(08h))^80h
  3284  0621  027F               	subwf	btemp+1,w
  3285  0622  1D03               	skipz
  3286  0623  2E26               	goto	u3775
  3287  0624  3008               	movlw	low(08h)
  3288  0625  0262               	subwf	(main@i)^0180h,w
  3289  0626                     u3775:
  3290                           
  3291  0626  1C03               	skipc
  3292  0627  2E29               	goto	u3771
  3293  0628  2E2A               	goto	u3770
  3294  0629                     u3771:
  3295  0629  2E2C               	goto	l3383
  3296  062A                     u3770:
  3297  062A  2E59               	goto	l3391
  3298                           	
  3299  062B                     l3381:	
  3300  062B  2E59               	goto	l3391
  3301                           	line	310
  3302                           	
  3303  062C                     l1153:	
  3304                           	line	311
  3305                           	
  3306  062C                     l3383:	
  3307                           ;carparking.c: 310: {
  3308                           ;carparking.c: 311: address(0X80+(4+i));
  3309  062C  1683               	bsf	status, 5	;RP0=1, select bank3
  3310  062D  1703               	bsf	status, 6	;RP1=1, select bank3
  3311  062E  0862               	movf	(main@i)^0180h,w
  3312  062F  3E84               	addlw	084h
  3313  0630  120A  158A  274F   	fcall	_address
              120A  118A         
  3314                           	line	312
  3315                           	
  3316  0635                     l3385:	
  3317                           ;carparking.c: 312: display(val[i]);
  3318  0635  1683               	bsf	status, 5	;RP0=1, select bank3
  3319  0636  1703               	bsf	status, 6	;RP1=1, select bank3
  3320  0637  0862               	movf	(main@i)^0180h,w
  3321  0638  00F3               	movwf	(??_main+0)+0
  3322  0639  0773               	addwf	(??_main+0)+0,w
  3323  063A  3EBE               	addlw	main@val&0ffh
  3324  063B  0084               	movwf	fsr0
  3325  063C  1383               	bcf	status, 7	;select IRP bank1
  3326  063D  0800               	movf	indf,w
  3327  063E  120A  158A  275C   	fcall	_display
              120A  118A         
  3328                           	line	309
  3329                           	
  3330  0643                     l3387:	
  3331  0643  3001               	movlw	low(01h)
  3332  0644  1683               	bsf	status, 5	;RP0=1, select bank3
  3333  0645  1703               	bsf	status, 6	;RP1=1, select bank3
  3334  0646  07E2               	addwf	(main@i)^0180h,f
  3335  0647  1803               	skipnc
  3336  0648  0AE3               	incf	(main@i+1)^0180h,f
  3337  0649  3000               	movlw	high(01h)
  3338  064A  07E3               	addwf	(main@i+1)^0180h,f
  3339                           	
  3340  064B                     l3389:	
  3341  064B  0863               	movf	(main@i+1)^0180h,w
  3342  064C  3A80               	xorlw	80h
  3343  064D  00FF               	movwf	btemp+1
  3344  064E  3080               	movlw	(high(08h))^80h
  3345  064F  027F               	subwf	btemp+1,w
  3346  0650  1D03               	skipz
  3347  0651  2E54               	goto	u3785
  3348  0652  3008               	movlw	low(08h)
  3349  0653  0262               	subwf	(main@i)^0180h,w
  3350  0654                     u3785:
  3351                           
  3352  0654  1C03               	skipc
  3353  0655  2E57               	goto	u3781
  3354  0656  2E58               	goto	u3780
  3355  0657                     u3781:
  3356  0657  2E2C               	goto	l3383
  3357  0658                     u3780:
  3358  0658  2E59               	goto	l3391
  3359                           	
  3360  0659                     l1154:	
  3361                           	line	314
  3362                           	
  3363  0659                     l3391:	
  3364                           ;carparking.c: 313: }
  3365                           ;carparking.c: 314: for(i=0;i<4;i++)
  3366  0659  1683               	bsf	status, 5	;RP0=1, select bank3
  3367  065A  1703               	bsf	status, 6	;RP1=1, select bank3
  3368  065B  01E2               	clrf	(main@i)^0180h
  3369  065C  01E3               	clrf	(main@i+1)^0180h
  3370                           	
  3371  065D                     l3393:	
  3372  065D  0863               	movf	(main@i+1)^0180h,w
  3373  065E  3A80               	xorlw	80h
  3374  065F  00FF               	movwf	btemp+1
  3375  0660  3080               	movlw	(high(04h))^80h
  3376  0661  027F               	subwf	btemp+1,w
  3377  0662  1D03               	skipz
  3378  0663  2E66               	goto	u3795
  3379  0664  3004               	movlw	low(04h)
  3380  0665  0262               	subwf	(main@i)^0180h,w
  3381  0666                     u3795:
  3382                           
  3383  0666  1C03               	skipc
  3384  0667  2E69               	goto	u3791
  3385  0668  2E6A               	goto	u3790
  3386  0669                     u3791:
  3387  0669  2E6C               	goto	l3397
  3388  066A                     u3790:
  3389  066A  2E97               	goto	l3405
  3390                           	
  3391  066B                     l3395:	
  3392  066B  2E97               	goto	l3405
  3393                           	line	315
  3394                           	
  3395  066C                     l1155:	
  3396                           	line	316
  3397                           	
  3398  066C                     l3397:	
  3399                           ;carparking.c: 315: {
  3400                           ;carparking.c: 316: address(0XC0+i);
  3401  066C  1683               	bsf	status, 5	;RP0=1, select bank3
  3402  066D  1703               	bsf	status, 6	;RP1=1, select bank3
  3403  066E  0862               	movf	(main@i)^0180h,w
  3404  066F  3EC0               	addlw	0C0h
  3405  0670  120A  158A  274F   	fcall	_address
              120A  118A         
  3406                           	line	317
  3407                           	
  3408  0675                     l3399:	
  3409                           ;carparking.c: 317: display(nearer[i]);
  3410  0675  1683               	bsf	status, 5	;RP0=1, select bank3
  3411  0676  1703               	bsf	status, 6	;RP1=1, select bank3
  3412  0677  0862               	movf	(main@i)^0180h,w
  3413  0678  3E61               	addlw	main@nearer&0ffh
  3414  0679  0084               	movwf	fsr0
  3415  067A  1383               	bcf	status, 7	;select IRP bank0
  3416  067B  0800               	movf	indf,w
  3417  067C  120A  158A  275C   	fcall	_display
              120A  118A         
  3418                           	line	314
  3419                           	
  3420  0681                     l3401:	
  3421  0681  3001               	movlw	low(01h)
  3422  0682  1683               	bsf	status, 5	;RP0=1, select bank3
  3423  0683  1703               	bsf	status, 6	;RP1=1, select bank3
  3424  0684  07E2               	addwf	(main@i)^0180h,f
  3425  0685  1803               	skipnc
  3426  0686  0AE3               	incf	(main@i+1)^0180h,f
  3427  0687  3000               	movlw	high(01h)
  3428  0688  07E3               	addwf	(main@i+1)^0180h,f
  3429                           	
  3430  0689                     l3403:	
  3431  0689  0863               	movf	(main@i+1)^0180h,w
  3432  068A  3A80               	xorlw	80h
  3433  068B  00FF               	movwf	btemp+1
  3434  068C  3080               	movlw	(high(04h))^80h
  3435  068D  027F               	subwf	btemp+1,w
  3436  068E  1D03               	skipz
  3437  068F  2E92               	goto	u3805
  3438  0690  3004               	movlw	low(04h)
  3439  0691  0262               	subwf	(main@i)^0180h,w
  3440  0692                     u3805:
  3441                           
  3442  0692  1C03               	skipc
  3443  0693  2E95               	goto	u3801
  3444  0694  2E96               	goto	u3800
  3445  0695                     u3801:
  3446  0695  2E6C               	goto	l3397
  3447  0696                     u3800:
  3448  0696  2E97               	goto	l3405
  3449                           	
  3450  0697                     l1156:	
  3451                           	line	319
  3452                           	
  3453  0697                     l3405:	
  3454                           ;carparking.c: 318: }
  3455                           ;carparking.c: 319: address(0XC0+5);
  3456  0697  30C5               	movlw	(0C5h)
  3457  0698  120A  158A  274F   	fcall	_address
              120A  118A         
  3458                           	line	320
  3459                           ;carparking.c: 320: display(val[0]);
  3460  069D  1683               	bsf	status, 5	;RP0=1, select bank1
  3461  069E  1303               	bcf	status, 6	;RP1=0, select bank1
  3462  069F  083E               	movf	(main@val)^080h,w
  3463  06A0  120A  158A  275C   	fcall	_display
              120A  118A         
  3464                           	line	321
  3465                           	
  3466  06A5                     l3407:	
  3467                           ;carparking.c: 321: temp=6;
  3468  06A5  3006               	movlw	low(06h)
  3469  06A6  1283               	bcf	status, 5	;RP0=0, select bank0
  3470  06A7  1303               	bcf	status, 6	;RP1=0, select bank0
  3471  06A8  00EB               	movwf	(main@temp)
  3472  06A9  3000               	movlw	high(06h)
  3473  06AA  00EC               	movwf	((main@temp))+1
  3474                           	line	322
  3475                           	
  3476  06AB                     l3409:	
  3477                           ;carparking.c: 322: e=0;
  3478  06AB  1683               	bsf	status, 5	;RP0=1, select bank3
  3479  06AC  1703               	bsf	status, 6	;RP1=1, select bank3
  3480  06AD  01DC               	clrf	(main@e)^0180h
  3481  06AE  01DD               	clrf	(main@e+1)^0180h
  3482                           	line	323
  3483                           	
  3484  06AF                     l3411:	
  3485                           ;carparking.c: 323: count=0;
  3486  06AF  1683               	bsf	status, 5	;RP0=1, select bank1
  3487  06B0  1303               	bcf	status, 6	;RP1=0, select bank1
  3488  06B1  01ED               	clrf	(main@count)^080h
  3489  06B2  01EE               	clrf	(main@count+1)^080h
  3490                           	line	324
  3491                           	
  3492  06B3                     l3413:	
  3493                           ;carparking.c: 324: if(temp==6)
  3494  06B3  3006               	movlw	06h
  3495  06B4  1283               	bcf	status, 5	;RP0=0, select bank0
  3496  06B5  1303               	bcf	status, 6	;RP1=0, select bank0
  3497  06B6  066B               	xorwf	(main@temp),w
  3498  06B7  046C               	iorwf	(main@temp+1),w
  3499  06B8  1D03               	skipz
  3500  06B9  2EBB               	goto	u3811
  3501  06BA  2EBC               	goto	u3810
  3502  06BB                     u3811:
  3503  06BB  2EE3               	goto	l3425
  3504  06BC                     u3810:
  3505  06BC  2EC7               	goto	l3419
  3506                           	line	326
  3507                           	
  3508  06BD                     l3415:	
  3509                           ;carparking.c: 325: {
  3510                           ;carparking.c: 326: while(count<30000)
  3511  06BD  2EC7               	goto	l3419
  3512                           	
  3513  06BE                     l1159:	
  3514                           	line	328
  3515                           	
  3516  06BE                     l3417:	
  3517                           ;carparking.c: 327: {
  3518                           ;carparking.c: 328: count++;
  3519  06BE  3001               	movlw	low(01h)
  3520  06BF  1683               	bsf	status, 5	;RP0=1, select bank1
  3521  06C0  1303               	bcf	status, 6	;RP1=0, select bank1
  3522  06C1  07ED               	addwf	(main@count)^080h,f
  3523  06C2  1803               	skipnc
  3524  06C3  0AEE               	incf	(main@count+1)^080h,f
  3525  06C4  3000               	movlw	high(01h)
  3526  06C5  07EE               	addwf	(main@count+1)^080h,f
  3527  06C6  2EC7               	goto	l3419
  3528                           	line	329
  3529                           	
  3530  06C7                     l1158:	
  3531                           	line	326
  3532                           	
  3533  06C7                     l3419:	
  3534  06C7  1683               	bsf	status, 5	;RP0=1, select bank1
  3535  06C8  1303               	bcf	status, 6	;RP1=0, select bank1
  3536  06C9  086E               	movf	(main@count+1)^080h,w
  3537  06CA  3A80               	xorlw	80h
  3538  06CB  00FF               	movwf	btemp+1
  3539  06CC  30F5               	movlw	(high(07530h))^80h
  3540  06CD  027F               	subwf	btemp+1,w
  3541  06CE  1D03               	skipz
  3542  06CF  2ED2               	goto	u3825
  3543  06D0  3030               	movlw	low(07530h)
  3544  06D1  026D               	subwf	(main@count)^080h,w
  3545  06D2                     u3825:
  3546                           
  3547  06D2  1C03               	skipc
  3548  06D3  2ED5               	goto	u3821
  3549  06D4  2ED6               	goto	u3820
  3550  06D5                     u3821:
  3551  06D5  2EBE               	goto	l3417
  3552  06D6                     u3820:
  3553  06D6  2ED7               	goto	l3421
  3554                           	
  3555  06D7                     l1160:	
  3556                           	line	330
  3557                           	
  3558  06D7                     l3421:	
  3559                           ;carparking.c: 329: }
  3560                           ;carparking.c: 330: count=0;
  3561  06D7  1683               	bsf	status, 5	;RP0=1, select bank1
  3562  06D8  1303               	bcf	status, 6	;RP1=0, select bank1
  3563  06D9  01ED               	clrf	(main@count)^080h
  3564  06DA  01EE               	clrf	(main@count+1)^080h
  3565                           	line	331
  3566                           	
  3567  06DB                     l3423:	
  3568                           ;carparking.c: 331: control=5;
  3569  06DB  3005               	movlw	low(05h)
  3570  06DC  1683               	bsf	status, 5	;RP0=1, select bank3
  3571  06DD  1703               	bsf	status, 6	;RP1=1, select bank3
  3572  06DE  00DE               	movwf	(main@control)^0180h
  3573  06DF  3000               	movlw	high(05h)
  3574  06E0  00DF               	movwf	((main@control)^0180h)+1
  3575  06E1  2EE3               	goto	l3425
  3576                           	line	332
  3577                           	
  3578  06E2                     l1157:	
  3579  06E2  2EE3               	goto	l3425
  3580                           	line	333
  3581                           	
  3582  06E3                     l1150:	
  3583                           	line	334
  3584                           	
  3585  06E3                     l3425:	
  3586                           ;carparking.c: 332: }
  3587                           ;carparking.c: 333: }
  3588                           ;carparking.c: 334: if(control==5)
  3589  06E3  3005               	movlw	05h
  3590  06E4  1683               	bsf	status, 5	;RP0=1, select bank3
  3591  06E5  1703               	bsf	status, 6	;RP1=1, select bank3
  3592  06E6  065E               	xorwf	(main@control)^0180h,w
  3593  06E7  045F               	iorwf	(main@control+1)^0180h,w
  3594  06E8  1D03               	skipz
  3595  06E9  2EEB               	goto	u3831
  3596  06EA  2EEC               	goto	u3830
  3597  06EB                     u3831:
  3598  06EB  28F9               	goto	l3017
  3599  06EC                     u3830:
  3600                           	line	336
  3601                           	
  3602  06EC                     l3427:	
  3603                           ;carparking.c: 335: {
  3604                           ;carparking.c: 336: RD3=1;RD4=0;RD5=0;RD6=0;
  3605  06EC  1283               	bcf	status, 5	;RP0=0, select bank0
  3606  06ED  1303               	bcf	status, 6	;RP1=0, select bank0
  3607  06EE  1588               	bsf	(67/8),(67)&7
  3608  06EF  1208               	bcf	(68/8),(68)&7
  3609  06F0  1288               	bcf	(69/8),(69)&7
  3610  06F1  1308               	bcf	(70/8),(70)&7
  3611                           	line	337
  3612                           ;carparking.c: 337: if(RD0==1)
  3613  06F2  1C08               	btfss	(64/8),(64)&7
  3614  06F3  2EF5               	goto	u3841
  3615  06F4  2EF6               	goto	u3840
  3616  06F5                     u3841:
  3617  06F5  2F07               	goto	l3437
  3618  06F6                     u3840:
  3619                           	line	339
  3620                           	
  3621  06F6                     l3429:	
  3622                           ;carparking.c: 338: {
  3623                           ;carparking.c: 339: clear();
  3624  06F6  120A  158A  2743   	fcall	_clear
              120A  118A         
  3625                           	line	340
  3626                           	
  3627  06FB                     l3431:	
  3628                           ;carparking.c: 340: j=0;
  3629  06FB  1683               	bsf	status, 5	;RP0=1, select bank3
  3630  06FC  1703               	bsf	status, 6	;RP1=1, select bank3
  3631  06FD  01E4               	clrf	(main@j)^0180h
  3632  06FE  01E5               	clrf	(main@j+1)^0180h
  3633                           	line	341
  3634                           	
  3635  06FF                     l3433:	
  3636                           ;carparking.c: 341: control=1;
  3637  06FF  3001               	movlw	low(01h)
  3638  0700  00DE               	movwf	(main@control)^0180h
  3639  0701  3000               	movlw	high(01h)
  3640  0702  00DF               	movwf	((main@control)^0180h)+1
  3641                           	line	342
  3642                           	
  3643  0703                     l3435:	
  3644                           ;carparking.c: 342: RE0=1;
  3645  0703  1283               	bcf	status, 5	;RP0=0, select bank0
  3646  0704  1303               	bcf	status, 6	;RP1=0, select bank0
  3647  0705  1409               	bsf	(72/8),(72)&7
  3648  0706  2F07               	goto	l3437
  3649                           	line	343
  3650                           	
  3651  0707                     l1162:	
  3652                           	line	344
  3653                           	
  3654  0707                     l3437:	
  3655                           ;carparking.c: 343: }
  3656                           ;carparking.c: 344: if(RD1==1)
  3657  0707  1C88               	btfss	(65/8),(65)&7
  3658  0708  2F0A               	goto	u3851
  3659  0709  2F0B               	goto	u3850
  3660  070A                     u3851:
  3661  070A  2F1C               	goto	l3447
  3662  070B                     u3850:
  3663                           	line	346
  3664                           	
  3665  070B                     l3439:	
  3666                           ;carparking.c: 345: {
  3667                           ;carparking.c: 346: clear();
  3668  070B  120A  158A  2743   	fcall	_clear
              120A  118A         
  3669                           	line	347
  3670                           	
  3671  0710                     l3441:	
  3672                           ;carparking.c: 347: j=0;
  3673  0710  1683               	bsf	status, 5	;RP0=1, select bank3
  3674  0711  1703               	bsf	status, 6	;RP1=1, select bank3
  3675  0712  01E4               	clrf	(main@j)^0180h
  3676  0713  01E5               	clrf	(main@j+1)^0180h
  3677                           	line	348
  3678                           	
  3679  0714                     l3443:	
  3680                           ;carparking.c: 348: control=1;
  3681  0714  3001               	movlw	low(01h)
  3682  0715  00DE               	movwf	(main@control)^0180h
  3683  0716  3000               	movlw	high(01h)
  3684  0717  00DF               	movwf	((main@control)^0180h)+1
  3685                           	line	349
  3686                           	
  3687  0718                     l3445:	
  3688                           ;carparking.c: 349: RE0=1;
  3689  0718  1283               	bcf	status, 5	;RP0=0, select bank0
  3690  0719  1303               	bcf	status, 6	;RP1=0, select bank0
  3691  071A  1409               	bsf	(72/8),(72)&7
  3692  071B  2F1C               	goto	l3447
  3693                           	line	350
  3694                           	
  3695  071C                     l1163:	
  3696                           	line	351
  3697                           	
  3698  071C                     l3447:	
  3699                           ;carparking.c: 350: }
  3700                           ;carparking.c: 351: if(RD2==1)
  3701  071C  1D08               	btfss	(66/8),(66)&7
  3702  071D  2F1F               	goto	u3861
  3703  071E  2F20               	goto	u3860
  3704  071F                     u3861:
  3705  071F  2F31               	goto	l3457
  3706  0720                     u3860:
  3707                           	line	353
  3708                           	
  3709  0720                     l3449:	
  3710                           ;carparking.c: 352: {
  3711                           ;carparking.c: 353: clear();
  3712  0720  120A  158A  2743   	fcall	_clear
              120A  118A         
  3713                           	line	354
  3714                           	
  3715  0725                     l3451:	
  3716                           ;carparking.c: 354: j=0;
  3717  0725  1683               	bsf	status, 5	;RP0=1, select bank3
  3718  0726  1703               	bsf	status, 6	;RP1=1, select bank3
  3719  0727  01E4               	clrf	(main@j)^0180h
  3720  0728  01E5               	clrf	(main@j+1)^0180h
  3721                           	line	355
  3722                           	
  3723  0729                     l3453:	
  3724                           ;carparking.c: 355: control=1;
  3725  0729  3001               	movlw	low(01h)
  3726  072A  00DE               	movwf	(main@control)^0180h
  3727  072B  3000               	movlw	high(01h)
  3728  072C  00DF               	movwf	((main@control)^0180h)+1
  3729                           	line	356
  3730                           	
  3731  072D                     l3455:	
  3732                           ;carparking.c: 356: RE0=1;
  3733  072D  1283               	bcf	status, 5	;RP0=0, select bank0
  3734  072E  1303               	bcf	status, 6	;RP1=0, select bank0
  3735  072F  1409               	bsf	(72/8),(72)&7
  3736  0730  2F31               	goto	l3457
  3737                           	line	357
  3738                           	
  3739  0731                     l1164:	
  3740                           	line	358
  3741                           	
  3742  0731                     l3457:	
  3743                           ;carparking.c: 357: }
  3744                           ;carparking.c: 358: RD3=0;RD4=1;RD5=0;RD6=0;
  3745  0731  1188               	bcf	(67/8),(67)&7
  3746                           	
  3747  0732                     l3459:	
  3748  0732  1608               	bsf	(68/8),(68)&7
  3749                           	
  3750  0733                     l3461:	
  3751  0733  1288               	bcf	(69/8),(69)&7
  3752                           	
  3753  0734                     l3463:	
  3754  0734  1308               	bcf	(70/8),(70)&7
  3755                           	line	359
  3756                           	
  3757  0735                     l3465:	
  3758                           ;carparking.c: 359: if(RD0==1)
  3759  0735  1C08               	btfss	(64/8),(64)&7
  3760  0736  2F38               	goto	u3871
  3761  0737  2F39               	goto	u3870
  3762  0738                     u3871:
  3763  0738  2F4A               	goto	l3475
  3764  0739                     u3870:
  3765                           	line	361
  3766                           	
  3767  0739                     l3467:	
  3768                           ;carparking.c: 360: {
  3769                           ;carparking.c: 361: clear();
  3770  0739  120A  158A  2743   	fcall	_clear
              120A  118A         
  3771                           	line	362
  3772                           	
  3773  073E                     l3469:	
  3774                           ;carparking.c: 362: j=0;
  3775  073E  1683               	bsf	status, 5	;RP0=1, select bank3
  3776  073F  1703               	bsf	status, 6	;RP1=1, select bank3
  3777  0740  01E4               	clrf	(main@j)^0180h
  3778  0741  01E5               	clrf	(main@j+1)^0180h
  3779                           	line	363
  3780                           	
  3781  0742                     l3471:	
  3782                           ;carparking.c: 363: control=1;
  3783  0742  3001               	movlw	low(01h)
  3784  0743  00DE               	movwf	(main@control)^0180h
  3785  0744  3000               	movlw	high(01h)
  3786  0745  00DF               	movwf	((main@control)^0180h)+1
  3787                           	line	364
  3788                           	
  3789  0746                     l3473:	
  3790                           ;carparking.c: 364: RE0=1;
  3791  0746  1283               	bcf	status, 5	;RP0=0, select bank0
  3792  0747  1303               	bcf	status, 6	;RP1=0, select bank0
  3793  0748  1409               	bsf	(72/8),(72)&7
  3794  0749  2F4A               	goto	l3475
  3795                           	line	365
  3796                           	
  3797  074A                     l1165:	
  3798                           	line	366
  3799                           	
  3800  074A                     l3475:	
  3801                           ;carparking.c: 365: }
  3802                           ;carparking.c: 366: if(RD1==1)
  3803  074A  1C88               	btfss	(65/8),(65)&7
  3804  074B  2F4D               	goto	u3881
  3805  074C  2F4E               	goto	u3880
  3806  074D                     u3881:
  3807  074D  2F5F               	goto	l3485
  3808  074E                     u3880:
  3809                           	line	368
  3810                           	
  3811  074E                     l3477:	
  3812                           ;carparking.c: 367: {
  3813                           ;carparking.c: 368: clear();
  3814  074E  120A  158A  2743   	fcall	_clear
              120A  118A         
  3815                           	line	369
  3816                           	
  3817  0753                     l3479:	
  3818                           ;carparking.c: 369: j=0;
  3819  0753  1683               	bsf	status, 5	;RP0=1, select bank3
  3820  0754  1703               	bsf	status, 6	;RP1=1, select bank3
  3821  0755  01E4               	clrf	(main@j)^0180h
  3822  0756  01E5               	clrf	(main@j+1)^0180h
  3823                           	line	370
  3824                           	
  3825  0757                     l3481:	
  3826                           ;carparking.c: 370: control=1;
  3827  0757  3001               	movlw	low(01h)
  3828  0758  00DE               	movwf	(main@control)^0180h
  3829  0759  3000               	movlw	high(01h)
  3830  075A  00DF               	movwf	((main@control)^0180h)+1
  3831                           	line	371
  3832                           	
  3833  075B                     l3483:	
  3834                           ;carparking.c: 371: RE0=1;
  3835  075B  1283               	bcf	status, 5	;RP0=0, select bank0
  3836  075C  1303               	bcf	status, 6	;RP1=0, select bank0
  3837  075D  1409               	bsf	(72/8),(72)&7
  3838  075E  2F5F               	goto	l3485
  3839                           	line	372
  3840                           	
  3841  075F                     l1166:	
  3842                           	line	373
  3843                           	
  3844  075F                     l3485:	
  3845                           ;carparking.c: 372: }
  3846                           ;carparking.c: 373: if(RD2==1)
  3847  075F  1D08               	btfss	(66/8),(66)&7
  3848  0760  2F62               	goto	u3891
  3849  0761  2F63               	goto	u3890
  3850  0762                     u3891:
  3851  0762  2F74               	goto	l3495
  3852  0763                     u3890:
  3853                           	line	375
  3854                           	
  3855  0763                     l3487:	
  3856                           ;carparking.c: 374: {
  3857                           ;carparking.c: 375: clear();
  3858  0763  120A  158A  2743   	fcall	_clear
              120A  118A         
  3859                           	line	376
  3860                           	
  3861  0768                     l3489:	
  3862                           ;carparking.c: 376: j=0;
  3863  0768  1683               	bsf	status, 5	;RP0=1, select bank3
  3864  0769  1703               	bsf	status, 6	;RP1=1, select bank3
  3865  076A  01E4               	clrf	(main@j)^0180h
  3866  076B  01E5               	clrf	(main@j+1)^0180h
  3867                           	line	377
  3868                           	
  3869  076C                     l3491:	
  3870                           ;carparking.c: 377: control=1;
  3871  076C  3001               	movlw	low(01h)
  3872  076D  00DE               	movwf	(main@control)^0180h
  3873  076E  3000               	movlw	high(01h)
  3874  076F  00DF               	movwf	((main@control)^0180h)+1
  3875                           	line	378
  3876                           	
  3877  0770                     l3493:	
  3878                           ;carparking.c: 378: RE0=1;
  3879  0770  1283               	bcf	status, 5	;RP0=0, select bank0
  3880  0771  1303               	bcf	status, 6	;RP1=0, select bank0
  3881  0772  1409               	bsf	(72/8),(72)&7
  3882  0773  2F74               	goto	l3495
  3883                           	line	379
  3884                           	
  3885  0774                     l1167:	
  3886                           	line	380
  3887                           	
  3888  0774                     l3495:	
  3889                           ;carparking.c: 379: }
  3890                           ;carparking.c: 380: RD3=0;RD4=0;RD5=1;RD6=0;
  3891  0774  1188               	bcf	(67/8),(67)&7
  3892                           	
  3893  0775                     l3497:	
  3894  0775  1208               	bcf	(68/8),(68)&7
  3895                           	
  3896  0776                     l3499:	
  3897  0776  1688               	bsf	(69/8),(69)&7
  3898                           	
  3899  0777                     l3501:	
  3900  0777  1308               	bcf	(70/8),(70)&7
  3901                           	line	381
  3902                           	
  3903  0778                     l3503:	
  3904                           ;carparking.c: 381: if(RD0==1)
  3905  0778  1C08               	btfss	(64/8),(64)&7
  3906  0779  2F7B               	goto	u3901
  3907  077A  2F7C               	goto	u3900
  3908  077B                     u3901:
  3909  077B  2F8D               	goto	l3513
  3910  077C                     u3900:
  3911                           	line	383
  3912                           	
  3913  077C                     l3505:	
  3914                           ;carparking.c: 382: {
  3915                           ;carparking.c: 383: clear();
  3916  077C  120A  158A  2743   	fcall	_clear
              120A  118A         
  3917                           	line	384
  3918                           	
  3919  0781                     l3507:	
  3920                           ;carparking.c: 384: j=0;
  3921  0781  1683               	bsf	status, 5	;RP0=1, select bank3
  3922  0782  1703               	bsf	status, 6	;RP1=1, select bank3
  3923  0783  01E4               	clrf	(main@j)^0180h
  3924  0784  01E5               	clrf	(main@j+1)^0180h
  3925                           	line	385
  3926                           	
  3927  0785                     l3509:	
  3928                           ;carparking.c: 385: control=1;
  3929  0785  3001               	movlw	low(01h)
  3930  0786  00DE               	movwf	(main@control)^0180h
  3931  0787  3000               	movlw	high(01h)
  3932  0788  00DF               	movwf	((main@control)^0180h)+1
  3933                           	line	386
  3934                           	
  3935  0789                     l3511:	
  3936                           ;carparking.c: 386: RE0=1;
  3937  0789  1283               	bcf	status, 5	;RP0=0, select bank0
  3938  078A  1303               	bcf	status, 6	;RP1=0, select bank0
  3939  078B  1409               	bsf	(72/8),(72)&7
  3940  078C  2F8D               	goto	l3513
  3941                           	line	387
  3942                           	
  3943  078D                     l1168:	
  3944                           	line	388
  3945                           	
  3946  078D                     l3513:	
  3947                           ;carparking.c: 387: }
  3948                           ;carparking.c: 388: if(RD1==1)
  3949  078D  1C88               	btfss	(65/8),(65)&7
  3950  078E  2F90               	goto	u3911
  3951  078F  2F91               	goto	u3910
  3952  0790                     u3911:
  3953  0790  2FA2               	goto	l3523
  3954  0791                     u3910:
  3955                           	line	390
  3956                           	
  3957  0791                     l3515:	
  3958                           ;carparking.c: 389: {
  3959                           ;carparking.c: 390: clear();
  3960  0791  120A  158A  2743   	fcall	_clear
              120A  118A         
  3961                           	line	391
  3962                           	
  3963  0796                     l3517:	
  3964                           ;carparking.c: 391: j=0;
  3965  0796  1683               	bsf	status, 5	;RP0=1, select bank3
  3966  0797  1703               	bsf	status, 6	;RP1=1, select bank3
  3967  0798  01E4               	clrf	(main@j)^0180h
  3968  0799  01E5               	clrf	(main@j+1)^0180h
  3969                           	line	392
  3970                           	
  3971  079A                     l3519:	
  3972                           ;carparking.c: 392: control=1;
  3973  079A  3001               	movlw	low(01h)
  3974  079B  00DE               	movwf	(main@control)^0180h
  3975  079C  3000               	movlw	high(01h)
  3976  079D  00DF               	movwf	((main@control)^0180h)+1
  3977                           	line	393
  3978                           	
  3979  079E                     l3521:	
  3980                           ;carparking.c: 393: RE0=1;
  3981  079E  1283               	bcf	status, 5	;RP0=0, select bank0
  3982  079F  1303               	bcf	status, 6	;RP1=0, select bank0
  3983  07A0  1409               	bsf	(72/8),(72)&7
  3984  07A1  2FA2               	goto	l3523
  3985                           	line	394
  3986                           	
  3987  07A2                     l1169:	
  3988                           	line	395
  3989                           	
  3990  07A2                     l3523:	
  3991                           ;carparking.c: 394: }
  3992                           ;carparking.c: 395: if(RD2==1)
  3993  07A2  1D08               	btfss	(66/8),(66)&7
  3994  07A3  2FA5               	goto	u3921
  3995  07A4  2FA6               	goto	u3920
  3996  07A5                     u3921:
  3997  07A5  2FB7               	goto	l3533
  3998  07A6                     u3920:
  3999                           	line	397
  4000                           	
  4001  07A6                     l3525:	
  4002                           ;carparking.c: 396: {
  4003                           ;carparking.c: 397: clear();
  4004  07A6  120A  158A  2743   	fcall	_clear
              120A  118A         
  4005                           	line	398
  4006                           	
  4007  07AB                     l3527:	
  4008                           ;carparking.c: 398: j=0;
  4009  07AB  1683               	bsf	status, 5	;RP0=1, select bank3
  4010  07AC  1703               	bsf	status, 6	;RP1=1, select bank3
  4011  07AD  01E4               	clrf	(main@j)^0180h
  4012  07AE  01E5               	clrf	(main@j+1)^0180h
  4013                           	line	399
  4014                           	
  4015  07AF                     l3529:	
  4016                           ;carparking.c: 399: control=1;
  4017  07AF  3001               	movlw	low(01h)
  4018  07B0  00DE               	movwf	(main@control)^0180h
  4019  07B1  3000               	movlw	high(01h)
  4020  07B2  00DF               	movwf	((main@control)^0180h)+1
  4021                           	line	400
  4022                           	
  4023  07B3                     l3531:	
  4024                           ;carparking.c: 400: RE0=1;
  4025  07B3  1283               	bcf	status, 5	;RP0=0, select bank0
  4026  07B4  1303               	bcf	status, 6	;RP1=0, select bank0
  4027  07B5  1409               	bsf	(72/8),(72)&7
  4028  07B6  2FB7               	goto	l3533
  4029                           	line	401
  4030                           	
  4031  07B7                     l1170:	
  4032                           	line	402
  4033                           	
  4034  07B7                     l3533:	
  4035                           ;carparking.c: 401: }
  4036                           ;carparking.c: 402: RD3=0;RD4=0;RD5=0;RD6=1;
  4037  07B7  1188               	bcf	(67/8),(67)&7
  4038                           	
  4039  07B8                     l3535:	
  4040  07B8  1208               	bcf	(68/8),(68)&7
  4041                           	
  4042  07B9                     l3537:	
  4043  07B9  1288               	bcf	(69/8),(69)&7
  4044                           	
  4045  07BA                     l3539:	
  4046  07BA  1708               	bsf	(70/8),(70)&7
  4047                           	line	403
  4048                           	
  4049  07BB                     l3541:	
  4050                           ;carparking.c: 403: if(RD0==1)
  4051  07BB  1C08               	btfss	(64/8),(64)&7
  4052  07BC  2FBE               	goto	u3931
  4053  07BD  2FBF               	goto	u3930
  4054  07BE                     u3931:
  4055  07BE  2FD0               	goto	l3551
  4056  07BF                     u3930:
  4057                           	line	405
  4058                           	
  4059  07BF                     l3543:	
  4060                           ;carparking.c: 404: {
  4061                           ;carparking.c: 405: clear();
  4062  07BF  120A  158A  2743   	fcall	_clear
              120A  118A         
  4063                           	line	406
  4064                           	
  4065  07C4                     l3545:	
  4066                           ;carparking.c: 406: j=0;
  4067  07C4  1683               	bsf	status, 5	;RP0=1, select bank3
  4068  07C5  1703               	bsf	status, 6	;RP1=1, select bank3
  4069  07C6  01E4               	clrf	(main@j)^0180h
  4070  07C7  01E5               	clrf	(main@j+1)^0180h
  4071                           	line	407
  4072                           	
  4073  07C8                     l3547:	
  4074                           ;carparking.c: 407: control=1;
  4075  07C8  3001               	movlw	low(01h)
  4076  07C9  00DE               	movwf	(main@control)^0180h
  4077  07CA  3000               	movlw	high(01h)
  4078  07CB  00DF               	movwf	((main@control)^0180h)+1
  4079                           	line	408
  4080                           	
  4081  07CC                     l3549:	
  4082                           ;carparking.c: 408: RE0=1;
  4083  07CC  1283               	bcf	status, 5	;RP0=0, select bank0
  4084  07CD  1303               	bcf	status, 6	;RP1=0, select bank0
  4085  07CE  1409               	bsf	(72/8),(72)&7
  4086  07CF  2FD0               	goto	l3551
  4087                           	line	409
  4088                           	
  4089  07D0                     l1171:	
  4090                           	line	410
  4091                           	
  4092  07D0                     l3551:	
  4093                           ;carparking.c: 409: }
  4094                           ;carparking.c: 410: if(RD1==1)
  4095  07D0  1C88               	btfss	(65/8),(65)&7
  4096  07D1  2FD3               	goto	u3941
  4097  07D2  2FD4               	goto	u3940
  4098  07D3                     u3941:
  4099  07D3  2FE5               	goto	l3561
  4100  07D4                     u3940:
  4101                           	line	412
  4102                           	
  4103  07D4                     l3553:	
  4104                           ;carparking.c: 411: {
  4105                           ;carparking.c: 412: clear();
  4106  07D4  120A  158A  2743   	fcall	_clear
              120A  118A         
  4107                           	line	413
  4108                           	
  4109  07D9                     l3555:	
  4110                           ;carparking.c: 413: j=0;
  4111  07D9  1683               	bsf	status, 5	;RP0=1, select bank3
  4112  07DA  1703               	bsf	status, 6	;RP1=1, select bank3
  4113  07DB  01E4               	clrf	(main@j)^0180h
  4114  07DC  01E5               	clrf	(main@j+1)^0180h
  4115                           	line	414
  4116                           	
  4117  07DD                     l3557:	
  4118                           ;carparking.c: 414: control=1;
  4119  07DD  3001               	movlw	low(01h)
  4120  07DE  00DE               	movwf	(main@control)^0180h
  4121  07DF  3000               	movlw	high(01h)
  4122  07E0  00DF               	movwf	((main@control)^0180h)+1
  4123                           	line	415
  4124                           	
  4125  07E1                     l3559:	
  4126                           ;carparking.c: 415: RE0=1;
  4127  07E1  1283               	bcf	status, 5	;RP0=0, select bank0
  4128  07E2  1303               	bcf	status, 6	;RP1=0, select bank0
  4129  07E3  1409               	bsf	(72/8),(72)&7
  4130  07E4  2FE5               	goto	l3561
  4131                           	line	416
  4132                           	
  4133  07E5                     l1172:	
  4134                           	line	417
  4135                           	
  4136  07E5                     l3561:	
  4137                           ;carparking.c: 416: }
  4138                           ;carparking.c: 417: if(RD2==1)
  4139  07E5  1D08               	btfss	(66/8),(66)&7
  4140  07E6  2FE8               	goto	u3951
  4141  07E7  2FE9               	goto	u3950
  4142  07E8                     u3951:
  4143  07E8  28F9               	goto	l3017
  4144  07E9                     u3950:
  4145                           	line	419
  4146                           	
  4147  07E9                     l3563:	
  4148                           ;carparking.c: 418: {
  4149                           ;carparking.c: 419: clear();
  4150  07E9  120A  158A  2743   	fcall	_clear
              120A  118A         
  4151                           	line	420
  4152                           	
  4153  07EE                     l3565:	
  4154                           ;carparking.c: 420: j=0;
  4155  07EE  1683               	bsf	status, 5	;RP0=1, select bank3
  4156  07EF  1703               	bsf	status, 6	;RP1=1, select bank3
  4157  07F0  01E4               	clrf	(main@j)^0180h
  4158  07F1  01E5               	clrf	(main@j+1)^0180h
  4159                           	line	421
  4160                           	
  4161  07F2                     l3567:	
  4162                           ;carparking.c: 421: control=1;
  4163  07F2  3001               	movlw	low(01h)
  4164  07F3  00DE               	movwf	(main@control)^0180h
  4165  07F4  3000               	movlw	high(01h)
  4166  07F5  00DF               	movwf	((main@control)^0180h)+1
  4167                           	line	422
  4168                           	
  4169  07F6                     l3569:	
  4170                           ;carparking.c: 422: RE0=1;
  4171  07F6  1283               	bcf	status, 5	;RP0=0, select bank0
  4172  07F7  1303               	bcf	status, 6	;RP1=0, select bank0
  4173  07F8  1409               	bsf	(72/8),(72)&7
  4174  07F9  28F9               	goto	l3017
  4175                           	line	423
  4176                           	
  4177  07FA                     l1173:	
  4178  07FA  28F9               	goto	l3017
  4179                           	line	424
  4180                           	
  4181  07FB                     l1161:	
  4182  07FB  28F9               	goto	l3017
  4183                           	line	425
  4184                           	
  4185  07FC                     l1174:	
  4186                           	line	86
  4187  07FC  28F9               	goto	l3017
  4188                           	
  4189  07FD                     l1175:	
  4190                           	line	426
  4191                           	
  4192  07FD                     l1176:	
  4193                           	global	start
  4194  07FD  120A  118A  2800   	ljmp	start
  4195                           	opt stack 0
  4196                           GLOBAL	__end_of_main
  4197  0800                     	__end_of_main:
  4198 ;; =============== function _main ends ============
  4199                           
  4200                           	signat	_main,88
  4201                           	global	_clear
  4202                           psect	text217,local,class=CODE,delta=2
  4203                           global __ptext217
  4204  0F43                     __ptext217:
  4205                           
  4206 ;; *************** function _clear *****************
  4207 ;; Defined at:
  4208 ;;		line 45 in file "E:\KTU\Softwares\MP lab\Carparking\carparking.c"
  4209 ;; Parameters:    Size  Location     Type
  4210 ;;		None
  4211 ;; Auto vars:     Size  Location     Type
  4212 ;;		None
  4213 ;; Return value:  Size  Location     Type
  4214 ;;		None               void
  4215 ;; Registers used:
  4216 ;;		wreg, status,2, status,0, pclath, cstack
  4217 ;; Tracked objects:
  4218 ;;		On entry : 0/0
  4219 ;;		On exit  : 0/0
  4220 ;;		Unchanged: 0/0
  4221 ;; Data sizes:     COMMON   BANK0   BANK1   BANK3   BANK2
  4222 ;;      Params:         0       0       0       0       0
  4223 ;;      Locals:         0       0       0       0       0
  4224 ;;      Temps:          0       0       0       0       0
  4225 ;;      Totals:         0       0       0       0       0
  4226 ;;Total ram usage:        0 bytes
  4227 ;; Hardware stack levels used:    1
  4228 ;; Hardware stack levels required when called:    2
  4229 ;; This function calls:
  4230 ;;		_pulse
  4231 ;; This function is called by:
  4232 ;;		_main
  4233 ;; This function uses a non-reentrant model
  4234 ;;
  4235                           psect	text217
  4236                           	file	"E:\KTU\Softwares\MP lab\Carparking\carparking.c"
  4237                           	line	45
  4238                           	global	__size_of_clear
  4239  000C                     	__size_of_clear	equ	__end_of_clear-_clear
  4240                           	
  4241  0F43                     _clear:	
  4242                           	opt	stack 5
  4243                           ; Regs used in _clear: [wreg+status,2+status,0+pclath+cstack]
  4244                           	line	46
  4245                           	
  4246  0F43                     l2975:	
  4247                           ;carparking.c: 46: RA0=0;
  4248  0F43  1283               	bcf	status, 5	;RP0=0, select bank0
  4249  0F44  1303               	bcf	status, 6	;RP1=0, select bank0
  4250  0F45  1005               	bcf	(40/8),(40)&7
  4251                           	line	47
  4252                           ;carparking.c: 47: RA1=0;
  4253  0F46  1085               	bcf	(41/8),(41)&7
  4254                           	line	48
  4255                           	
  4256  0F47                     l2977:	
  4257                           ;carparking.c: 48: PORTB=0X01;
  4258  0F47  3001               	movlw	(01h)
  4259  0F48  0086               	movwf	(6)	;volatile
  4260                           	line	49
  4261                           	
  4262  0F49                     l2979:	
  4263                           ;carparking.c: 49: pulse();
  4264  0F49  120A  118A  2003   	fcall	_pulse
              120A  158A         
  4265                           	line	50
  4266                           	
  4267  0F4E                     l1046:	
  4268  0F4E  0008               	return
  4269                           	opt stack 0
  4270                           GLOBAL	__end_of_clear
  4271  0F4F                     	__end_of_clear:
  4272 ;; =============== function _clear ends ============
  4273                           
  4274                           	signat	_clear,88
  4275                           	global	_display
  4276                           psect	text218,local,class=CODE,delta=2
  4277                           global __ptext218
  4278  0F5C                     __ptext218:
  4279                           
  4280 ;; *************** function _display *****************
  4281 ;; Defined at:
  4282 ;;		line 38 in file "E:\KTU\Softwares\MP lab\Carparking\carparking.c"
  4283 ;; Parameters:    Size  Location     Type
  4284 ;;  data            1    wreg     unsigned char 
  4285 ;; Auto vars:     Size  Location     Type
  4286 ;;  data            1    2[COMMON] unsigned char 
  4287 ;; Return value:  Size  Location     Type
  4288 ;;		None               void
  4289 ;; Registers used:
  4290 ;;		wreg, status,2, status,0, pclath, cstack
  4291 ;; Tracked objects:
  4292 ;;		On entry : 0/0
  4293 ;;		On exit  : 0/0
  4294 ;;		Unchanged: 0/0
  4295 ;; Data sizes:     COMMON   BANK0   BANK1   BANK3   BANK2
  4296 ;;      Params:         0       0       0       0       0
  4297 ;;      Locals:         1       0       0       0       0
  4298 ;;      Temps:          0       0       0       0       0
  4299 ;;      Totals:         1       0       0       0       0
  4300 ;;Total ram usage:        1 bytes
  4301 ;; Hardware stack levels used:    1
  4302 ;; Hardware stack levels required when called:    2
  4303 ;; This function calls:
  4304 ;;		_pulse
  4305 ;; This function is called by:
  4306 ;;		_main
  4307 ;; This function uses a non-reentrant model
  4308 ;;
  4309                           psect	text218
  4310                           	file	"E:\KTU\Softwares\MP lab\Carparking\carparking.c"
  4311                           	line	38
  4312                           	global	__size_of_display
  4313  000D                     	__size_of_display	equ	__end_of_display-_display
  4314                           	
  4315  0F5C                     _display:	
  4316                           	opt	stack 5
  4317                           ; Regs used in _display: [wreg+status,2+status,0+pclath+cstack]
  4318                           ;display@data stored from wreg
  4319  0F5C  00F2               	movwf	(display@data)
  4320                           	line	39
  4321                           	
  4322  0F5D                     l2969:	
  4323                           ;carparking.c: 39: RA0=1;
  4324  0F5D  1283               	bcf	status, 5	;RP0=0, select bank0
  4325  0F5E  1303               	bcf	status, 6	;RP1=0, select bank0
  4326  0F5F  1405               	bsf	(40/8),(40)&7
  4327                           	line	40
  4328                           ;carparking.c: 40: RA1=0;
  4329  0F60  1085               	bcf	(41/8),(41)&7
  4330                           	line	41
  4331                           	
  4332  0F61                     l2971:	
  4333                           ;carparking.c: 41: PORTB=data;
  4334  0F61  0872               	movf	(display@data),w
  4335  0F62  0086               	movwf	(6)	;volatile
  4336                           	line	42
  4337                           	
  4338  0F63                     l2973:	
  4339                           ;carparking.c: 42: pulse();
  4340  0F63  120A  118A  2003   	fcall	_pulse
              120A  158A         
  4341                           	line	43
  4342                           	
  4343  0F68                     l1043:	
  4344  0F68  0008               	return
  4345                           	opt stack 0
  4346                           GLOBAL	__end_of_display
  4347  0F69                     	__end_of_display:
  4348 ;; =============== function _display ends ============
  4349                           
  4350                           	signat	_display,4216
  4351                           	global	_address
  4352                           psect	text219,local,class=CODE,delta=2
  4353                           global __ptext219
  4354  0F4F                     __ptext219:
  4355                           
  4356 ;; *************** function _address *****************
  4357 ;; Defined at:
  4358 ;;		line 31 in file "E:\KTU\Softwares\MP lab\Carparking\carparking.c"
  4359 ;; Parameters:    Size  Location     Type
  4360 ;;  data            1    wreg     unsigned char 
  4361 ;; Auto vars:     Size  Location     Type
  4362 ;;  data            1    2[COMMON] unsigned char 
  4363 ;; Return value:  Size  Location     Type
  4364 ;;		None               void
  4365 ;; Registers used:
  4366 ;;		wreg, status,2, status,0, pclath, cstack
  4367 ;; Tracked objects:
  4368 ;;		On entry : 0/0
  4369 ;;		On exit  : 0/0
  4370 ;;		Unchanged: 0/0
  4371 ;; Data sizes:     COMMON   BANK0   BANK1   BANK3   BANK2
  4372 ;;      Params:         0       0       0       0       0
  4373 ;;      Locals:         1       0       0       0       0
  4374 ;;      Temps:          0       0       0       0       0
  4375 ;;      Totals:         1       0       0       0       0
  4376 ;;Total ram usage:        1 bytes
  4377 ;; Hardware stack levels used:    1
  4378 ;; Hardware stack levels required when called:    2
  4379 ;; This function calls:
  4380 ;;		_pulse
  4381 ;; This function is called by:
  4382 ;;		_main
  4383 ;; This function uses a non-reentrant model
  4384 ;;
  4385                           psect	text219
  4386                           	file	"E:\KTU\Softwares\MP lab\Carparking\carparking.c"
  4387                           	line	31
  4388                           	global	__size_of_address
  4389  000D                     	__size_of_address	equ	__end_of_address-_address
  4390                           	
  4391  0F4F                     _address:	
  4392                           	opt	stack 5
  4393                           ; Regs used in _address: [wreg+status,2+status,0+pclath+cstack]
  4394                           ;address@data stored from wreg
  4395  0F4F  00F2               	movwf	(address@data)
  4396                           	line	32
  4397                           	
  4398  0F50                     l2963:	
  4399                           ;carparking.c: 32: RA0=0;
  4400  0F50  1283               	bcf	status, 5	;RP0=0, select bank0
  4401  0F51  1303               	bcf	status, 6	;RP1=0, select bank0
  4402  0F52  1005               	bcf	(40/8),(40)&7
  4403                           	line	33
  4404                           ;carparking.c: 33: RA1=0;
  4405  0F53  1085               	bcf	(41/8),(41)&7
  4406                           	line	34
  4407                           	
  4408  0F54                     l2965:	
  4409                           ;carparking.c: 34: PORTB=data;
  4410  0F54  0872               	movf	(address@data),w
  4411  0F55  0086               	movwf	(6)	;volatile
  4412                           	line	35
  4413                           	
  4414  0F56                     l2967:	
  4415                           ;carparking.c: 35: pulse();
  4416  0F56  120A  118A  2003   	fcall	_pulse
              120A  158A         
  4417                           	line	36
  4418                           	
  4419  0F5B                     l1040:	
  4420  0F5B  0008               	return
  4421                           	opt stack 0
  4422                           GLOBAL	__end_of_address
  4423  0F5C                     	__end_of_address:
  4424 ;; =============== function _address ends ============
  4425                           
  4426                           	signat	_address,4216
  4427                           	global	_type
  4428                           psect	text220,local,class=CODE,delta=2
  4429                           global __ptext220
  4430  0F37                     __ptext220:
  4431                           
  4432 ;; *************** function _type *****************
  4433 ;; Defined at:
  4434 ;;		line 24 in file "E:\KTU\Softwares\MP lab\Carparking\carparking.c"
  4435 ;; Parameters:    Size  Location     Type
  4436 ;;		None
  4437 ;; Auto vars:     Size  Location     Type
  4438 ;;		None
  4439 ;; Return value:  Size  Location     Type
  4440 ;;		None               void
  4441 ;; Registers used:
  4442 ;;		wreg, status,2, status,0, pclath, cstack
  4443 ;; Tracked objects:
  4444 ;;		On entry : 0/0
  4445 ;;		On exit  : 0/0
  4446 ;;		Unchanged: 0/0
  4447 ;; Data sizes:     COMMON   BANK0   BANK1   BANK3   BANK2
  4448 ;;      Params:         0       0       0       0       0
  4449 ;;      Locals:         0       0       0       0       0
  4450 ;;      Temps:          0       0       0       0       0
  4451 ;;      Totals:         0       0       0       0       0
  4452 ;;Total ram usage:        0 bytes
  4453 ;; Hardware stack levels used:    1
  4454 ;; Hardware stack levels required when called:    2
  4455 ;; This function calls:
  4456 ;;		_pulse
  4457 ;; This function is called by:
  4458 ;;		_main
  4459 ;; This function uses a non-reentrant model
  4460 ;;
  4461                           psect	text220
  4462                           	file	"E:\KTU\Softwares\MP lab\Carparking\carparking.c"
  4463                           	line	24
  4464                           	global	__size_of_type
  4465  000C                     	__size_of_type	equ	__end_of_type-_type
  4466                           	
  4467  0F37                     _type:	
  4468                           	opt	stack 5
  4469                           ; Regs used in _type: [wreg+status,2+status,0+pclath+cstack]
  4470                           	line	25
  4471                           	
  4472  0F37                     l2957:	
  4473                           ;carparking.c: 25: RA0=0;
  4474  0F37  1283               	bcf	status, 5	;RP0=0, select bank0
  4475  0F38  1303               	bcf	status, 6	;RP1=0, select bank0
  4476  0F39  1005               	bcf	(40/8),(40)&7
  4477                           	line	26
  4478                           ;carparking.c: 26: RA1=0;
  4479  0F3A  1085               	bcf	(41/8),(41)&7
  4480                           	line	27
  4481                           	
  4482  0F3B                     l2959:	
  4483                           ;carparking.c: 27: PORTB=0X38;
  4484  0F3B  3038               	movlw	(038h)
  4485  0F3C  0086               	movwf	(6)	;volatile
  4486                           	line	28
  4487                           	
  4488  0F3D                     l2961:	
  4489                           ;carparking.c: 28: pulse();
  4490  0F3D  120A  118A  2003   	fcall	_pulse
              120A  158A         
  4491                           	line	29
  4492                           	
  4493  0F42                     l1037:	
  4494  0F42  0008               	return
  4495                           	opt stack 0
  4496                           GLOBAL	__end_of_type
  4497  0F43                     	__end_of_type:
  4498 ;; =============== function _type ends ============
  4499                           
  4500                           	signat	_type,88
  4501                           	global	_on
  4502                           psect	text221,local,class=CODE,delta=2
  4503                           global __ptext221
  4504  0F2B                     __ptext221:
  4505                           
  4506 ;; *************** function _on *****************
  4507 ;; Defined at:
  4508 ;;		line 17 in file "E:\KTU\Softwares\MP lab\Carparking\carparking.c"
  4509 ;; Parameters:    Size  Location     Type
  4510 ;;		None
  4511 ;; Auto vars:     Size  Location     Type
  4512 ;;		None
  4513 ;; Return value:  Size  Location     Type
  4514 ;;		None               void
  4515 ;; Registers used:
  4516 ;;		wreg, status,2, status,0, pclath, cstack
  4517 ;; Tracked objects:
  4518 ;;		On entry : 0/0
  4519 ;;		On exit  : 0/0
  4520 ;;		Unchanged: 0/0
  4521 ;; Data sizes:     COMMON   BANK0   BANK1   BANK3   BANK2
  4522 ;;      Params:         0       0       0       0       0
  4523 ;;      Locals:         0       0       0       0       0
  4524 ;;      Temps:          0       0       0       0       0
  4525 ;;      Totals:         0       0       0       0       0
  4526 ;;Total ram usage:        0 bytes
  4527 ;; Hardware stack levels used:    1
  4528 ;; Hardware stack levels required when called:    2
  4529 ;; This function calls:
  4530 ;;		_pulse
  4531 ;; This function is called by:
  4532 ;;		_main
  4533 ;; This function uses a non-reentrant model
  4534 ;;
  4535                           psect	text221
  4536                           	file	"E:\KTU\Softwares\MP lab\Carparking\carparking.c"
  4537                           	line	17
  4538                           	global	__size_of_on
  4539  000C                     	__size_of_on	equ	__end_of_on-_on
  4540                           	
  4541  0F2B                     _on:	
  4542                           	opt	stack 5
  4543                           ; Regs used in _on: [wreg+status,2+status,0+pclath+cstack]
  4544                           	line	18
  4545                           	
  4546  0F2B                     l2951:	
  4547                           ;carparking.c: 18: RA0=0;
  4548  0F2B  1283               	bcf	status, 5	;RP0=0, select bank0
  4549  0F2C  1303               	bcf	status, 6	;RP1=0, select bank0
  4550  0F2D  1005               	bcf	(40/8),(40)&7
  4551                           	line	19
  4552                           ;carparking.c: 19: RA1=0;
  4553  0F2E  1085               	bcf	(41/8),(41)&7
  4554                           	line	20
  4555                           	
  4556  0F2F                     l2953:	
  4557                           ;carparking.c: 20: PORTB=0X0E;
  4558  0F2F  300E               	movlw	(0Eh)
  4559  0F30  0086               	movwf	(6)	;volatile
  4560                           	line	21
  4561                           	
  4562  0F31                     l2955:	
  4563                           ;carparking.c: 21: pulse();
  4564  0F31  120A  118A  2003   	fcall	_pulse
              120A  158A         
  4565                           	line	22
  4566                           	
  4567  0F36                     l1034:	
  4568  0F36  0008               	return
  4569                           	opt stack 0
  4570                           GLOBAL	__end_of_on
  4571  0F37                     	__end_of_on:
  4572 ;; =============== function _on ends ============
  4573                           
  4574                           	signat	_on,88
  4575                           	global	_pulse
  4576                           psect	text222,local,class=CODE,delta=2
  4577                           global __ptext222
  4578  0003                     __ptext222:
  4579                           
  4580 ;; *************** function _pulse *****************
  4581 ;; Defined at:
  4582 ;;		line 10 in file "E:\KTU\Softwares\MP lab\Carparking\carparking.c"
  4583 ;; Parameters:    Size  Location     Type
  4584 ;;		None
  4585 ;; Auto vars:     Size  Location     Type
  4586 ;;		None
  4587 ;; Return value:  Size  Location     Type
  4588 ;;		None               void
  4589 ;; Registers used:
  4590 ;;		wreg, status,2, status,0, pclath, cstack
  4591 ;; Tracked objects:
  4592 ;;		On entry : 0/0
  4593 ;;		On exit  : 0/0
  4594 ;;		Unchanged: 0/0
  4595 ;; Data sizes:     COMMON   BANK0   BANK1   BANK3   BANK2
  4596 ;;      Params:         0       0       0       0       0
  4597 ;;      Locals:         0       0       0       0       0
  4598 ;;      Temps:          0       0       0       0       0
  4599 ;;      Totals:         0       0       0       0       0
  4600 ;;Total ram usage:        0 bytes
  4601 ;; Hardware stack levels used:    1
  4602 ;; Hardware stack levels required when called:    1
  4603 ;; This function calls:
  4604 ;;		_delay
  4605 ;; This function is called by:
  4606 ;;		_on
  4607 ;;		_type
  4608 ;;		_address
  4609 ;;		_display
  4610 ;;		_clear
  4611 ;; This function uses a non-reentrant model
  4612 ;;
  4613                           psect	text222
  4614                           	file	"E:\KTU\Softwares\MP lab\Carparking\carparking.c"
  4615                           	line	10
  4616                           	global	__size_of_pulse
  4617  0019                     	__size_of_pulse	equ	__end_of_pulse-_pulse
  4618                           	
  4619  0003                     _pulse:	
  4620                           	opt	stack 5
  4621                           ; Regs used in _pulse: [wreg+status,2+status,0+pclath+cstack]
  4622                           	line	11
  4623                           	
  4624  0003                     l2945:	
  4625                           ;carparking.c: 11: RA2=1;
  4626  0003  1283               	bcf	status, 5	;RP0=0, select bank0
  4627  0004  1303               	bcf	status, 6	;RP1=0, select bank0
  4628  0005  1505               	bsf	(42/8),(42)&7
  4629                           	line	12
  4630                           	
  4631  0006                     l2947:	
  4632                           ;carparking.c: 12: delay(100);
  4633  0006  3064               	movlw	low(064h)
  4634  0007  00F0               	movwf	(?_delay)
  4635  0008  3000               	movlw	high(064h)
  4636  0009  00F1               	movwf	((?_delay))+1
  4637  000A  120A  158A  2789   	fcall	_delay
              120A  118A         
  4638                           	line	13
  4639                           	
  4640  000F                     l2949:	
  4641                           ;carparking.c: 13: RA2=0;
  4642  000F  1283               	bcf	status, 5	;RP0=0, select bank0
  4643  0010  1303               	bcf	status, 6	;RP1=0, select bank0
  4644  0011  1105               	bcf	(42/8),(42)&7
  4645                           	line	14
  4646                           ;carparking.c: 14: delay(100);
  4647  0012  3064               	movlw	low(064h)
  4648  0013  00F0               	movwf	(?_delay)
  4649  0014  3000               	movlw	high(064h)
  4650  0015  00F1               	movwf	((?_delay))+1
  4651  0016  120A  158A  2789   	fcall	_delay
              120A  118A         
  4652                           	line	15
  4653                           	
  4654  001B                     l1031:	
  4655  001B  0008               	return
  4656                           	opt stack 0
  4657                           GLOBAL	__end_of_pulse
  4658  001C                     	__end_of_pulse:
  4659 ;; =============== function _pulse ends ============
  4660                           
  4661                           	signat	_pulse,88
  4662                           	global	_delay
  4663                           psect	text223,local,class=CODE,delta=2
  4664                           global __ptext223
  4665  0F89                     __ptext223:
  4666                           
  4667 ;; *************** function _delay *****************
  4668 ;; Defined at:
  4669 ;;		line 6 in file "E:\KTU\Softwares\MP lab\Carparking\carparking.c"
  4670 ;; Parameters:    Size  Location     Type
  4671 ;;  del             2    0[COMMON] int 
  4672 ;; Auto vars:     Size  Location     Type
  4673 ;;		None
  4674 ;; Return value:  Size  Location     Type
  4675 ;;		None               void
  4676 ;; Registers used:
  4677 ;;		wreg
  4678 ;; Tracked objects:
  4679 ;;		On entry : 0/0
  4680 ;;		On exit  : 0/0
  4681 ;;		Unchanged: 0/0
  4682 ;; Data sizes:     COMMON   BANK0   BANK1   BANK3   BANK2
  4683 ;;      Params:         2       0       0       0       0
  4684 ;;      Locals:         0       0       0       0       0
  4685 ;;      Temps:          0       0       0       0       0
  4686 ;;      Totals:         2       0       0       0       0
  4687 ;;Total ram usage:        2 bytes
  4688 ;; Hardware stack levels used:    1
  4689 ;; This function calls:
  4690 ;;		Nothing
  4691 ;; This function is called by:
  4692 ;;		_pulse
  4693 ;; This function uses a non-reentrant model
  4694 ;;
  4695                           psect	text223
  4696                           	file	"E:\KTU\Softwares\MP lab\Carparking\carparking.c"
  4697                           	line	6
  4698                           	global	__size_of_delay
  4699  0014                     	__size_of_delay	equ	__end_of_delay-_delay
  4700                           	
  4701  0F89                     _delay:	
  4702                           	opt	stack 5
  4703                           ; Regs used in _delay: [wreg]
  4704                           	line	7
  4705                           	
  4706  0F89                     l2941:	
  4707                           ;carparking.c: 7: while(del--);
  4708  0F89  2F8B               	goto	l2943
  4709                           	
  4710  0F8A                     l1026:	
  4711  0F8A  2F8B               	goto	l2943
  4712                           	
  4713  0F8B                     l1025:	
  4714                           	
  4715  0F8B                     l2943:	
  4716  0F8B  30FF               	movlw	low(-1)
  4717  0F8C  07F0               	addwf	(delay@del),f
  4718  0F8D  1803               	skipnc
  4719  0F8E  0AF1               	incf	(delay@del+1),f
  4720  0F8F  30FF               	movlw	high(-1)
  4721  0F90  07F1               	addwf	(delay@del+1),f
  4722  0F91  30FF               	movlw	high(-1)
  4723  0F92  0671               	xorwf	((delay@del+1)),w
  4724  0F93  1D03               	skipz
  4725  0F94  2F97               	goto	u3055
  4726  0F95  30FF               	movlw	low(-1)
  4727  0F96  0670               	xorwf	((delay@del)),w
  4728  0F97                     u3055:
  4729                           
  4730  0F97  1D03               	skipz
  4731  0F98  2F9A               	goto	u3051
  4732  0F99  2F9B               	goto	u3050
  4733  0F9A                     u3051:
  4734  0F9A  2F8B               	goto	l2943
  4735  0F9B                     u3050:
  4736  0F9B  2F9C               	goto	l1028
  4737                           	
  4738  0F9C                     l1027:	
  4739                           	line	8
  4740                           	
  4741  0F9C                     l1028:	
  4742  0F9C  0008               	return
  4743                           	opt stack 0
  4744                           GLOBAL	__end_of_delay
  4745  0F9D                     	__end_of_delay:
  4746 ;; =============== function _delay ends ============
  4747                           
  4748                           	signat	_delay,4216
  4749                           psect	text224,local,class=CODE,delta=2
  4750                           global __ptext224
  4751  0000                     __ptext224:
  4752                           	global	btemp
  4753  007E                     	btemp set 07Eh
  4754                           
  4755                           	DABS	1,126,2	;btemp
  4756                           	global	wtemp0
  4757  007E                     	wtemp0 set btemp


HI-TECH Software PICC Macro Assembler V9.81 build 7503 
Symbol Table                                                                                   Tue Jun 01 12:16:23 2021

                   pc 0002                    _on 0F2B                    fsr 0004                   ?_on 0070  
                 _RA0 0028                   _RA1 0029                   _RA2 002A                   _RC0 0038  
                 _RC1 0039                   _RD0 0040                   _RC2 003A                   _RD1 0041  
                 _RC3 003B                   _RE0 0048                   _RD2 0042                   _RC4 003C  
                 _RD3 0043                   _RC5 003D                   _RD4 0044                   _RC6 003E  
                 _RD5 0045                   _RC7 003F                   _RD6 0046                   fsr0 0004  
                 indf 0000                  ??_on 0072                  l1100 02B3                  l1101 03A4  
                l1110 034F                  l1102 02E5                  l1031 001B                  l1111 0384  
                l1103 02E5                  l1040 0F5B                  l1120 04A1                  l1112 0367  
                l1104 02EA                  l1025 0F8B                  l1121 03F2                  l1113 0383  
                l1105 0354                  l1026 0F8A                  l1034 0F36                  l1122 041C  
                l1114 0393                  l1106 0304                  l1027 0F9C                  l1043 0F68  
                l1131 0471                  l1123 043D                  l1115 03A3                  l1107 0335  
                l1028 0F9C                  l1140 0514                  l1132 04A0                  l1116 03D7  
                l1108 033F                  l1037 0F42                  l1141 0520                  l1125 042F  
                l1117 03AC                  l1109 0336                  l1046 0F4E                  l1150 06E3  
                l1142 052C                  l1134 0492                  l1126 045E                  l1118 03AC  
                l1070 0141                  l1151 05EE                  l1143 0538                  l1135 05CD  
                l1119 03B1                  l1071 0141                  l1063 00F9                  l1160 06D7  
                l1152 0619                  l1144 0544                  l1136 04BB                  l1128 0450  
                l1064 03D8                  l1080 01B0                  l1072 0146                  l1161 07FB  
                l1153 062C                  l1145 0550                  l1137 04EF                  l1129 047F  
                l1081 0209                  l1073 019F                  l1065 0139                  l3001 005C  
                l1170 07B7                  l1162 0707                  l1154 0659                  l1146 0563  
                l1138 04FC                  l1090 0248                  l1082 01DE                  l1074 0174  
                l1066 010E                  l1171 07D0                  l1163 071C                  l1155 066C  
                l1147 05B3                  l1139 0508                  l1091 0248                  l1083 01DE  
                l1075 0174                  l1067 010E                  l3011 00D8                  l3003 00A0  
                l1172 07E5                  l1164 0731                  l1156 0697                  l1148 059F  
                l1092 024D                  l1084 01E3                  l1076 0179                  l1068 0113  
                l1173 07FA                  l1165 074A                  l1157 06E2                  l1149 05CD  
                l1093 02A6                  l3101 023F                  l1085 023C                  l1077 01D6  
                l1069 016C                  l3021 010D                  l3013 00EE                  l3005 00A4  
                l1174 07FC                  l1166 075F                  l1158 06C7                  l1094 027B  
                l1086 0211                  l1078 01AB                  l1175 07FD                  l1167 0774  
                l1159 06BE                  l1095 027B                  l3111 024D                  l3103 0240  
                l1087 0211                  l1079 01AB                  l3023 0113                  l3031 0139  
                l3015 00F3                  l3007 00BE                  l1176 07FD                  l1168 078D  
                l1096 0280                  l1088 0216                  l1169 07A2                  l3201 03BB  
                l1097 02D9                  l3121 027A                  l1089 0273                  l3113 0257  
                l3105 0241                  l3041 0163                  l3033 0140                  l3025 011D  
                l3017 00F9                  l3009 00C2                  l1098 02AE                  l3211 03E3  
                l3203 03C2                  l1099 02AE                  l3123 0280                  l3131 02A6  
                l3115 025E                  l3107 0242                  l3051 018A                  l3035 0146  
                l3043 016C                  l3027 0124                  l3019 0102                  l3301 04BB  
                l3221 040F                  l3213 03F1                  l3205 03CE                  l3141 02D0  
                l3133 02AD                  l3125 028A                  l3117 026A                  l3109 0247  
                l3061 01A4                  l3053 0196                  l3045 0173                  l3037 0150  
                l3029 0130                  l3311 0501                  l3303 04DC                  l3231 043A  
                l3223 0426                  l3215 03F2                  l3151 02DF                  l3135 02B3  
                l3143 02D9                  l3127 0291                  l3119 0273                  l3071 01C1  
                l3063 01A5                  l3047 0179                  l3055 019F                  l3039 0157  
                l3207 03D8                  l3401 0681                  l3321 0520                  l3313 0508  
                l3305 04E2                  l3241 0443                  l3233 043D                  l3225 042A  
                l3217 03FB                  l3209 03E1                  l3161 0303                  l3153 02E4  
                l3145 02DC                  l3137 02BD                  l3129 029D                  l3081 01ED  
                l3073 01CD                  l3065 01AA                  l3057 01A2                  l3049 0183  
                l3411 06AF                  l3403 0689                  l3331 053D                  l3323 0525  
                l3315 050D                  l3307 04F5                  l3251 045B                  l3243 0447  
                l3235 0440                  l3227 042F                  l3219 0407                  l3171 0327  
                l3163 0304                  l3155 02EA                  l3147 02DD                  l3139 02C4  
                l3091 0216                  l3083 01F4                  l3067 01B0                  l3075 01D6  
                l3059 01A3                  l3501 0777                  l3421 06D7                  l3413 06B3  
                l3405 0697                  l3341 0562                  l3333 0544                  l3325 052C  
                l3317 0514                  l3309 04FC                  l3261 0464                  l3253 045E  
                l3245 044B                  l3237 0441                  l3229 0434                  l3181 0358  
                l3173 0336                  l3165 030D                  l3157 02F3                  l3149 02DE  
                l3093 0220                  l3085 0200                  l3077 01DD                  l3069 01BA  
                l3511 0789                  l3503 0778                  l3431 06FB                  l3423 06DB  
                l3415 06BD                  l3407 06A5                  l3351 05A5                  l3343 0563  
                l3335 0549                  l3327 0531                  l3319 0519                  l3271 047C  
                l3263 0468                  l3255 0461                  l3247 0450                  l3239 0442  
                l3191 038D                  l3183 0366                  l3167 0319                  l3175 033F  
                l3159 02F5                  l3095 0227                  l3079 01E3                  l3087 0209  
                l3521 079E                  l3505 077C                  l3513 078D                  l3441 0710  
                l3433 06FF                  l3417 06BE                  l3409 06AB                  l3361 05D6  
                l3425 06E3                  l3345 0572                  l3353 05B3                  l3337 0550  
                l3329 0538                  l3281 0485                  l3273 047F                  l3265 046C  
                l3257 0462                  l3249 0455                  l3193 039C                  l3185 0367  
                l3177 034F                  l3169 031F                  l3097 0233                  l3089 0210  
                l3531 07B3                  l3515 0791                  l3523 07A2                  l3507 0781  
                l3451 0725                  l3443 0714                  l3435 0703                  l3427 06EC  
                l3419 06C7                  l3371 05F7                  l3363 05DB                  l3355 05B9  
                l3347 0598                  l3339 0554                  l3291 049D                  l3283 0489  
                l3275 0482                  l3267 0471                  l3259 0463                  l3187 0375  
                l3179 0354                  l3195 03A4                  l3099 023C                  l3541 07BB  
                l3525 07A6                  l3533 07B7                  l3517 0796                  l3509 0785  
                l3461 0733                  l3453 0729                  l3445 0718                  l3429 06F6  
                l3437 0707                  l3381 062B                  l3373 0603                  l3365 05DF  
                l3357 05BD                  l3349 059F                  l3285 048D                  l3277 0483  
                l3269 0476                  l3293 04A1                  l3197 03AB                  l3189 0384  
                l3543 07BF                  l3551 07D0                  l3535 07B8                  l3527 07AB  
                l3519 079A                  l3471 0742                  l3463 0734                  l3455 072D  
                l3439 070B                  l3447 071C                  l3391 0659                  l3383 062C  
                l3375 060B                  l3367 05ED                  l3359 05C6                  l3295 04AA  
                l3287 0492                  l3279 0484                  l3199 03B1                  l3553 07D4  
                l3561 07E5                  l3545 07C4                  l3537 07B9                  l3529 07AF  
                l3481 0757                  l3473 0746                  l3465 0735                  l3449 0720  
                l3457 0731                  l3393 065D                  l3385 0635                  l3377 0619  
                l3369 05EE                  l3297 04AC                  l3289 0497                  l3563 07E9  
                l3555 07D9                  l3547 07C8                  l3539 07BA                  l3491 076C  
                l3483 075B                  l3467 0739                  l3475 074A                  l3459 0732  
                l3395 066B                  l3387 0643                  l3379 061D                  l3299 04BA  
                l2941 0F89                  l3565 07EE                  l3557 07DD                  l3549 07CC  
                l3493 0770                  l3477 074E                  l3485 075F                  l3469 073E  
                l3397 066C                  l3389 064B                  l2943 0F8B                  l2951 0F2B  
                l3567 07F2                  l3559 07E1                  l3487 0763                  l3495 0774  
                l3479 0753                  l3399 0675                  l2945 0003                  l2953 0F2F  
                l2961 0F3D                  l3569 07F6                  l3497 0775                  l3489 0768  
                l2947 0006                  l2955 0F31                  l2963 0F50                  l2971 0F61  
                l3499 0776                  l2949 000F                  l2957 0F37                  l2965 0F54  
                l2973 0F63                  l2981 001C                  l2959 0F3B                  l2967 0F56  
                l2975 0F43                  l2991 003C                  l2983 002B                  l2969 0F5D  
                l2977 0F47                  l2993 003F                  l2985 002F                  l2979 0F49  
                l2995 0040                  l2987 0036                  l2997 0056                  l2989 0039  
                l2999 005A           main@control 01DE                  u3100 00B0                  u3110 00CA  
                u3200 01A9                  u3120 00E0                  u3201 01A8                  u3050 0F9B  
                u3210 01AF                  u3130 0102                  u3051 0F9A                  u3211 01AE  
                u3131 0101                  u3300 02AC                  u3220 01DC                  u3140 010C  
                u3060 0048                  u3301 02AB                  u3221 01DB                  u3141 010B  
                u3310 02B2                  u3230 01E2                  u3150 0112                  u3070 0066  
                u3055 0F97                  u3311 02B1                  u3231 01E1                  u3151 0111  
                u3400 038D                  u3320 02E3                  u3240 020F                  u3160 013F  
                u3080 007C                  u3401 038C                  u3321 02E2                  u3241 020E  
                u3161 013E                  u3410 039C                  u3330 02E9                  u3250 0215  
                u3170 0145                  u3090 0092                  u3411 039B                  u3331 02E8  
                u3251 0214                  u3171 0144                  u3500 0447                  u3420 03AA  
                u3340 02F3                  u3260 0246                  u3180 0172                  u3501 0446  
                u3421 03A9                  u3341 02F2                  u3261 0245                  u3181 0171  
                u3510 044B                  u3430 03B0                  u3350 0302                  u3270 024C  
                u3190 0178                  u3511 044A                  u3431 03AF                  u3351 0301  
                u3271 024B                  u3191 0177                  u3600 04B9                  u3520 044F  
                u3440 03E1                  u3360 0334                  u3280 0279                  u3601 04B8  
                u3521 044E                  u3441 03E0                  u3361 0333                  u3281 0278  
                u3610 04EF                  u3530 0468                  u3450 03F0                  u3370 034E  
                u3290 027F                  u3611 04EE                  u3531 0467                  u3451 03EF  
                u3371 034D                  u3355 02FE                  u3291 027E                  u3700 0561  
                u3620 04F5                  u3540 046C                  u3460 041C                  u3380 0365  
                u3701 0560                  u3621 04F4                  u3605 04B5                  u3541 046B  
                u3461 041B                  u3381 0364                  u3365 0330                  u3710 0572  
                u3630 0501                  u3550 0470                  u3470 0426                  u3390 0382  
                u3711 0571                  u3631 0500                  u3615 04EB                  u3551 046F  
                u3471 0425                  u3455 03EC                  u3391 0381                  u3375 034A  
                u3800 0696                  u3720 05B2                  u3640 050D                  u3560 0489  
                u3480 042A                  u3801 0695                  u3721 05B1                  u3705 055D  
                u3641 050C                  u3561 0488                  u3481 0429                  u3465 0418  
                u3385 0361                  u3810 06BC                  u3730 05C6                  u3650 0519  
                u3570 048D                  u3490 042E                  u3811 06BB                  u3731 05C5  
                u3651 0518                  u3571 048C                  u3491 042D                  u3395 037E  
                u3900 077C                  u3820 06D6                  u3740 05D6                  u3660 0525  
                u3580 0491                  u3901 077B                  u3821 06D5                  u3805 0692  
                u3741 05D5                  u3725 05AE                  u3661 0524                  u3581 0490  
                u3910 0791                  u3830 06EC                  u3750 05EC                  u3670 0531  
                u3590 04AA                  u3911 0790                  u3831 06EB                  u3751 05EB  
                u3671 0530                  u3591 04A9                  u3920 07A6                  u3840 06F6  
                u3760 0618                  u3680 053D                  u3921 07A5                  u3841 06F5  
                u3825 06D2                  u3761 0617                  u3681 053C                  u3930 07BF  
                u3850 070B                  u3770 062A                  u3690 0549                  u3931 07BE  
                u3851 070A                  u3771 0629                  u3755 05E8                  u3691 0548  
                u3940 07D4                  u3860 0720                  u3780 0658                  u3941 07D3  
                u3861 071F                  u3781 0657                  u3765 0614                  u3950 07E9  
                u3870 0739                  u3790 066A                  u3951 07E8                  u3871 0738  
                u3791 0669                  u3775 0626                  u3880 074E                  u3881 074D  
                u3785 0654                  u3890 0763                  u3891 0762                  u3795 0666  
         display@data 0072                  _main 001C                  btemp 007E                  _type 0F37  
         main@welcome 002F                  start 0000                 ?_main 0070                 _ANSEL 0188  
               ?_type 0070       __end_of_address 0F5C                 _PORTA 0005                 _PORTB 0006  
               _PORTC 0007                 _PORTD 0008                 _PORTE 0009                 _TRISA 0085  
               _TRISB 0086                 _TRISC 0087                 _TRISD 0088                 _TRISE 0089  
     __end_of_display 0F69                 _delay 0F89                 _clear 0F43                 _pulse 0003  
               main@e 01DC                 main@i 01E2                 main@j 01E4                 main@k 01E0  
               pclath 000A                 status 0003                 wtemp0 007E          __end_of_main 0800  
        __end_of_type 0F43                ??_main 0073                ??_type 0072                ?_delay 0070  
              ?_clear 0070                ?_pulse 0070                _ANSELH 0189             ??_address 0072  
              clrloop 0F24             ??_display 0072        __pcstackCOMMON 0070          __pidataBANK2 0F69  
        __pidataBANK3 0FC4         __end_of_delay 0F9D         __end_of_clear 0F4F         __end_of_pulse 001C  
          __end_of_on 0F37               ??_delay 0072               ??_clear 0072               ??_pulse 0072  
          __pbssBANK3 01CC            __pmaintext 001C               _address 0F4F               _display 0F5C  
             main@arr 00DE               main@new 0020               main@val 00BE  end_of_initialization 0FC0  
             init_ram 0F7C            main@nearer 0061            main@sensor 00CE   start_initialization 0F9D  
         __pdataBANK2 0110           __pdataBANK3 0190         __pcstackBANK0 0020         __pcstackBANK1 00A0  
       __pcstackBANK3 01DC             __ptext220 0F37             __ptext221 0F2B             __ptext222 0003  
           __ptext223 0F89             __ptext224 0000             __ptext217 0F43             __ptext218 0F5C  
           __ptext219 0F4F              ?_address 0070              ?_display 0070        __size_of_delay 0014  
      __size_of_clear 000C        __size_of_pulse 0019           __size_of_on 000C             main@F1610 01C4  
           main@F1620 019F             main@F1615 01CC             main@F1632 01BA             main@F1624 0110  
           main@F1634 01AE             main@F1618 0190           address@data 0072             main@count 00ED  
           main@empty 00A0             main@state 006D             main@wrong 0046             init_fetch 0F78  
    __size_of_address 000D      __size_of_display 000D         __size_of_main 07E4         __size_of_type 000C  
            delay@del 0070              clear_ram 0F23              main@free 0055              main@regi 0037  
            main@temp 006B  
